; Listing generated by Microsoft (R) Optimizing Compiler Version 14.01.60511.01 

	TTL	I:\library\trees\winceutils\winceutils-b01x\src\ti\sdo\winceutils\cmem\drivers\cmemk.c
	CODE32

  00000			 AREA	 |.drectve|, DRECTVE
	DCB	"-defaultlib:LIBCMT "
	DCB	"-defaultlib:OLDNAMES "


  00000			 AREA	 |.data|, DATA
	 COMMON	|gdwPageSize|, 0x4

	 COMMON	|CMKDevice|, 0x8

	 COMMON	|p_objs|, 0x1c00


  00000			 AREA	 |.bss|, NOINIT
|real_block_virtp| % 0x8
|real_block_start| % 0x8
|block_virtp| %	0x8
|block_virtoff| % 0x8
|block_virtend| % 0x8
|block_start| %	0x8
|block_end| %	0x8
|block_avail_size| % 0x8
|total_num_buffers| % 0x8
|mem_alloc_type| % 0x8
|reference_count| % 0x4
|numBlocks| %	0x4
|phys_start| %	0x4
|phys_end| %	0x4
|npools| %	0x8
|pools|	%	0x200
|phys_start_1| % 0x4
|phys_end_1| %	0x4
|pools_1| %	0x200
|allowOverlap| % 0x4
|useHeapIfPoolUnavailable| % 0x4
|cmem_mutex| %	0x4
|heap_size| %	0x8
|heap_virtp| %	0x8
|heap_head| %	0x10

  00000			 AREA	 |.data|, DATA
|version| DCD	0x2200000
|heap_pool| DCD	0xffffffff
	DCD	0xffffffff
	EXPORT	|HeapMem_alloc|

  00000			 AREA	 |.pdata|, PDATA
|$T41130| DCD	|$LN18@HeapMem_al|
	DCD	0x40009604
; Function compile flags: /Odtp
; File i:\library\trees\winceutils\winceutils-b01x\src\ti\sdo\winceutils\cmem\drivers\cmemk.c

  00000			 AREA	 |.text|, CODE, ARM

  00000		 |HeapMem_alloc| PROC

; 305  : {

  00000		 |$LN18@HeapMem_al|
  00000	e1a0c00d	 mov         r12, sp
  00004	e92d000f	 stmdb       sp!, {r0 - r3}
  00008	e92d5000	 stmdb       sp!, {r12, lr}
  0000c	e24dd028	 sub         sp, sp, #0x28
  00010		 |$M41127|

; 306  :     HeapMem_Header *prevHeader, *newHeader, *curHeader;
; 307  :     char *allocAddr;
; 308  :     size_t curSize, adjSize;
; 309  :     size_t remainSize; /* free memory after allocated memory      */
; 310  :     size_t adjAlign, offset;
; 311  : //    long key;
; 312  : 
; 313  : #if 0
; 314  :     /* Assert that requested align is a power of 2 */
; 315  :     Assert_isTrue(((reqAlign & (reqAlign - 1)) == 0), HeapMem_A_align);
; 316  : 
; 317  :     /* Assert that requested block size is non-zero */
; 318  :     Assert_isTrue((reqSize != 0), HeapMem_A_zeroBlock);
; 319  : #endif
; 320  : 
; 321  :     adjSize = reqSize;

  00010	e59d3034	 ldr         r3, [sp, #0x34]
  00014	e58d3020	 str         r3, [sp, #0x20]

; 322  : 
; 323  :     /* Make size requested a multiple of HEAP_ALIGN */
; 324  :     if ((offset = (adjSize & (HEAP_ALIGN - 1))) != 0) {

  00018	e59f3234	 ldr         r3, [pc, #0x234]
  0001c	e5933000	 ldr         r3, [r3]
  00020	e2432001	 sub         r2, r3, #1
  00024	e59d3020	 ldr         r3, [sp, #0x20]
  00028	e0033002	 and         r3, r3, r2
  0002c	e58d3010	 str         r3, [sp, #0x10]
  00030	e59d3010	 ldr         r3, [sp, #0x10]
  00034	e3530000	 cmp         r3, #0
  00038	0a000006	 beq         |$LN13@HeapMem_al|

; 325  :         adjSize = adjSize + (HEAP_ALIGN - offset);

  0003c	e59f3210	 ldr         r3, [pc, #0x210]
  00040	e5932000	 ldr         r2, [r3]
  00044	e59d3010	 ldr         r3, [sp, #0x10]
  00048	e0422003	 sub         r2, r2, r3
  0004c	e59d3020	 ldr         r3, [sp, #0x20]
  00050	e0833002	 add         r3, r3, r2
  00054	e58d3020	 str         r3, [sp, #0x20]
  00058		 |$LN13@HeapMem_al|

; 326  :     }
; 327  : 
; 328  :     /*
; 329  :      *  Make sure the alignment is at least as large as HEAP_ALIGN.
; 330  :      *  Note: adjAlign must be a power of 2 (by function constraint) and
; 331  :      *  HEAP_ALIGN is also a power of 2,
; 332  :      */
; 333  :     adjAlign = reqAlign;

  00058	e59d3038	 ldr         r3, [sp, #0x38]
  0005c	e58d3000	 str         r3, [sp]

; 334  :     if (adjAlign & (HEAP_ALIGN - 1)) {

  00060	e59f31ec	 ldr         r3, [pc, #0x1EC]
  00064	e5933000	 ldr         r3, [r3]
  00068	e2432001	 sub         r2, r3, #1
  0006c	e59d3000	 ldr         r3, [sp]
  00070	e1130002	 tst         r3, r2
  00074	0a000002	 beq         |$LN12@HeapMem_al|

; 335  :         /* adjAlign is less than HEAP_ALIGN */
; 336  :         adjAlign = HEAP_ALIGN;

  00078	e59f31d4	 ldr         r3, [pc, #0x1D4]
  0007c	e5933000	 ldr         r3, [r3]
  00080	e58d3000	 str         r3, [sp]
  00084		 |$LN12@HeapMem_al|

; 337  :     }
; 338  : 
; 339  :     /*
; 340  :      *  NOTE: We don't need a "gate" here since this function is called
; 341  :      *  after acquiring a mutex.
; 342  :      */
; 343  : 
; 344  :     /*
; 345  :      *  The block will be allocated from curHeader. Maintain a pointer to
; 346  :      *  prevHeader so prevHeader->next can be updated after the alloc.
; 347  :      */
; 348  :     prevHeader  = &heap_head[bi];

  00084	e59d1030	 ldr         r1, [sp, #0x30]
  00088	e3a03008	 mov         r3, #8
  0008c	e0020391	 mul         r2, r1, r3
  00090	e59f31b8	 ldr         r3, [pc, #0x1B8]
  00094	e0833002	 add         r3, r3, r2
  00098	e58d3008	 str         r3, [sp, #8]

; 349  :     curHeader = prevHeader->next;

  0009c	e59d3008	 ldr         r3, [sp, #8]
  000a0	e5933000	 ldr         r3, [r3]
  000a4	e58d3014	 str         r3, [sp, #0x14]
  000a8		 |$LN11@HeapMem_al|

; 350  : 
; 351  :     /* Loop over the free list. */
; 352  :     while (curHeader != NULL) {

  000a8	e59d3014	 ldr         r3, [sp, #0x14]
  000ac	e3530000	 cmp         r3, #0
  000b0	0a000060	 beq         |$LN10@HeapMem_al|

; 353  : 
; 354  :         curSize = curHeader->size;

  000b4	e59d3014	 ldr         r3, [sp, #0x14]
  000b8	e2833004	 add         r3, r3, #4
  000bc	e5933000	 ldr         r3, [r3]
  000c0	e58d300c	 str         r3, [sp, #0xC]

; 355  : 
; 356  :         /*
; 357  :          *  Determine the offset from the beginning to make sure
; 358  :          *  the alignment request is honored.
; 359  :          */
; 360  :         offset = (unsigned long)curHeader & (adjAlign - 1);

  000c4	e59d3000	 ldr         r3, [sp]
  000c8	e2432001	 sub         r2, r3, #1
  000cc	e59d3014	 ldr         r3, [sp, #0x14]
  000d0	e0033002	 and         r3, r3, r2
  000d4	e58d3010	 str         r3, [sp, #0x10]

; 361  :         if (offset) {

  000d8	e59d3010	 ldr         r3, [sp, #0x10]
  000dc	e3530000	 cmp         r3, #0
  000e0	0a000003	 beq         |$LN9@HeapMem_al|

; 362  :             offset = adjAlign - offset;

  000e4	e59d2000	 ldr         r2, [sp]
  000e8	e59d3010	 ldr         r3, [sp, #0x10]
  000ec	e0423003	 sub         r3, r2, r3
  000f0	e58d3010	 str         r3, [sp, #0x10]
  000f4		 |$LN9@HeapMem_al|

; 363  :         }
; 364  : 
; 365  : #if 0
; 366  :         /* Internal Assert that offset is a multiple of HEAP_ALIGN */
; 367  :         Assert_isTrue(((offset & (HEAP_ALIGN - 1)) == 0), NULL);
; 368  : #endif
; 369  : 
; 370  :         /* big enough? */
; 371  :         if (curSize >= (adjSize + offset)) {

  000f4	e59d2020	 ldr         r2, [sp, #0x20]
  000f8	e59d3010	 ldr         r3, [sp, #0x10]
  000fc	e0822003	 add         r2, r2, r3
  00100	e59d300c	 ldr         r3, [sp, #0xC]
  00104	e1530002	 cmp         r3, r2
  00108	3a000044	 bcc         |$LN8@HeapMem_al|

; 372  : 
; 373  :             /* Set the pointer that will be returned. Alloc from front */
; 374  :             allocAddr = (char *)((unsigned long)curHeader + offset);

  0010c	e59d2014	 ldr         r2, [sp, #0x14]
  00110	e59d3010	 ldr         r3, [sp, #0x10]
  00114	e0823003	 add         r3, r2, r3
  00118	e58d3004	 str         r3, [sp, #4]

; 375  : 
; 376  :             if (dryrun) {

  0011c	e59d303c	 ldr         r3, [sp, #0x3C]
  00120	e3530000	 cmp         r3, #0
  00124	0a000002	 beq         |$LN7@HeapMem_al|

; 377  :                 return ((void *)allocAddr);

  00128	e59d3004	 ldr         r3, [sp, #4]
  0012c	e58d3024	 str         r3, [sp, #0x24]
  00130	ea000042	 b           |$LN14@HeapMem_al|
  00134		 |$LN7@HeapMem_al|

; 378  :             }
; 379  : 
; 380  :             /*
; 381  :              *  Determine the remaining memory after the allocated block.
; 382  :              *  Note: this cannot be negative because of above comparison.
; 383  :              */
; 384  :             remainSize = curSize - adjSize - offset;

  00134	e59d200c	 ldr         r2, [sp, #0xC]
  00138	e59d3020	 ldr         r3, [sp, #0x20]
  0013c	e0422003	 sub         r2, r2, r3
  00140	e59d3010	 ldr         r3, [sp, #0x10]
  00144	e0423003	 sub         r3, r2, r3
  00148	e58d301c	 str         r3, [sp, #0x1C]

; 385  : 
; 386  : #if 0
; 387  :             /* Internal Assert that remainSize is a multiple of HEAP_ALIGN */
; 388  :             Assert_isTrue(((remainSize & (HEAP_ALIGN - 1)) == 0), NULL);
; 389  : #endif
; 390  : 
; 391  :             /*
; 392  :              *  If there is memory at the beginning (due to alignment
; 393  :              *  requirements), maintain it in the list.
; 394  :              *
; 395  :              *  offset and remainSize must be multiples of
; 396  :              *  HEAP_ALIGN. Therefore the address of the newHeader
; 397  :              *  below must be a multiple of the HEAP_ALIGN, thus
; 398  :              *  maintaining the requirement.
; 399  :              */
; 400  :             if (offset) {

  0014c	e59d3010	 ldr         r3, [sp, #0x10]
  00150	e3530000	 cmp         r3, #0
  00154	0a000016	 beq         |$LN6@HeapMem_al|

; 401  : 
; 402  :                 /* Adjust the curHeader size accordingly */
; 403  :                 curHeader->size = offset;

  00158	e59d3014	 ldr         r3, [sp, #0x14]
  0015c	e2832004	 add         r2, r3, #4
  00160	e59d3010	 ldr         r3, [sp, #0x10]
  00164	e5823000	 str         r3, [r2]

; 404  : 
; 405  :                 /*
; 406  :                  *  If there is remaining memory, add into the free list.
; 407  :                  *  Note: no need to coalesce and we have HeapMem locked so
; 408  :                  *        it is safe.
; 409  :                  */
; 410  :                 if (remainSize) {

  00168	e59d301c	 ldr         r3, [sp, #0x1C]
  0016c	e3530000	 cmp         r3, #0
  00170	0a00000e	 beq         |$LN5@HeapMem_al|

; 411  :                     newHeader = (HeapMem_Header *)
; 412  :                         ((unsigned long)allocAddr + adjSize);

  00174	e59d2004	 ldr         r2, [sp, #4]
  00178	e59d3020	 ldr         r3, [sp, #0x20]
  0017c	e0823003	 add         r3, r2, r3
  00180	e58d3018	 str         r3, [sp, #0x18]

; 413  :                     newHeader->next = curHeader->next;

  00184	e59d3014	 ldr         r3, [sp, #0x14]
  00188	e5932000	 ldr         r2, [r3]
  0018c	e59d3018	 ldr         r3, [sp, #0x18]
  00190	e5832000	 str         r2, [r3]

; 414  :                     newHeader->size = remainSize;

  00194	e59d3018	 ldr         r3, [sp, #0x18]
  00198	e2832004	 add         r2, r3, #4
  0019c	e59d301c	 ldr         r3, [sp, #0x1C]
  001a0	e5823000	 str         r3, [r2]

; 415  :                     curHeader->next = newHeader;

  001a4	e59d2018	 ldr         r2, [sp, #0x18]
  001a8	e59d3014	 ldr         r3, [sp, #0x14]
  001ac	e5832000	 str         r2, [r3]
  001b0		 |$LN5@HeapMem_al|

; 416  :                 }
; 417  :             }
; 418  :             else {

  001b0	ea000016	 b           |$LN4@HeapMem_al|
  001b4		 |$LN6@HeapMem_al|

; 419  :                 /*
; 420  :                  *  If there is any remaining, link it in,
; 421  :                  *  else point to the next free block.
; 422  :                  *  Note: no need to coalesce and we have HeapMem locked so
; 423  :                  *        it is safe.
; 424  :                  */
; 425  :                 if (remainSize) {

  001b4	e59d301c	 ldr         r3, [sp, #0x1C]
  001b8	e3530000	 cmp         r3, #0
  001bc	0a00000f	 beq         |$LN3@HeapMem_al|

; 426  :                     newHeader = (HeapMem_Header *)
; 427  :                         ((unsigned long)allocAddr + adjSize);

  001c0	e59d2004	 ldr         r2, [sp, #4]
  001c4	e59d3020	 ldr         r3, [sp, #0x20]
  001c8	e0823003	 add         r3, r2, r3
  001cc	e58d3018	 str         r3, [sp, #0x18]

; 428  :                     newHeader->next  = curHeader->next;

  001d0	e59d3014	 ldr         r3, [sp, #0x14]
  001d4	e5932000	 ldr         r2, [r3]
  001d8	e59d3018	 ldr         r3, [sp, #0x18]
  001dc	e5832000	 str         r2, [r3]

; 429  :                     newHeader->size  = remainSize;

  001e0	e59d3018	 ldr         r3, [sp, #0x18]
  001e4	e2832004	 add         r2, r3, #4
  001e8	e59d301c	 ldr         r3, [sp, #0x1C]
  001ec	e5823000	 str         r3, [r2]

; 430  :                     prevHeader->next = newHeader;

  001f0	e59d2018	 ldr         r2, [sp, #0x18]
  001f4	e59d3008	 ldr         r3, [sp, #8]
  001f8	e5832000	 str         r2, [r3]

; 431  :                 }
; 432  :                 else {

  001fc	ea000003	 b           |$LN2@HeapMem_al|
  00200		 |$LN3@HeapMem_al|

; 433  :                     prevHeader->next = curHeader->next;

  00200	e59d3014	 ldr         r3, [sp, #0x14]
  00204	e5932000	 ldr         r2, [r3]
  00208	e59d3008	 ldr         r3, [sp, #8]
  0020c	e5832000	 str         r2, [r3]
  00210		 |$LN2@HeapMem_al|
  00210		 |$LN4@HeapMem_al|

; 434  :                 }
; 435  :             }
; 436  : 
; 437  :             /* Success, return the allocated memory */
; 438  :             return ((void *)allocAddr);

  00210	e59d3004	 ldr         r3, [sp, #4]
  00214	e58d3024	 str         r3, [sp, #0x24]
  00218	ea000008	 b           |$LN14@HeapMem_al|

; 439  :         }
; 440  :         else {

  0021c	ea000004	 b           |$LN1@HeapMem_al|
  00220		 |$LN8@HeapMem_al|

; 441  :             prevHeader = curHeader;

  00220	e59d3014	 ldr         r3, [sp, #0x14]
  00224	e58d3008	 str         r3, [sp, #8]

; 442  :             curHeader = curHeader->next;

  00228	e59d3014	 ldr         r3, [sp, #0x14]
  0022c	e5933000	 ldr         r3, [r3]
  00230	e58d3014	 str         r3, [sp, #0x14]
  00234		 |$LN1@HeapMem_al|

; 443  :         }
; 444  :     }

  00234	eaffff9b	 b           |$LN11@HeapMem_al|
  00238		 |$LN10@HeapMem_al|

; 445  : 
; 446  :     return (NULL);

  00238	e3a03000	 mov         r3, #0
  0023c	e58d3024	 str         r3, [sp, #0x24]
  00240		 |$LN14@HeapMem_al|

; 447  : }

  00240	e59d0024	 ldr         r0, [sp, #0x24]
  00244	e28dd028	 add         sp, sp, #0x28
  00248	e89d6000	 ldmia       sp, {sp, lr}
  0024c	e12fff1e	 bx          lr
  00250		 |$LN19@HeapMem_al|
  00250		 |$LN20@HeapMem_al|
  00250	00000000	 DCD         |heap_head|
  00254		 |$LN21@HeapMem_al|
  00254	00000000	 DCD         |gdwPageSize|
  00258		 |$M41128|

			 ENDP  ; |HeapMem_alloc|

	EXPORT	|HeapMem_free|

  00008			 AREA	 |.pdata|, PDATA
|$T41138| DCD	|$LN10@HeapMem_fr|
	DCD	0x40007004
; Function compile flags: /Odtp

  00258			 AREA	 |.text|, CODE, ARM

  00258		 |HeapMem_free| PROC

; 453  : {

  00258		 |$LN10@HeapMem_fr|
  00258	e1a0c00d	 mov         r12, sp
  0025c	e92d0007	 stmdb       sp!, {r0 - r2}
  00260	e92d5000	 stmdb       sp!, {r12, lr}
  00264	e24dd010	 sub         sp, sp, #0x10
  00268		 |$M41135|

; 454  : //    long key;
; 455  :     HeapMem_Header *curHeader, *newHeader, *nextHeader;
; 456  :     size_t offset;
; 457  : 
; 458  :     /* obj->head never changes, doesn't need Gate protection. */
; 459  :     curHeader = &heap_head[bi];

  00268	e59d1018	 ldr         r1, [sp, #0x18]
  0026c	e3a03008	 mov         r3, #8
  00270	e0020391	 mul         r2, r1, r3
  00274	e59f3194	 ldr         r3, [pc, #0x194]
  00278	e0833002	 add         r3, r3, r2
  0027c	e58d3004	 str         r3, [sp, #4]

; 460  : 
; 461  :     /* Restore size to actual allocated size */
; 462  :     if ((offset = size & (HEAP_ALIGN - 1)) != 0) {

  00280	e59f318c	 ldr         r3, [pc, #0x18C]
  00284	e5933000	 ldr         r3, [r3]
  00288	e2432001	 sub         r2, r3, #1
  0028c	e59d3020	 ldr         r3, [sp, #0x20]
  00290	e0033002	 and         r3, r3, r2
  00294	e58d3000	 str         r3, [sp]
  00298	e59d3000	 ldr         r3, [sp]
  0029c	e3530000	 cmp         r3, #0
  002a0	0a000006	 beq         |$LN5@HeapMem_fr|

; 463  :         size += HEAP_ALIGN - offset;

  002a4	e59f3168	 ldr         r3, [pc, #0x168]
  002a8	e5932000	 ldr         r2, [r3]
  002ac	e59d3000	 ldr         r3, [sp]
  002b0	e0422003	 sub         r2, r2, r3
  002b4	e59d3020	 ldr         r3, [sp, #0x20]
  002b8	e0833002	 add         r3, r3, r2
  002bc	e58d3020	 str         r3, [sp, #0x20]
  002c0		 |$LN5@HeapMem_fr|

; 464  :     }
; 465  : 
; 466  : /*
; 467  :  * We don't need to enter the "gate" since this function is called
; 468  :  * with it held already.
; 469  :  */
; 470  : //    key = Gate_enterModule();
; 471  : 
; 472  :     newHeader = (HeapMem_Header *)addr;

  002c0	e59d301c	 ldr         r3, [sp, #0x1C]
  002c4	e58d3008	 str         r3, [sp, #8]

; 473  :     nextHeader = curHeader->next;

  002c8	e59d3004	 ldr         r3, [sp, #4]
  002cc	e5933000	 ldr         r3, [r3]
  002d0	e58d300c	 str         r3, [sp, #0xC]
  002d4		 |$LN4@HeapMem_fr|

; 474  : 
; 475  :     /* Go down freelist and find right place for buf */
; 476  :     while (nextHeader != NULL && nextHeader < newHeader) {

  002d4	e59d300c	 ldr         r3, [sp, #0xC]
  002d8	e3530000	 cmp         r3, #0
  002dc	0a000009	 beq         |$LN3@HeapMem_fr|
  002e0	e59d200c	 ldr         r2, [sp, #0xC]
  002e4	e59d3008	 ldr         r3, [sp, #8]
  002e8	e1520003	 cmp         r2, r3
  002ec	2a000005	 bcs         |$LN3@HeapMem_fr|

; 477  :         curHeader = nextHeader;

  002f0	e59d300c	 ldr         r3, [sp, #0xC]
  002f4	e58d3004	 str         r3, [sp, #4]

; 478  :         nextHeader = nextHeader->next;

  002f8	e59d300c	 ldr         r3, [sp, #0xC]
  002fc	e5933000	 ldr         r3, [r3]
  00300	e58d300c	 str         r3, [sp, #0xC]

; 479  :     }

  00304	eafffff2	 b           |$LN4@HeapMem_fr|
  00308		 |$LN3@HeapMem_fr|

; 480  : 
; 481  :     newHeader->next = nextHeader;

  00308	e59d200c	 ldr         r2, [sp, #0xC]
  0030c	e59d3008	 ldr         r3, [sp, #8]
  00310	e5832000	 str         r2, [r3]

; 482  :     newHeader->size = size;

  00314	e59d3008	 ldr         r3, [sp, #8]
  00318	e2832004	 add         r2, r3, #4
  0031c	e59d3020	 ldr         r3, [sp, #0x20]
  00320	e5823000	 str         r3, [r2]

; 483  :     curHeader->next = newHeader;

  00324	e59d2008	 ldr         r2, [sp, #8]
  00328	e59d3004	 ldr         r3, [sp, #4]
  0032c	e5832000	 str         r2, [r3]

; 484  : 
; 485  :     /* Join contiguous free blocks */
; 486  :     /* Join with upper block */
; 487  :     if ((nextHeader != NULL) &&
; 488  :             (((unsigned long)newHeader + size) == (unsigned long)nextHeader)) {

  00330	e59d300c	 ldr         r3, [sp, #0xC]
  00334	e3530000	 cmp         r3, #0
  00338	0a000013	 beq         |$LN2@HeapMem_fr|
  0033c	e59d2008	 ldr         r2, [sp, #8]
  00340	e59d3020	 ldr         r3, [sp, #0x20]
  00344	e0822003	 add         r2, r2, r3
  00348	e59d300c	 ldr         r3, [sp, #0xC]
  0034c	e1520003	 cmp         r2, r3
  00350	1a00000d	 bne         |$LN2@HeapMem_fr|

; 489  :         newHeader->next = nextHeader->next;

  00354	e59d300c	 ldr         r3, [sp, #0xC]
  00358	e5932000	 ldr         r2, [r3]
  0035c	e59d3008	 ldr         r3, [sp, #8]
  00360	e5832000	 str         r2, [r3]

; 490  :         newHeader->size += nextHeader->size;

  00364	e59d3008	 ldr         r3, [sp, #8]
  00368	e2832004	 add         r2, r3, #4
  0036c	e59d300c	 ldr         r3, [sp, #0xC]
  00370	e2833004	 add         r3, r3, #4
  00374	e5922000	 ldr         r2, [r2]
  00378	e5933000	 ldr         r3, [r3]
  0037c	e0822003	 add         r2, r2, r3
  00380	e59d3008	 ldr         r3, [sp, #8]
  00384	e2833004	 add         r3, r3, #4
  00388	e5832000	 str         r2, [r3]
  0038c		 |$LN2@HeapMem_fr|

; 491  :     }
; 492  : 
; 493  :     /*
; 494  :      *  Join with lower block. Make sure to check to see if not the
; 495  :      *  first block.
; 496  :      */
; 497  :     if ((curHeader != &heap_head[bi]) &&
; 498  :             (((unsigned long)curHeader + curHeader->size) ==
; 499  :                     (unsigned long)newHeader)) {

  0038c	e59d1018	 ldr         r1, [sp, #0x18]
  00390	e3a03008	 mov         r3, #8
  00394	e0020391	 mul         r2, r1, r3
  00398	e59f3070	 ldr         r3, [pc, #0x70]
  0039c	e0832002	 add         r2, r3, r2
  003a0	e59d3004	 ldr         r3, [sp, #4]
  003a4	e1530002	 cmp         r3, r2
  003a8	0a000015	 beq         |$LN1@HeapMem_fr|
  003ac	e59d3004	 ldr         r3, [sp, #4]
  003b0	e2833004	 add         r3, r3, #4
  003b4	e59d2004	 ldr         r2, [sp, #4]
  003b8	e5933000	 ldr         r3, [r3]
  003bc	e0822003	 add         r2, r2, r3
  003c0	e59d3008	 ldr         r3, [sp, #8]
  003c4	e1520003	 cmp         r2, r3
  003c8	1a00000d	 bne         |$LN1@HeapMem_fr|

; 500  :         curHeader->next = newHeader->next;

  003cc	e59d3008	 ldr         r3, [sp, #8]
  003d0	e5932000	 ldr         r2, [r3]
  003d4	e59d3004	 ldr         r3, [sp, #4]
  003d8	e5832000	 str         r2, [r3]

; 501  :         curHeader->size += newHeader->size;

  003dc	e59d3004	 ldr         r3, [sp, #4]
  003e0	e2832004	 add         r2, r3, #4
  003e4	e59d3008	 ldr         r3, [sp, #8]
  003e8	e2833004	 add         r3, r3, #4
  003ec	e5922000	 ldr         r2, [r2]
  003f0	e5933000	 ldr         r3, [r3]
  003f4	e0822003	 add         r2, r2, r3
  003f8	e59d3004	 ldr         r3, [sp, #4]
  003fc	e2833004	 add         r3, r3, #4
  00400	e5832000	 str         r2, [r3]
  00404		 |$LN1@HeapMem_fr|

; 502  :     }
; 503  : 
; 504  : /*
; 505  :  * See above comment on Gate_enterModule for an explanation of why we
; 506  :  * don't use the "gate".
; 507  :  */
; 508  : //    Gate_leaveModule(key);
; 509  : 
; 510  : }

  00404	e28dd010	 add         sp, sp, #0x10
  00408	e89d6000	 ldmia       sp, {sp, lr}
  0040c	e12fff1e	 bx          lr
  00410		 |$LN11@HeapMem_fr|
  00410		 |$LN12@HeapMem_fr|
  00410	00000000	 DCD         |heap_head|
  00414		 |$LN13@HeapMem_fr|
  00414	00000000	 DCD         |gdwPageSize|
  00418		 |$M41136|

			 ENDP  ; |HeapMem_free|

	EXPORT	|??_C@_1FM@JFOFNLID@?$AAC?$AAM?$AAE?$AAM?$AAK?$AA?5?$AAD?$AAe?$AAb?$AAu?$AAg?$AA?3?$AA?5?$AAS?$AAu?$AAc?$AAc?$AAe?$AAs?$AAs?$AAf?$AAu?$AAl?$AAl?$AAy?$AA?5?$AAi?$AAn?$AAi?$AAt?$AAi?$AAa@| [ DATA ] ; `string'
	EXPORT	|??_C@_1HM@JGDEPHGO@?$AAC?$AAM?$AAE?$AAM?$AAK?$AA?5?$AAD?$AAe?$AAb?$AAu?$AAg?$AA?3?$AA?5?$AAc?$AAm?$AAe?$AAm?$AA?5?$AAi?$AAn?$AAi?$AAt?$AAi?$AAa?$AAl?$AAi?$AAz?$AAe?$AAd?$AA?5?$AA?$CF?$AAd@| [ DATA ] ; `string'
	EXPORT	|??_C@_1KA@DANNKMFI@?$AAC?$AAM?$AAE?$AAM?$AAK?$AA?5?$AAD?$AAe?$AAb?$AAu?$AAg?$AA?3?$AA?5?$AAn?$AAo?$AA?5?$AAr?$AAe?$AAm?$AAa?$AAi?$AAn?$AAi?$AAn?$AAg?$AA?5?$AAm?$AAe?$AAm?$AAo?$AAr?$AAy@| [ DATA ] ; `string'
	EXPORT	|??_C@_1GM@EBCKMIOG@?$AAC?$AAM?$AAE?$AAM?$AAK?$AA?5?$AAD?$AAe?$AAb?$AAu?$AAg?$AA?3?$AA?5?$AAa?$AAl?$AAl?$AAo?$AAc?$AAa?$AAt?$AAe?$AAd?$AA?5?$AAh?$AAe?$AAa?$AAp?$AA?5?$AAb?$AAu?$AAf?$AAf@| [ DATA ] ; `string'
	EXPORT	|??_C@_1GA@EHIEFMCN@?$AAC?$AAM?$AAE?$AAM?$AAK?$AA?5?$AAE?$AAr?$AAr?$AAo?$AAr?$AA?3?$AA?5?$AAF?$AAa?$AAi?$AAl?$AAe?$AAd?$AA?5?$AAt?$AAo?$AA?5?$AAa?$AAl?$AAl?$AAo?$AAc?$AA?5?$AAh?$AAe?$AAa@| [ DATA ] ; `string'
	EXPORT	|??_C@_1IO@JOGLBBIA@?$AAC?$AAM?$AAE?$AAM?$AAK?$AA?5?$AAE?$AAr?$AAr?$AAo?$AAr?$AA?3?$AA?5?$AAF?$AAa?$AAi?$AAl?$AAe?$AAd?$AA?5?$AAt?$AAo?$AA?5?$AAa?$AAl?$AAl?$AAo?$AAc?$AA?5?$AAp?$AAo?$AAo@| [ DATA ] ; `string'
	EXPORT	|??_C@_1HK@PBGLKGFP@?$AAE?$AAR?$AAR?$AAO?$AAR?$AA?3?$AA?5?$AAC?$AAM?$AAE?$AAM?$AAK?$AA?5?$AAi?$AAn?$AAi?$AAt?$AA?$CI?$AA?$CJ?$AA?3?$AA?5?$AAS?$AAt?$AAr?$AAi?$AAn?$AAg?$AAC?$AAc?$AAh?$AAP?$AAr@| [ DATA ] ; `string'
	EXPORT	|??_C@_1BM@GDPAOOKP@?$AAP?$AAo?$AAo?$AAl?$AAS?$AAi?$AAz?$AAe?$AA_?$AAP?$AAo?$AAo?$AAl?$AA?$AA@| [ DATA ] ; `string'
	EXPORT	|??_C@_1HO@CDBIOCIL@?$AAE?$AAR?$AAR?$AAO?$AAR?$AA?3?$AA?5?$AAC?$AAM?$AAE?$AAM?$AAK?$AA?5?$AAi?$AAn?$AAi?$AAt?$AA?$CI?$AA?$CJ?$AA?3?$AA?5?$AAS?$AAt?$AAr?$AAi?$AAn?$AAg?$AAC?$AAc?$AAh?$AAP?$AAr@| [ DATA ] ; `string'
	EXPORT	|??_C@_1BE@DMMEGEFO@?$AA?$CF?$AAs?$AA?$CF?$AAd?$AA_?$AA?$CF?$AAs?$AA?$CF?$AAd?$AA?$AA@| [ DATA ] ; `string'
	EXPORT	|??_C@_1M@PICFELOA@?$AAB?$AAl?$AAo?$AAc?$AAk?$AA?$AA@| [ DATA ] ; `string'
	EXPORT	|??_C@_1CA@JCJOGNFE@?$AAN?$AAu?$AAm?$AAB?$AAu?$AAf?$AAf?$AAe?$AAr?$AAs?$AA_?$AAP?$AAo?$AAo?$AAl?$AA?$AA@| [ DATA ] ; `string'
	EXPORT	|??_C@_1IM@DKGFCODN@?$AAC?$AAM?$AAE?$AAM?$AAK?$AA?5?$AAD?$AAe?$AAb?$AAu?$AAg?$AA?3?$AA?5?$AAA?$AAl?$AAl?$AAo?$AAc?$AAa?$AAt?$AAe?$AA?5?$AAc?$AAo?$AAn?$AAt?$AAi?$AAg?$AAu?$AAo?$AAu?$AAs@| [ DATA ] ; `string'
	EXPORT	|??_C@_1JI@POFHIEIK@?$AAC?$AAM?$AAE?$AAM?$AAK?$AA?5?$AAE?$AAr?$AAr?$AAo?$AAr?$AA?3?$AA?5?$AAF?$AAa?$AAi?$AAl?$AAe?$AAd?$AA?5?$AAt?$AAo?$AA?5?$AAa?$AAl?$AAl?$AAo?$AAc?$AAa?$AAt?$AAe?$AA?5@| [ DATA ] ; `string'
	EXPORT	|??_C@_1GO@KJFDBIDO@?$AAC?$AAM?$AAE?$AAM?$AAK?$AA?5?$AAE?$AAr?$AAr?$AAo?$AAr?$AA?3?$AA?5?$AAN?$AAe?$AAg?$AAa?$AAt?$AAi?$AAv?$AAe?$AA?5?$AAl?$AAe?$AAn?$AAg?$AAt?$AAh?$AA?5?$AAo?$AAf?$AA?5@| [ DATA ] ; `string'
	EXPORT	|??_C@_1BI@DJKHEDFH@?$AAC?$AAM?$AAE?$AAM?$AAK?$AA_?$AAM?$AAU?$AAT?$AAE?$AAX?$AA?$AA@| [ DATA ] ; `string'
	EXPORT	|??_C@_1JI@FJFCHAIK@?$AAC?$AAM?$AAE?$AAM?$AAK?$AA?5?$AAE?$AAr?$AAr?$AAo?$AAr?$AA?3?$AA?5?$AAT?$AAo?$AAo?$AA?5?$AAm?$AAa?$AAn?$AAy?$AA?5?$AAp?$AAo?$AAo?$AAl?$AAs?$AA?5?$AAs?$AAp?$AAe?$AAc@| [ DATA ] ; `string'
	EXPORT	|??_C@_1JI@CGJLOLBJ@?$AAC?$AAM?$AAE?$AAM?$AAK?$AA?5?$AAE?$AAr?$AAr?$AAo?$AAr?$AA?3?$AA?5?$AAT?$AAo?$AAo?$AA?5?$AAm?$AAa?$AAn?$AAy?$AA?5?$AAp?$AAo?$AAo?$AAl?$AAs?$AA?5?$AAs?$AAp?$AAe?$AAc@| [ DATA ] ; `string'
	EXPORT	|??_C@_1HG@INLBPEDM@?$AAC?$AAM?$AAE?$AAM?$AAK?$AA?5?$AAD?$AAe?$AAb?$AAu?$AAg?$AA?3?$AA?5?$AAC?$AAM?$AAE?$AAM?$AAK?$AA?3?$AA?5?$AAW?$AAa?$AAr?$AAn?$AAi?$AAn?$AAg?$AA?3?$AA?5?$AAC?$AAa?$AAn@| [ DATA ] ; `string'
	EXPORT	|??_C@_1DC@KFACKDPH@?$AAU?$AAs?$AAe?$AAH?$AAe?$AAa?$AAp?$AAI?$AAf?$AAP?$AAo?$AAo?$AAl?$AAU?$AAn?$AAa?$AAv?$AAa?$AAi?$AAl?$AAa?$AAb?$AAl?$AAe?$AA?$AA@| [ DATA ] ; `string'
	EXPORT	|??_C@_1BE@NOPHIHDE@?$AAN?$AAu?$AAm?$AAP?$AAo?$AAo?$AAl?$AAs?$AA1?$AA?$AA@| [ DATA ] ; `string'
	EXPORT	|??_C@_1BE@GGELOAFB@?$AAN?$AAu?$AAm?$AAP?$AAo?$AAo?$AAl?$AAs?$AA0?$AA?$AA@| [ DATA ] ; `string'
	EXPORT	|??_C@_1BK@EEHBOAGL@?$AAP?$AAh?$AAy?$AAs?$AAi?$AAc?$AAa?$AAl?$AAE?$AAn?$AAd?$AA1?$AA?$AA@| [ DATA ] ; `string'
	EXPORT	|??_C@_1BK@PMMNIHAO@?$AAP?$AAh?$AAy?$AAs?$AAi?$AAc?$AAa?$AAl?$AAE?$AAn?$AAd?$AA0?$AA?$AA@| [ DATA ] ; `string'
	EXPORT	|??_C@_1BO@ODBAMBIC@?$AAP?$AAh?$AAy?$AAs?$AAi?$AAc?$AAa?$AAl?$AAS?$AAt?$AAa?$AAr?$AAt?$AA1?$AA?$AA@| [ DATA ] ; `string'
	EXPORT	|??_C@_1GG@BKOAGPDI@?$AAC?$AAM?$AAE?$AAM?$AAK?$AA?5?$AAE?$AAr?$AAr?$AAo?$AAr?$AA?3?$AA?5?$AAC?$AAM?$AAE?$AAM?$AAK?$AA?3?$AA?5?$AAc?$AAa?$AAn?$AAn?$AAo?$AAt?$AA?5?$AAo?$AAp?$AAe?$AAn?$AA?5@| [ DATA ] ; `string'
	EXPORT	|??_C@_1BO@FLKMKGOH@?$AAP?$AAh?$AAy?$AAs?$AAi?$AAc?$AAa?$AAl?$AAS?$AAt?$AAa?$AAr?$AAt?$AA0?$AA?$AA@| [ DATA ] ; `string'
	EXPORT	|??_C@_1FO@GGDGBKHC@?$AAC?$AAM?$AAE?$AAM?$AAK?$AA?5?$AAE?$AAr?$AAr?$AAo?$AAr?$AA?3?$AA?5?$AAC?$AAM?$AAE?$AAM?$AAK?$AA?3?$AA?5?$AAc?$AAa?$AAn?$AAn?$AAo?$AAt?$AA?5?$AAo?$AAp?$AAe?$AAn?$AA?5@| [ DATA ] ; `string'
	EXPORT	|??_C@_1CM@BOKDKMGI@?$AAD?$AAr?$AAi?$AAv?$AAe?$AAr?$AAs?$AA?2?$AAB?$AAu?$AAi?$AAl?$AAt?$AAI?$AAn?$AA?2?$AAC?$AAM?$AAE?$AAM?$AAK?$AA?$AA@| [ DATA ] ; `string'
	EXPORT	|__$ArrayPad$| [ DATA ]
	EXPORT	|CMK_Init|
	IMPORT	|FreePhysMem|
	IMPORT	|MmUnmapIoSpace|
	IMPORT	|RegCloseKey|
	IMPORT	|StringCchPrintfW|
	IMPORT	|memset|
	IMPORT	|AllocPhysMem|
	IMPORT	|MmMapIoSpace|
	IMPORT	|GetSystemInfo|
	IMPORT	|CreateMutexW|
	IMPORT	|RegQueryValueExW|
	IMPORT	|NKDbgPrintfW|
	IMPORT	|RegOpenKeyExW|
	IMPORT	|__security_cookie|
	IMPORT	|__GSHandlerCheck|
	IMPORT	|__security_check_cookie|

  0049c			 AREA	 |.bss|, NOINIT
|mappedBufferList| % 0x8

  00010			 AREA	 |.pdata|, PDATA
|$T41182| DCD	|$LN44@CMK_Init|
	DCD	0xc003b204

  00000			 AREA	 |.rdata|, DATA, READONLY
|??_C@_1FM@JFOFNLID@?$AAC?$AAM?$AAE?$AAM?$AAK?$AA?5?$AAD?$AAe?$AAb?$AAu?$AAg?$AA?3?$AA?5?$AAS?$AAu?$AAc?$AAc?$AAe?$AAs?$AAs?$AAf?$AAu?$AAl?$AAl?$AAy?$AA?5?$AAi?$AAn?$AAi?$AAt?$AAi?$AAa@| DCB "C"
	DCB	0x0, "M", 0x0, "E", 0x0, "M", 0x0, "K", 0x0, " ", 0x0, "D"
	DCB	0x0, "e", 0x0, "b", 0x0, "u", 0x0, "g", 0x0, ":", 0x0, " "
	DCB	0x0, "S", 0x0, "u", 0x0, "c", 0x0, "c", 0x0, "e", 0x0, "s"
	DCB	0x0, "s", 0x0, "f", 0x0, "u", 0x0, "l", 0x0, "l", 0x0, "y"
	DCB	0x0, " ", 0x0, "i", 0x0, "n", 0x0, "i", 0x0, "t", 0x0, "i"
	DCB	0x0, "a", 0x0, "l", 0x0, "i", 0x0, "z", 0x0, "e", 0x0, "d"
	DCB	0x0, " ", 0x0, "m", 0x0, "o", 0x0, "d", 0x0, "u", 0x0, "l"
	DCB	0x0, "e", 0x0, 0xa, 0x0, 0x0, 0x0	; `string'

  00000			 AREA	 |.rdata|, DATA, READONLY
|??_C@_1HM@JGDEPHGO@?$AAC?$AAM?$AAE?$AAM?$AAK?$AA?5?$AAD?$AAe?$AAb?$AAu?$AAg?$AA?3?$AA?5?$AAc?$AAm?$AAe?$AAm?$AA?5?$AAi?$AAn?$AAi?$AAt?$AAi?$AAa?$AAl?$AAi?$AAz?$AAe?$AAd?$AA?5?$AA?$CF?$AAd@| DCB "C"
	DCB	0x0, "M", 0x0, "E", 0x0, "M", 0x0, "K", 0x0, " ", 0x0, "D"
	DCB	0x0, "e", 0x0, "b", 0x0, "u", 0x0, "g", 0x0, ":", 0x0, " "
	DCB	0x0, "c", 0x0, "m", 0x0, "e", 0x0, "m", 0x0, " ", 0x0, "i"
	DCB	0x0, "n", 0x0, "i", 0x0, "t", 0x0, "i", 0x0, "a", 0x0, "l"
	DCB	0x0, "i", 0x0, "z", 0x0, "e", 0x0, "d", 0x0, " ", 0x0, "%"
	DCB	0x0, "d", 0x0, " ", 0x0, "p", 0x0, "o", 0x0, "o", 0x0, "l"
	DCB	0x0, "s", 0x0, " ", 0x0, "b", 0x0, "e", 0x0, "t", 0x0, "w"
	DCB	0x0, "e", 0x0, "e", 0x0, "n", 0x0, " ", 0x0, "%", 0x0, "#"
	DCB	0x0, "l", 0x0, "x", 0x0, " ", 0x0, "a", 0x0, "n", 0x0, "d"
	DCB	0x0, " ", 0x0, "%", 0x0, "#", 0x0, "l", 0x0, "x", 0x0, 0xa
	DCB	0x0, 0x0, 0x0				; `string'

  00000			 AREA	 |.rdata|, DATA, READONLY
|??_C@_1KA@DANNKMFI@?$AAC?$AAM?$AAE?$AAM?$AAK?$AA?5?$AAD?$AAe?$AAb?$AAu?$AAg?$AA?3?$AA?5?$AAn?$AAo?$AA?5?$AAr?$AAe?$AAm?$AAa?$AAi?$AAn?$AAi?$AAn?$AAg?$AA?5?$AAm?$AAe?$AAm?$AAo?$AAr?$AAy@| DCB "C"
	DCB	0x0, "M", 0x0, "E", 0x0, "M", 0x0, "K", 0x0, " ", 0x0, "D"
	DCB	0x0, "e", 0x0, "b", 0x0, "u", 0x0, "g", 0x0, ":", 0x0, " "
	DCB	0x0, "n", 0x0, "o", 0x0, " ", 0x0, "r", 0x0, "e", 0x0, "m"
	DCB	0x0, "a", 0x0, "i", 0x0, "n", 0x0, "i", 0x0, "n", 0x0, "g"
	DCB	0x0, " ", 0x0, "m", 0x0, "e", 0x0, "m", 0x0, "o", 0x0, "r"
	DCB	0x0, "y", 0x0, " ", 0x0, "f", 0x0, "o", 0x0, "r", 0x0, " "
	DCB	0x0, "h", 0x0, "e", 0x0, "a", 0x0, "p", 0x0, ",", 0x0, " "
	DCB	0x0, "n", 0x0, "o", 0x0, " ", 0x0, "h", 0x0, "e", 0x0, "a"
	DCB	0x0, "p", 0x0, " ", 0x0, "c", 0x0, "r", 0x0, "e", 0x0, "a"
	DCB	0x0, "t", 0x0, "e", 0x0, "d", 0x0, " ", 0x0, "f", 0x0, "o"
	DCB	0x0, "r", 0x0, " ", 0x0, "m", 0x0, "e", 0x0, "m", 0x0, "o"
	DCB	0x0, "r", 0x0, "y", 0x0, " ", 0x0, "b", 0x0, "l", 0x0, "o"
	DCB	0x0, "c", 0x0, "k", 0x0, " ", 0x0, "%", 0x0, "d", 0x0, 0xa
	DCB	0x0, 0x0, 0x0				; `string'

  00000			 AREA	 |.rdata|, DATA, READONLY
|??_C@_1GM@EBCKMIOG@?$AAC?$AAM?$AAE?$AAM?$AAK?$AA?5?$AAD?$AAe?$AAb?$AAu?$AAg?$AA?3?$AA?5?$AAa?$AAl?$AAl?$AAo?$AAc?$AAa?$AAt?$AAe?$AAd?$AA?5?$AAh?$AAe?$AAa?$AAp?$AA?5?$AAb?$AAu?$AAf?$AAf@| DCB "C"
	DCB	0x0, "M", 0x0, "E", 0x0, "M", 0x0, "K", 0x0, " ", 0x0, "D"
	DCB	0x0, "e", 0x0, "b", 0x0, "u", 0x0, "g", 0x0, ":", 0x0, " "
	DCB	0x0, "a", 0x0, "l", 0x0, "l", 0x0, "o", 0x0, "c", 0x0, "a"
	DCB	0x0, "t", 0x0, "e", 0x0, "d", 0x0, " ", 0x0, "h", 0x0, "e"
	DCB	0x0, "a", 0x0, "p", 0x0, " ", 0x0, "b", 0x0, "u", 0x0, "f"
	DCB	0x0, "f", 0x0, "e", 0x0, "r", 0x0, " ", 0x0, "%", 0x0, "#"
	DCB	0x0, "l", 0x0, "x", 0x0, " ", 0x0, "o", 0x0, "f", 0x0, " "
	DCB	0x0, "s", 0x0, "i", 0x0, "z", 0x0, "e", 0x0, " ", 0x0, "%"
	DCB	0x0, "#", 0x0, "l", 0x0, "x", 0x0, 0xa, 0x0, 0x0, 0x0 ; `string'

  00000			 AREA	 |.rdata|, DATA, READONLY
|??_C@_1GA@EHIEFMCN@?$AAC?$AAM?$AAE?$AAM?$AAK?$AA?5?$AAE?$AAr?$AAr?$AAo?$AAr?$AA?3?$AA?5?$AAF?$AAa?$AAi?$AAl?$AAe?$AAd?$AA?5?$AAt?$AAo?$AA?5?$AAa?$AAl?$AAl?$AAo?$AAc?$AA?5?$AAh?$AAe?$AAa@| DCB "C"
	DCB	0x0, "M", 0x0, "E", 0x0, "M", 0x0, "K", 0x0, " ", 0x0, "E"
	DCB	0x0, "r", 0x0, "r", 0x0, "o", 0x0, "r", 0x0, ":", 0x0, " "
	DCB	0x0, "F", 0x0, "a", 0x0, "i", 0x0, "l", 0x0, "e", 0x0, "d"
	DCB	0x0, " ", 0x0, "t", 0x0, "o", 0x0, " ", 0x0, "a", 0x0, "l"
	DCB	0x0, "l", 0x0, "o", 0x0, "c", 0x0, " ", 0x0, "h", 0x0, "e"
	DCB	0x0, "a", 0x0, "p", 0x0, " ", 0x0, "o", 0x0, "f", 0x0, " "
	DCB	0x0, "s", 0x0, "i", 0x0, "z", 0x0, "e", 0x0, " ", 0x0, "%"
	DCB	0x0, "#", 0x0, "l", 0x0, "x", 0x0, 0xa, 0x0, 0x0, 0x0 ; `string'

  00000			 AREA	 |.rdata|, DATA, READONLY
|??_C@_1IO@JOGLBBIA@?$AAC?$AAM?$AAE?$AAM?$AAK?$AA?5?$AAE?$AAr?$AAr?$AAo?$AAr?$AA?3?$AA?5?$AAF?$AAa?$AAi?$AAl?$AAe?$AAd?$AA?5?$AAt?$AAo?$AA?5?$AAa?$AAl?$AAl?$AAo?$AAc?$AA?5?$AAp?$AAo?$AAo@| DCB "C"
	DCB	0x0, "M", 0x0, "E", 0x0, "M", 0x0, "K", 0x0, " ", 0x0, "E"
	DCB	0x0, "r", 0x0, "r", 0x0, "o", 0x0, "r", 0x0, ":", 0x0, " "
	DCB	0x0, "F", 0x0, "a", 0x0, "i", 0x0, "l", 0x0, "e", 0x0, "d"
	DCB	0x0, " ", 0x0, "t", 0x0, "o", 0x0, " ", 0x0, "a", 0x0, "l"
	DCB	0x0, "l", 0x0, "o", 0x0, "c", 0x0, " ", 0x0, "p", 0x0, "o"
	DCB	0x0, "o", 0x0, "l", 0x0, " ", 0x0, "o", 0x0, "f", 0x0, " "
	DCB	0x0, "s", 0x0, "i", 0x0, "z", 0x0, "e", 0x0, " ", 0x0, "%"
	DCB	0x0, "d", 0x0, " ", 0x0, "a", 0x0, "n", 0x0, "d", 0x0, " "
	DCB	0x0, "n", 0x0, "u", 0x0, "m", 0x0, "b", 0x0, "e", 0x0, "r"
	DCB	0x0, " ", 0x0, "o", 0x0, "f", 0x0, " ", 0x0, "b", 0x0, "u"
	DCB	0x0, "f", 0x0, "f", 0x0, "e", 0x0, "r", 0x0, "s", 0x0, " "
	DCB	0x0, "%", 0x0, "d", 0x0, 0xa, 0x0, 0x0, 0x0 ; `string'

  00000			 AREA	 |.rdata|, DATA, READONLY
|??_C@_1HK@PBGLKGFP@?$AAE?$AAR?$AAR?$AAO?$AAR?$AA?3?$AA?5?$AAC?$AAM?$AAE?$AAM?$AAK?$AA?5?$AAi?$AAn?$AAi?$AAt?$AA?$CI?$AA?$CJ?$AA?3?$AA?5?$AAS?$AAt?$AAr?$AAi?$AAn?$AAg?$AAC?$AAc?$AAh?$AAP?$AAr@| DCB "E"
	DCB	0x0, "R", 0x0, "R", 0x0, "O", 0x0, "R", 0x0, ":", 0x0, " "
	DCB	0x0, "C", 0x0, "M", 0x0, "E", 0x0, "M", 0x0, "K", 0x0, " "
	DCB	0x0, "i", 0x0, "n", 0x0, "i", 0x0, "t", 0x0, "(", 0x0, ")"
	DCB	0x0, ":", 0x0, " ", 0x0, "S", 0x0, "t", 0x0, "r", 0x0, "i"
	DCB	0x0, "n", 0x0, "g", 0x0, "C", 0x0, "c", 0x0, "h", 0x0, "P"
	DCB	0x0, "r", 0x0, "i", 0x0, "n", 0x0, "t", 0x0, "f", 0x0, " "
	DCB	0x0, "(", 0x0, "P", 0x0, "O", 0x0, "O", 0x0, "L", 0x0, "_"
	DCB	0x0, "S", 0x0, "I", 0x0, "Z", 0x0, "E", 0x0, ")", 0x0, " "
	DCB	0x0, "f", 0x0, "a", 0x0, "i", 0x0, "l", 0x0, "e", 0x0, "d"
	DCB	0x0, "!", 0x0, "!", 0x0, "!", 0x0, 0xd, 0x0, 0xa, 0x0, 0x0
	DCB	0x0					; `string'

  00000			 AREA	 |.rdata|, DATA, READONLY
|??_C@_1BM@GDPAOOKP@?$AAP?$AAo?$AAo?$AAl?$AAS?$AAi?$AAz?$AAe?$AA_?$AAP?$AAo?$AAo?$AAl?$AA?$AA@| DCB "P"
	DCB	0x0, "o", 0x0, "o", 0x0, "l", 0x0, "S", 0x0, "i", 0x0, "z"
	DCB	0x0, "e", 0x0, "_", 0x0, "P", 0x0, "o", 0x0, "o", 0x0, "l"
	DCB	0x0, 0x0, 0x0				; `string'

  00000			 AREA	 |.rdata|, DATA, READONLY
|??_C@_1HO@CDBIOCIL@?$AAE?$AAR?$AAR?$AAO?$AAR?$AA?3?$AA?5?$AAC?$AAM?$AAE?$AAM?$AAK?$AA?5?$AAi?$AAn?$AAi?$AAt?$AA?$CI?$AA?$CJ?$AA?3?$AA?5?$AAS?$AAt?$AAr?$AAi?$AAn?$AAg?$AAC?$AAc?$AAh?$AAP?$AAr@| DCB "E"
	DCB	0x0, "R", 0x0, "R", 0x0, "O", 0x0, "R", 0x0, ":", 0x0, " "
	DCB	0x0, "C", 0x0, "M", 0x0, "E", 0x0, "M", 0x0, "K", 0x0, " "
	DCB	0x0, "i", 0x0, "n", 0x0, "i", 0x0, "t", 0x0, "(", 0x0, ")"
	DCB	0x0, ":", 0x0, " ", 0x0, "S", 0x0, "t", 0x0, "r", 0x0, "i"
	DCB	0x0, "n", 0x0, "g", 0x0, "C", 0x0, "c", 0x0, "h", 0x0, "P"
	DCB	0x0, "r", 0x0, "i", 0x0, "n", 0x0, "t", 0x0, "f", 0x0, " "
	DCB	0x0, "(", 0x0, "N", 0x0, "U", 0x0, "M", 0x0, "_", 0x0, "B"
	DCB	0x0, "U", 0x0, "F", 0x0, "F", 0x0, "E", 0x0, "R", 0x0, "S"
	DCB	0x0, ")", 0x0, " ", 0x0, "f", 0x0, "a", 0x0, "i", 0x0, "l"
	DCB	0x0, "e", 0x0, "d", 0x0, "!", 0x0, "!", 0x0, "!", 0x0, 0xd
	DCB	0x0, 0xa, 0x0, 0x0, 0x0			; `string'

  00000			 AREA	 |.rdata|, DATA, READONLY
|??_C@_1BE@DMMEGEFO@?$AA?$CF?$AAs?$AA?$CF?$AAd?$AA_?$AA?$CF?$AAs?$AA?$CF?$AAd?$AA?$AA@| DCB "%"
	DCB	0x0, "s", 0x0, "%", 0x0, "d", 0x0, "_", 0x0, "%", 0x0, "s"
	DCB	0x0, "%", 0x0, "d", 0x0, 0x0, 0x0	; `string'

  00000			 AREA	 |.rdata|, DATA, READONLY
|??_C@_1M@PICFELOA@?$AAB?$AAl?$AAo?$AAc?$AAk?$AA?$AA@| DCB "B", 0x0, "l", 0x0
	DCB	"o", 0x0, "c", 0x0, "k", 0x0, 0x0, 0x0	; `string'

  00000			 AREA	 |.rdata|, DATA, READONLY
|??_C@_1CA@JCJOGNFE@?$AAN?$AAu?$AAm?$AAB?$AAu?$AAf?$AAf?$AAe?$AAr?$AAs?$AA_?$AAP?$AAo?$AAo?$AAl?$AA?$AA@| DCB "N"
	DCB	0x0, "u", 0x0, "m", 0x0, "B", 0x0, "u", 0x0, "f", 0x0, "f"
	DCB	0x0, "e", 0x0, "r", 0x0, "s", 0x0, "_", 0x0, "P", 0x0, "o"
	DCB	0x0, "o", 0x0, "l", 0x0, 0x0, 0x0	; `string'

  00000			 AREA	 |.rdata|, DATA, READONLY
|??_C@_1IM@DKGFCODN@?$AAC?$AAM?$AAE?$AAM?$AAK?$AA?5?$AAD?$AAe?$AAb?$AAu?$AAg?$AA?3?$AA?5?$AAA?$AAl?$AAl?$AAo?$AAc?$AAa?$AAt?$AAe?$AA?5?$AAc?$AAo?$AAn?$AAt?$AAi?$AAg?$AAu?$AAo?$AAu?$AAs@| DCB "C"
	DCB	0x0, "M", 0x0, "E", 0x0, "M", 0x0, "K", 0x0, " ", 0x0, "D"
	DCB	0x0, "e", 0x0, "b", 0x0, "u", 0x0, "g", 0x0, ":", 0x0, " "
	DCB	0x0, "A", 0x0, "l", 0x0, "l", 0x0, "o", 0x0, "c", 0x0, "a"
	DCB	0x0, "t", 0x0, "e", 0x0, " ", 0x0, "c", 0x0, "o", 0x0, "n"
	DCB	0x0, "t", 0x0, "i", 0x0, "g", 0x0, "u", 0x0, "o", 0x0, "u"
	DCB	0x0, "s", 0x0, " ", 0x0, "m", 0x0, "e", 0x0, "m", 0x0, "o"
	DCB	0x0, "r", 0x0, "y", 0x0, " ", 0x0, "(", 0x0, "n", 0x0, "o"
	DCB	0x0, "n", 0x0, "-", 0x0, "c", 0x0, "a", 0x0, "c", 0x0, "h"
	DCB	0x0, "e", 0x0, "d", 0x0, ")", 0x0, "(", 0x0, "%", 0x0, "#"
	DCB	0x0, "l", 0x0, "x", 0x0, ",", 0x0, " ", 0x0, "%", 0x0, "l"
	DCB	0x0, "d", 0x0, ")", 0x0, "=", 0x0, "%", 0x0, "#", 0x0, "l"
	DCB	0x0, "x", 0x0, 0xa, 0x0, 0x0, 0x0	; `string'

  00000			 AREA	 |.rdata|, DATA, READONLY
|??_C@_1JI@POFHIEIK@?$AAC?$AAM?$AAE?$AAM?$AAK?$AA?5?$AAE?$AAr?$AAr?$AAo?$AAr?$AA?3?$AA?5?$AAF?$AAa?$AAi?$AAl?$AAe?$AAd?$AA?5?$AAt?$AAo?$AA?5?$AAa?$AAl?$AAl?$AAo?$AAc?$AAa?$AAt?$AAe?$AA?5@| DCB "C"
	DCB	0x0, "M", 0x0, "E", 0x0, "M", 0x0, "K", 0x0, " ", 0x0, "E"
	DCB	0x0, "r", 0x0, "r", 0x0, "o", 0x0, "r", 0x0, ":", 0x0, " "
	DCB	0x0, "F", 0x0, "a", 0x0, "i", 0x0, "l", 0x0, "e", 0x0, "d"
	DCB	0x0, " ", 0x0, "t", 0x0, "o", 0x0, " ", 0x0, "a", 0x0, "l"
	DCB	0x0, "l", 0x0, "o", 0x0, "c", 0x0, "a", 0x0, "t", 0x0, "e"
	DCB	0x0, " ", 0x0, "c", 0x0, "o", 0x0, "n", 0x0, "t", 0x0, "i"
	DCB	0x0, "g", 0x0, "u", 0x0, "o", 0x0, "u", 0x0, "s", 0x0, " "
	DCB	0x0, "m", 0x0, "e", 0x0, "m", 0x0, "o", 0x0, "r", 0x0, "y"
	DCB	0x0, " ", 0x0, "(", 0x0, "n", 0x0, "o", 0x0, "n", 0x0, "-"
	DCB	0x0, "c", 0x0, "a", 0x0, "c", 0x0, "h", 0x0, "e", 0x0, "d"
	DCB	0x0, ")", 0x0, " ", 0x0, "(", 0x0, "%", 0x0, "#", 0x0, "l"
	DCB	0x0, "x", 0x0, ",", 0x0, " ", 0x0, "%", 0x0, "l", 0x0, "d"
	DCB	0x0, ")", 0x0, 0xa, 0x0, 0x0, 0x0	; `string'

  00000			 AREA	 |.rdata|, DATA, READONLY
|??_C@_1GO@KJFDBIDO@?$AAC?$AAM?$AAE?$AAM?$AAK?$AA?5?$AAE?$AAr?$AAr?$AAo?$AAr?$AA?3?$AA?5?$AAN?$AAe?$AAg?$AAa?$AAt?$AAi?$AAv?$AAe?$AA?5?$AAl?$AAe?$AAn?$AAg?$AAt?$AAh?$AA?5?$AAo?$AAf?$AA?5@| DCB "C"
	DCB	0x0, "M", 0x0, "E", 0x0, "M", 0x0, "K", 0x0, " ", 0x0, "E"
	DCB	0x0, "r", 0x0, "r", 0x0, "o", 0x0, "r", 0x0, ":", 0x0, " "
	DCB	0x0, "N", 0x0, "e", 0x0, "g", 0x0, "a", 0x0, "t", 0x0, "i"
	DCB	0x0, "v", 0x0, "e", 0x0, " ", 0x0, "l", 0x0, "e", 0x0, "n"
	DCB	0x0, "g", 0x0, "t", 0x0, "h", 0x0, " ", 0x0, "o", 0x0, "f"
	DCB	0x0, " ", 0x0, "p", 0x0, "h", 0x0, "y", 0x0, "s", 0x0, "i"
	DCB	0x0, "c", 0x0, "a", 0x0, "l", 0x0, " ", 0x0, "m", 0x0, "e"
	DCB	0x0, "m", 0x0, "o", 0x0, "r", 0x0, "y", 0x0, " ", 0x0, "("
	DCB	0x0, "%", 0x0, "l", 0x0, "d", 0x0, ")", 0x0, 0xa, 0x0, 0x0
	DCB	0x0					; `string'

  00000			 AREA	 |.rdata|, DATA, READONLY
|??_C@_1BI@DJKHEDFH@?$AAC?$AAM?$AAE?$AAM?$AAK?$AA_?$AAM?$AAU?$AAT?$AAE?$AAX?$AA?$AA@| DCB "C"
	DCB	0x0, "M", 0x0, "E", 0x0, "M", 0x0, "K", 0x0, "_", 0x0, "M"
	DCB	0x0, "U", 0x0, "T", 0x0, "E", 0x0, "X", 0x0, 0x0, 0x0 ; `string'

  00000			 AREA	 |.rdata|, DATA, READONLY
|??_C@_1JI@FJFCHAIK@?$AAC?$AAM?$AAE?$AAM?$AAK?$AA?5?$AAE?$AAr?$AAr?$AAo?$AAr?$AA?3?$AA?5?$AAT?$AAo?$AAo?$AA?5?$AAm?$AAa?$AAn?$AAy?$AA?5?$AAp?$AAo?$AAo?$AAl?$AAs?$AA?5?$AAs?$AAp?$AAe?$AAc@| DCB "C"
	DCB	0x0, "M", 0x0, "E", 0x0, "M", 0x0, "K", 0x0, " ", 0x0, "E"
	DCB	0x0, "r", 0x0, "r", 0x0, "o", 0x0, "r", 0x0, ":", 0x0, " "
	DCB	0x0, "T", 0x0, "o", 0x0, "o", 0x0, " ", 0x0, "m", 0x0, "a"
	DCB	0x0, "n", 0x0, "y", 0x0, " ", 0x0, "p", 0x0, "o", 0x0, "o"
	DCB	0x0, "l", 0x0, "s", 0x0, " ", 0x0, "s", 0x0, "p", 0x0, "e"
	DCB	0x0, "c", 0x0, "i", 0x0, "f", 0x0, "i", 0x0, "e", 0x0, "d"
	DCB	0x0, " ", 0x0, "(", 0x0, "%", 0x0, "d", 0x0, ")", 0x0, " "
	DCB	0x0, "f", 0x0, "o", 0x0, "r", 0x0, " ", 0x0, "B", 0x0, "l"
	DCB	0x0, "o", 0x0, "c", 0x0, "k", 0x0, " ", 0x0, "1", 0x0, ","
	DCB	0x0, " ", 0x0, "o", 0x0, "n", 0x0, "l", 0x0, "y", 0x0, " "
	DCB	0x0, "%", 0x0, "d", 0x0, " ", 0x0, "s", 0x0, "u", 0x0, "p"
	DCB	0x0, "p", 0x0, "o", 0x0, "r", 0x0, "t", 0x0, "e", 0x0, "d"
	DCB	0x0, ".", 0x0, 0xa, 0x0, 0x0, 0x0	; `string'

  00000			 AREA	 |.rdata|, DATA, READONLY
|??_C@_1JI@CGJLOLBJ@?$AAC?$AAM?$AAE?$AAM?$AAK?$AA?5?$AAE?$AAr?$AAr?$AAo?$AAr?$AA?3?$AA?5?$AAT?$AAo?$AAo?$AA?5?$AAm?$AAa?$AAn?$AAy?$AA?5?$AAp?$AAo?$AAo?$AAl?$AAs?$AA?5?$AAs?$AAp?$AAe?$AAc@| DCB "C"
	DCB	0x0, "M", 0x0, "E", 0x0, "M", 0x0, "K", 0x0, " ", 0x0, "E"
	DCB	0x0, "r", 0x0, "r", 0x0, "o", 0x0, "r", 0x0, ":", 0x0, " "
	DCB	0x0, "T", 0x0, "o", 0x0, "o", 0x0, " ", 0x0, "m", 0x0, "a"
	DCB	0x0, "n", 0x0, "y", 0x0, " ", 0x0, "p", 0x0, "o", 0x0, "o"
	DCB	0x0, "l", 0x0, "s", 0x0, " ", 0x0, "s", 0x0, "p", 0x0, "e"
	DCB	0x0, "c", 0x0, "i", 0x0, "f", 0x0, "i", 0x0, "e", 0x0, "d"
	DCB	0x0, " ", 0x0, "(", 0x0, "%", 0x0, "d", 0x0, ")", 0x0, " "
	DCB	0x0, "f", 0x0, "o", 0x0, "r", 0x0, " ", 0x0, "B", 0x0, "l"
	DCB	0x0, "o", 0x0, "c", 0x0, "k", 0x0, " ", 0x0, "0", 0x0, ","
	DCB	0x0, " ", 0x0, "o", 0x0, "n", 0x0, "l", 0x0, "y", 0x0, " "
	DCB	0x0, "%", 0x0, "d", 0x0, " ", 0x0, "s", 0x0, "u", 0x0, "p"
	DCB	0x0, "p", 0x0, "o", 0x0, "r", 0x0, "t", 0x0, "e", 0x0, "d"
	DCB	0x0, ".", 0x0, 0xa, 0x0, 0x0, 0x0	; `string'

  00000			 AREA	 |.rdata|, DATA, READONLY
|??_C@_1HG@INLBPEDM@?$AAC?$AAM?$AAE?$AAM?$AAK?$AA?5?$AAD?$AAe?$AAb?$AAu?$AAg?$AA?3?$AA?5?$AAC?$AAM?$AAE?$AAM?$AAK?$AA?3?$AA?5?$AAW?$AAa?$AAr?$AAn?$AAi?$AAn?$AAg?$AA?3?$AA?5?$AAC?$AAa?$AAn@| DCB "C"
	DCB	0x0, "M", 0x0, "E", 0x0, "M", 0x0, "K", 0x0, " ", 0x0, "D"
	DCB	0x0, "e", 0x0, "b", 0x0, "u", 0x0, "g", 0x0, ":", 0x0, " "
	DCB	0x0, "C", 0x0, "M", 0x0, "E", 0x0, "M", 0x0, "K", 0x0, ":"
	DCB	0x0, " ", 0x0, "W", 0x0, "a", 0x0, "r", 0x0, "n", 0x0, "i"
	DCB	0x0, "n", 0x0, "g", 0x0, ":", 0x0, " ", 0x0, "C", 0x0, "a"
	DCB	0x0, "n", 0x0, "n", 0x0, "o", 0x0, "t", 0x0, " ", 0x0, "o"
	DCB	0x0, "p", 0x0, "e", 0x0, "n", 0x0, " ", 0x0, "r", 0x0, "e"
	DCB	0x0, "g", 0x0, "i", 0x0, "s", 0x0, "t", 0x0, "r", 0x0, "y"
	DCB	0x0, " ", 0x0, "k", 0x0, "e", 0x0, "y", 0x0, ":", 0x0, " "
	DCB	0x0, "%", 0x0, "s", 0x0, 0xa, 0x0, 0x0, 0x0 ; `string'

  00000			 AREA	 |.rdata|, DATA, READONLY
|??_C@_1DC@KFACKDPH@?$AAU?$AAs?$AAe?$AAH?$AAe?$AAa?$AAp?$AAI?$AAf?$AAP?$AAo?$AAo?$AAl?$AAU?$AAn?$AAa?$AAv?$AAa?$AAi?$AAl?$AAa?$AAb?$AAl?$AAe?$AA?$AA@| DCB "U"
	DCB	0x0, "s", 0x0, "e", 0x0, "H", 0x0, "e", 0x0, "a", 0x0, "p"
	DCB	0x0, "I", 0x0, "f", 0x0, "P", 0x0, "o", 0x0, "o", 0x0, "l"
	DCB	0x0, "U", 0x0, "n", 0x0, "a", 0x0, "v", 0x0, "a", 0x0, "i"
	DCB	0x0, "l", 0x0, "a", 0x0, "b", 0x0, "l", 0x0, "e", 0x0, 0x0
	DCB	0x0					; `string'

  00000			 AREA	 |.rdata|, DATA, READONLY
|??_C@_1BE@NOPHIHDE@?$AAN?$AAu?$AAm?$AAP?$AAo?$AAo?$AAl?$AAs?$AA1?$AA?$AA@| DCB "N"
	DCB	0x0, "u", 0x0, "m", 0x0, "P", 0x0, "o", 0x0, "o", 0x0, "l"
	DCB	0x0, "s", 0x0, "1", 0x0, 0x0, 0x0	; `string'

  00000			 AREA	 |.rdata|, DATA, READONLY
|??_C@_1BE@GGELOAFB@?$AAN?$AAu?$AAm?$AAP?$AAo?$AAo?$AAl?$AAs?$AA0?$AA?$AA@| DCB "N"
	DCB	0x0, "u", 0x0, "m", 0x0, "P", 0x0, "o", 0x0, "o", 0x0, "l"
	DCB	0x0, "s", 0x0, "0", 0x0, 0x0, 0x0	; `string'

  00000			 AREA	 |.rdata|, DATA, READONLY
|??_C@_1BK@EEHBOAGL@?$AAP?$AAh?$AAy?$AAs?$AAi?$AAc?$AAa?$AAl?$AAE?$AAn?$AAd?$AA1?$AA?$AA@| DCB "P"
	DCB	0x0, "h", 0x0, "y", 0x0, "s", 0x0, "i", 0x0, "c", 0x0, "a"
	DCB	0x0, "l", 0x0, "E", 0x0, "n", 0x0, "d", 0x0, "1", 0x0, 0x0
	DCB	0x0					; `string'

  00000			 AREA	 |.rdata|, DATA, READONLY
|??_C@_1BK@PMMNIHAO@?$AAP?$AAh?$AAy?$AAs?$AAi?$AAc?$AAa?$AAl?$AAE?$AAn?$AAd?$AA0?$AA?$AA@| DCB "P"
	DCB	0x0, "h", 0x0, "y", 0x0, "s", 0x0, "i", 0x0, "c", 0x0, "a"
	DCB	0x0, "l", 0x0, "E", 0x0, "n", 0x0, "d", 0x0, "0", 0x0, 0x0
	DCB	0x0					; `string'

  00000			 AREA	 |.rdata|, DATA, READONLY
|??_C@_1BO@ODBAMBIC@?$AAP?$AAh?$AAy?$AAs?$AAi?$AAc?$AAa?$AAl?$AAS?$AAt?$AAa?$AAr?$AAt?$AA1?$AA?$AA@| DCB "P"
	DCB	0x0, "h", 0x0, "y", 0x0, "s", 0x0, "i", 0x0, "c", 0x0, "a"
	DCB	0x0, "l", 0x0, "S", 0x0, "t", 0x0, "a", 0x0, "r", 0x0, "t"
	DCB	0x0, "1", 0x0, 0x0, 0x0			; `string'

  00000			 AREA	 |.rdata|, DATA, READONLY
|??_C@_1GG@BKOAGPDI@?$AAC?$AAM?$AAE?$AAM?$AAK?$AA?5?$AAE?$AAr?$AAr?$AAo?$AAr?$AA?3?$AA?5?$AAC?$AAM?$AAE?$AAM?$AAK?$AA?3?$AA?5?$AAc?$AAa?$AAn?$AAn?$AAo?$AAt?$AA?5?$AAo?$AAp?$AAe?$AAn?$AA?5@| DCB "C"
	DCB	0x0, "M", 0x0, "E", 0x0, "M", 0x0, "K", 0x0, " ", 0x0, "E"
	DCB	0x0, "r", 0x0, "r", 0x0, "o", 0x0, "r", 0x0, ":", 0x0, " "
	DCB	0x0, "C", 0x0, "M", 0x0, "E", 0x0, "M", 0x0, "K", 0x0, ":"
	DCB	0x0, " ", 0x0, "c", 0x0, "a", 0x0, "n", 0x0, "n", 0x0, "o"
	DCB	0x0, "t", 0x0, " ", 0x0, "o", 0x0, "p", 0x0, "e", 0x0, "n"
	DCB	0x0, " ", 0x0, "r", 0x0, "e", 0x0, "g", 0x0, "i", 0x0, "s"
	DCB	0x0, "t", 0x0, "r", 0x0, "y", 0x0, " ", 0x0, "k", 0x0, "e"
	DCB	0x0, "y", 0x0, ":", 0x0, " ", 0x0, "%", 0x0, "s", 0x0, "!"
	DCB	0x0, 0xa, 0x0, 0x0, 0x0			; `string'

  00000			 AREA	 |.rdata|, DATA, READONLY
|??_C@_1BO@FLKMKGOH@?$AAP?$AAh?$AAy?$AAs?$AAi?$AAc?$AAa?$AAl?$AAS?$AAt?$AAa?$AAr?$AAt?$AA0?$AA?$AA@| DCB "P"
	DCB	0x0, "h", 0x0, "y", 0x0, "s", 0x0, "i", 0x0, "c", 0x0, "a"
	DCB	0x0, "l", 0x0, "S", 0x0, "t", 0x0, "a", 0x0, "r", 0x0, "t"
	DCB	0x0, "0", 0x0, 0x0, 0x0			; `string'

  00000			 AREA	 |.rdata|, DATA, READONLY
|??_C@_1FO@GGDGBKHC@?$AAC?$AAM?$AAE?$AAM?$AAK?$AA?5?$AAE?$AAr?$AAr?$AAo?$AAr?$AA?3?$AA?5?$AAC?$AAM?$AAE?$AAM?$AAK?$AA?3?$AA?5?$AAc?$AAa?$AAn?$AAn?$AAo?$AAt?$AA?5?$AAo?$AAp?$AAe?$AAn?$AA?5@| DCB "C"
	DCB	0x0, "M", 0x0, "E", 0x0, "M", 0x0, "K", 0x0, " ", 0x0, "E"
	DCB	0x0, "r", 0x0, "r", 0x0, "o", 0x0, "r", 0x0, ":", 0x0, " "
	DCB	0x0, "C", 0x0, "M", 0x0, "E", 0x0, "M", 0x0, "K", 0x0, ":"
	DCB	0x0, " ", 0x0, "c", 0x0, "a", 0x0, "n", 0x0, "n", 0x0, "o"
	DCB	0x0, "t", 0x0, " ", 0x0, "o", 0x0, "p", 0x0, "e", 0x0, "n"
	DCB	0x0, " ", 0x0, "r", 0x0, "e", 0x0, "g", 0x0, "i", 0x0, "s"
	DCB	0x0, "t", 0x0, "r", 0x0, "y", 0x0, " ", 0x0, "k", 0x0, "e"
	DCB	0x0, "y", 0x0, "!", 0x0, 0xa, 0x0, 0x0, 0x0 ; `string'

  00000			 AREA	 |.rdata|, DATA, READONLY
|??_C@_1CM@BOKDKMGI@?$AAD?$AAr?$AAi?$AAv?$AAe?$AAr?$AAs?$AA?2?$AAB?$AAu?$AAi?$AAl?$AAt?$AAI?$AAn?$AA?2?$AAC?$AAM?$AAE?$AAM?$AAK?$AA?$AA@| DCB "D"
	DCB	0x0, "r", 0x0, "i", 0x0, "v", 0x0, "e", 0x0, "r", 0x0, "s"
	DCB	0x0, "\\", 0x0, "B", 0x0, "u", 0x0, "i", 0x0, "l", 0x0, "t"
	DCB	0x0, "I", 0x0, "n", 0x0, "\\", 0x0, "C", 0x0, "M", 0x0, "E"
	DCB	0x0, "M", 0x0, "K", 0x0, 0x0, 0x0	; `string'

  00000			 AREA	 |.xdata|, DATA
|$T41178| DCD	0xffffff34
; Function compile flags: /Odtp

  00418			 AREA	 |.text|, CODE, ARM

  00418	00000000	 DCD         |__GSHandlerCheck|
  0041c	00000000	 DCD         |$T41178|

  00420		 |CMK_Init| PROC

; 763  : {

  00420		 |$LN44@CMK_Init|
  00420	e1a0c00d	 mov         r12, sp
  00424	e92d0001	 stmdb       sp!, {r0}
  00428	e92d5000	 stmdb       sp!, {r12, lr}
  0042c	e24ddfc7	 sub         sp, sp, #0xC7, 30
  00430		 |$M41179|
  00430	e59f3eac	 ldr         r3, [pc, #0xEAC]
  00434	e5933000	 ldr         r3, [r3]
  00438	e58d325c	 str         r3, [sp, #0x25C]

; 764  :     int bi;
; 765  :     int i;
; 766  :     int err;
; 767  :     int pool_size;
; 768  :     int pool_num_buffers;
; 769  :     unsigned long length;
; 770  :     HeapMem_Header *header;
; 771  :     SYSTEM_INFO systemInfo;
; 772  :     HKEY hKey;
; 773  :     DWORD dwDataSize;
; 774  : 
; 775  : //    __D("** CMEM kernel module built: " __DATE__ " " __TIME__ "\n" );
; 776  : //    DebugBreak();
; 777  : 
; 778  :     if (RegOpenKeyEx(HKEY_LOCAL_MACHINE, CMEMK_REG_KEY, 0, 0, &hKey) !=
; 779  :             ERROR_SUCCESS) {

  0043c	e28d3010	 add         r3, sp, #0x10
  00440	e58d3000	 str         r3, [sp]
  00444	e3a03000	 mov         r3, #0
  00448	e3a02000	 mov         r2, #0
  0044c	e59f1e8c	 ldr         r1, [pc, #0xE8C]
  00450	e3a0010a	 mov         r0, #0xA, 2
  00454	eb000000	 bl          RegOpenKeyExW
  00458	e58d02d4	 str         r0, [sp, #0x2D4]
  0045c	e59d32d4	 ldr         r3, [sp, #0x2D4]
  00460	e3530000	 cmp         r3, #0
  00464	0a000006	 beq         |$LN37@CMK_Init|

; 780  :         __E("CMEMK: cannot open registry key!\n");

  00468	e59f0e6c	 ldr         r0, [pc, #0xE6C]
  0046c	eb000000	 bl          NKDbgPrintfW

; 781  :         return 0;

  00470	e59d025c	 ldr         r0, [sp, #0x25C]
  00474	eb000000	 bl          __security_check_cookie
  00478	e3a03000	 mov         r3, #0
  0047c	e58d3264	 str         r3, [sp, #0x264]
  00480	ea000361	 b           |$LN38@CMK_Init|
  00484		 |$LN37@CMK_Init|

; 782  :     }
; 783  : 
; 784  :     dwDataSize = sizeof(block_start[0]);

  00484	e3a03004	 mov         r3, #4
  00488	e58d304c	 str         r3, [sp, #0x4C]

; 785  :     if (RegQueryValueEx(hKey, CMEMK_REG_KEY_PHYSICAL_START_0, NULL, NULL,
; 786  :                 (LPBYTE)&block_start[0], &dwDataSize) != ERROR_SUCCESS) {

  0048c	e28d304c	 add         r3, sp, #0x4C
  00490	e58d3004	 str         r3, [sp, #4]
  00494	e59f3da0	 ldr         r3, [pc, #0xDA0]
  00498	e58d3000	 str         r3, [sp]
  0049c	e3a03000	 mov         r3, #0
  004a0	e3a02000	 mov         r2, #0
  004a4	e59f1e2c	 ldr         r1, [pc, #0xE2C]
  004a8	e59d0010	 ldr         r0, [sp, #0x10]
  004ac	eb000000	 bl          RegQueryValueExW
  004b0	e58d02d8	 str         r0, [sp, #0x2D8]
  004b4	e59d32d8	 ldr         r3, [sp, #0x2D8]
  004b8	e3530000	 cmp         r3, #0
  004bc	0a000005	 beq         |$LN36@CMK_Init|

; 787  :         __E("CMEMK: cannot open registry key: %s!\n",
; 788  :                 CMEMK_REG_KEY_PHYSICAL_START_0);

  004c0	e59f1e10	 ldr         r1, [pc, #0xE10]
  004c4	e59f0da0	 ldr         r0, [pc, #0xDA0]
  004c8	eb000000	 bl          NKDbgPrintfW

; 789  :         block_start[0] = 0;

  004cc	e59f2d68	 ldr         r2, [pc, #0xD68]
  004d0	e3a03000	 mov         r3, #0
  004d4	e5823000	 str         r3, [r2]
  004d8		 |$LN36@CMK_Init|

; 790  :     }
; 791  : 
; 792  :     dwDataSize = sizeof(block_start[1]);

  004d8	e3a03004	 mov         r3, #4
  004dc	e58d304c	 str         r3, [sp, #0x4C]

; 793  :     if (RegQueryValueEx(hKey, CMEMK_REG_KEY_PHYSICAL_START_1, NULL, NULL,
; 794  :                 (LPBYTE)&block_start[1], &dwDataSize) != ERROR_SUCCESS) {

  004e0	e28d304c	 add         r3, sp, #0x4C
  004e4	e58d3004	 str         r3, [sp, #4]
  004e8	e59f3d4c	 ldr         r3, [pc, #0xD4C]
  004ec	e2833004	 add         r3, r3, #4
  004f0	e58d3000	 str         r3, [sp]
  004f4	e3a03000	 mov         r3, #0
  004f8	e3a02000	 mov         r2, #0
  004fc	e59f1dd0	 ldr         r1, [pc, #0xDD0]
  00500	e59d0010	 ldr         r0, [sp, #0x10]
  00504	eb000000	 bl          RegQueryValueExW
  00508	e58d02dc	 str         r0, [sp, #0x2DC]
  0050c	e59d32dc	 ldr         r3, [sp, #0x2DC]
  00510	e3530000	 cmp         r3, #0
  00514	0a000005	 beq         |$LN35@CMK_Init|

; 795  :         __E("CMEMK: cannot open registry key: %s!\n",
; 796  :                 CMEMK_REG_KEY_PHYSICAL_START_1);

  00518	e59f1db4	 ldr         r1, [pc, #0xDB4]
  0051c	e59f0d48	 ldr         r0, [pc, #0xD48]
  00520	eb000000	 bl          NKDbgPrintfW

; 797  :         block_start[1] = 0;

  00524	e59f2d10	 ldr         r2, [pc, #0xD10]
  00528	e3a03000	 mov         r3, #0
  0052c	e5823004	 str         r3, [r2, #4]
  00530		 |$LN35@CMK_Init|

; 798  :     }
; 799  : 
; 800  :     dwDataSize = sizeof(block_end[0]);

  00530	e3a03004	 mov         r3, #4
  00534	e58d304c	 str         r3, [sp, #0x4C]

; 801  :     if (RegQueryValueEx(hKey, CMEMK_REG_KEY_PHYSICAL_END_0, NULL, NULL,
; 802  :                 (LPBYTE)&block_end[0], &dwDataSize) != ERROR_SUCCESS) {

  00538	e28d304c	 add         r3, sp, #0x4C
  0053c	e58d3004	 str         r3, [sp, #4]
  00540	e59f3cf8	 ldr         r3, [pc, #0xCF8]
  00544	e58d3000	 str         r3, [sp]
  00548	e3a03000	 mov         r3, #0
  0054c	e3a02000	 mov         r2, #0
  00550	e59f1d78	 ldr         r1, [pc, #0xD78]
  00554	e59d0010	 ldr         r0, [sp, #0x10]
  00558	eb000000	 bl          RegQueryValueExW
  0055c	e58d02e0	 str         r0, [sp, #0x2E0]
  00560	e59d32e0	 ldr         r3, [sp, #0x2E0]
  00564	e3530000	 cmp         r3, #0
  00568	0a000005	 beq         |$LN34@CMK_Init|

; 803  :         __E("CMEMK: cannot open registry key: %s!\n",
; 804  :                 CMEMK_REG_KEY_PHYSICAL_END_0);

  0056c	e59f1d5c	 ldr         r1, [pc, #0xD5C]
  00570	e59f0cf4	 ldr         r0, [pc, #0xCF4]
  00574	eb000000	 bl          NKDbgPrintfW

; 805  :         block_end[0] = 0;

  00578	e59f2cc0	 ldr         r2, [pc, #0xCC0]
  0057c	e3a03000	 mov         r3, #0
  00580	e5823000	 str         r3, [r2]
  00584		 |$LN34@CMK_Init|

; 806  :     }
; 807  : 
; 808  :     dwDataSize = sizeof(block_end[1]);

  00584	e3a03004	 mov         r3, #4
  00588	e58d304c	 str         r3, [sp, #0x4C]

; 809  :     if (RegQueryValueEx(hKey, CMEMK_REG_KEY_PHYSICAL_END_1, NULL, NULL,
; 810  :                 (LPBYTE)&block_end[1], &dwDataSize) != ERROR_SUCCESS) {

  0058c	e28d304c	 add         r3, sp, #0x4C
  00590	e58d3004	 str         r3, [sp, #4]
  00594	e59f3ca4	 ldr         r3, [pc, #0xCA4]
  00598	e2833004	 add         r3, r3, #4
  0059c	e58d3000	 str         r3, [sp]
  005a0	e3a03000	 mov         r3, #0
  005a4	e3a02000	 mov         r2, #0
  005a8	e59f1d1c	 ldr         r1, [pc, #0xD1C]
  005ac	e59d0010	 ldr         r0, [sp, #0x10]
  005b0	eb000000	 bl          RegQueryValueExW
  005b4	e58d02e4	 str         r0, [sp, #0x2E4]
  005b8	e59d32e4	 ldr         r3, [sp, #0x2E4]
  005bc	e3530000	 cmp         r3, #0
  005c0	0a000005	 beq         |$LN33@CMK_Init|

; 811  :         __E("CMEMK: cannot open registry key: %s!\n",
; 812  :                 CMEMK_REG_KEY_PHYSICAL_END_1);

  005c4	e59f1d00	 ldr         r1, [pc, #0xD00]
  005c8	e59f0c9c	 ldr         r0, [pc, #0xC9C]
  005cc	eb000000	 bl          NKDbgPrintfW

; 813  :         block_end[1] = 0;

  005d0	e59f2c68	 ldr         r2, [pc, #0xC68]
  005d4	e3a03000	 mov         r3, #0
  005d8	e5823004	 str         r3, [r2, #4]
  005dc		 |$LN33@CMK_Init|

; 814  :     }
; 815  : 
; 816  : 
; 817  :     dwDataSize = sizeof(npools[0]);

  005dc	e3a03004	 mov         r3, #4
  005e0	e58d304c	 str         r3, [sp, #0x4C]

; 818  :     if (RegQueryValueEx(hKey, CMEMK_REG_KEY_NUM_POOLS_0, NULL, NULL,
; 819  :                 (LPBYTE)&npools[0], &dwDataSize) != ERROR_SUCCESS) {

  005e4	e28d304c	 add         r3, sp, #0x4C
  005e8	e58d3004	 str         r3, [sp, #4]
  005ec	e59f3c44	 ldr         r3, [pc, #0xC44]
  005f0	e58d3000	 str         r3, [sp]
  005f4	e3a03000	 mov         r3, #0
  005f8	e3a02000	 mov         r2, #0
  005fc	e59f1cc4	 ldr         r1, [pc, #0xCC4]
  00600	e59d0010	 ldr         r0, [sp, #0x10]
  00604	eb000000	 bl          RegQueryValueExW
  00608	e58d02e8	 str         r0, [sp, #0x2E8]
  0060c	e59d32e8	 ldr         r3, [sp, #0x2E8]
  00610	e3530000	 cmp         r3, #0
  00614	0a000005	 beq         |$LN32@CMK_Init|

; 820  :         __E("CMEMK: cannot open registry key: %s!\n",
; 821  :                 CMEMK_REG_KEY_NUM_POOLS_0);

  00618	e59f1ca8	 ldr         r1, [pc, #0xCA8]
  0061c	e59f0c48	 ldr         r0, [pc, #0xC48]
  00620	eb000000	 bl          NKDbgPrintfW

; 822  :         npools[0] = 0;

  00624	e59f2c0c	 ldr         r2, [pc, #0xC0C]
  00628	e3a03000	 mov         r3, #0
  0062c	e5823000	 str         r3, [r2]
  00630		 |$LN32@CMK_Init|

; 823  :     }
; 824  : 
; 825  :     dwDataSize = sizeof(npools[1]);

  00630	e3a03004	 mov         r3, #4
  00634	e58d304c	 str         r3, [sp, #0x4C]

; 826  :     if (RegQueryValueEx(hKey, CMEMK_REG_KEY_NUM_POOLS_1, NULL, NULL,
; 827  :                 (LPBYTE)&npools[1], &dwDataSize) != ERROR_SUCCESS) {

  00638	e28d304c	 add         r3, sp, #0x4C
  0063c	e58d3004	 str         r3, [sp, #4]
  00640	e59f3bf0	 ldr         r3, [pc, #0xBF0]
  00644	e2833004	 add         r3, r3, #4
  00648	e58d3000	 str         r3, [sp]
  0064c	e3a03000	 mov         r3, #0
  00650	e3a02000	 mov         r2, #0
  00654	e59f1c68	 ldr         r1, [pc, #0xC68]
  00658	e59d0010	 ldr         r0, [sp, #0x10]
  0065c	eb000000	 bl          RegQueryValueExW
  00660	e58d02ec	 str         r0, [sp, #0x2EC]
  00664	e59d32ec	 ldr         r3, [sp, #0x2EC]
  00668	e3530000	 cmp         r3, #0
  0066c	0a000005	 beq         |$LN31@CMK_Init|

; 828  :         __E("CMEMK: cannot open registry key: %s!\n",
; 829  :                 CMEMK_REG_KEY_NUM_POOLS_1);

  00670	e59f1c4c	 ldr         r1, [pc, #0xC4C]
  00674	e59f0bf0	 ldr         r0, [pc, #0xBF0]
  00678	eb000000	 bl          NKDbgPrintfW

; 830  :         npools[1] = 0;

  0067c	e59f2bb4	 ldr         r2, [pc, #0xBB4]
  00680	e3a03000	 mov         r3, #0
  00684	e5823004	 str         r3, [r2, #4]
  00688		 |$LN31@CMK_Init|

; 831  :     }
; 832  : 
; 833  :     dwDataSize = sizeof(useHeapIfPoolUnavailable);

  00688	e3a03004	 mov         r3, #4
  0068c	e58d304c	 str         r3, [sp, #0x4C]

; 834  :     if (RegQueryValueEx(hKey, CMEMK_REG_KEY_USE_HEAP, NULL, NULL,
; 835  :                 (LPBYTE)&useHeapIfPoolUnavailable,
; 836  :                 &dwDataSize) != ERROR_SUCCESS) {

  00690	e28d304c	 add         r3, sp, #0x4C
  00694	e58d3004	 str         r3, [sp, #4]
  00698	e59f3c18	 ldr         r3, [pc, #0xC18]
  0069c	e58d3000	 str         r3, [sp]
  006a0	e3a03000	 mov         r3, #0
  006a4	e3a02000	 mov         r2, #0
  006a8	e59f1c10	 ldr         r1, [pc, #0xC10]
  006ac	e59d0010	 ldr         r0, [sp, #0x10]
  006b0	eb000000	 bl          RegQueryValueExW
  006b4	e58d02f0	 str         r0, [sp, #0x2F0]
  006b8	e59d32f0	 ldr         r3, [sp, #0x2F0]
  006bc	e3530000	 cmp         r3, #0
  006c0	0a000005	 beq         |$LN30@CMK_Init|

; 837  :         __D("CMEMK: Warning: Cannot open registry key: %s\n",
; 838  :                 CMEMK_REG_KEY_USE_HEAP);

  006c4	e59f1bf4	 ldr         r1, [pc, #0xBF4]
  006c8	e59f0bec	 ldr         r0, [pc, #0xBEC]
  006cc	eb000000	 bl          NKDbgPrintfW

; 839  :         useHeapIfPoolUnavailable = 0;

  006d0	e59f2be0	 ldr         r2, [pc, #0xBE0]
  006d4	e3a03000	 mov         r3, #0
  006d8	e5823000	 str         r3, [r2]
  006dc		 |$LN30@CMK_Init|

; 840  :     }
; 841  : 
; 842  :     if (npools[0] > MAX_POOLS) {

  006dc	e59f3b54	 ldr         r3, [pc, #0xB54]
  006e0	e5933000	 ldr         r3, [r3]
  006e4	e3530080	 cmp         r3, #0x80
  006e8	da000005	 ble         |$LN29@CMK_Init|

; 843  :         __E("Too many pools specified (%d) for Block 0, only %d supported.\n",
; 844  :                 npools[0], MAX_POOLS);

  006ec	e3a02080	 mov         r2, #0x80
  006f0	e59f3b40	 ldr         r3, [pc, #0xB40]
  006f4	e5931000	 ldr         r1, [r3]
  006f8	e59f0bb4	 ldr         r0, [pc, #0xBB4]
  006fc	eb000000	 bl          NKDbgPrintfW

; 845  :         goto fail_after_create;

  00700	ea0002bb	 b           |$fail_after_create$40493|
  00704		 |$LN29@CMK_Init|

; 846  :     }
; 847  : 
; 848  : /* cut-and-paste below as part of adding support for more than 2 blocks */
; 849  :     if (npools[1] > MAX_POOLS) {

  00704	e59f3b2c	 ldr         r3, [pc, #0xB2C]
  00708	e5933004	 ldr         r3, [r3, #4]
  0070c	e3530080	 cmp         r3, #0x80
  00710	da000005	 ble         |$LN28@CMK_Init|

; 850  :         __E("Too many pools specified (%d) for Block 1, only %d supported.\n",
; 851  :                 npools[1], MAX_POOLS);

  00714	e3a02080	 mov         r2, #0x80
  00718	e59f3b18	 ldr         r3, [pc, #0xB18]
  0071c	e5931004	 ldr         r1, [r3, #4]
  00720	e59f0b88	 ldr         r0, [pc, #0xB88]
  00724	eb000000	 bl          NKDbgPrintfW

; 852  :         goto fail_after_create;

  00728	ea0002b1	 b           |$fail_after_create$40493|
  0072c		 |$LN28@CMK_Init|

; 853  :     }
; 854  : 
; 855  : /* cut-and-paste above as part of adding support for more than 2 blocks */
; 856  : 
; 857  :     cmem_mutex = CreateMutex(NULL, FALSE, CMEMK_MUTEX_NAME);

  0072c	e59f2b78	 ldr         r2, [pc, #0xB78]
  00730	e3a01000	 mov         r1, #0
  00734	e3a00000	 mov         r0, #0
  00738	eb000000	 bl          CreateMutexW
  0073c	e58d02f4	 str         r0, [sp, #0x2F4]
  00740	e59d22f4	 ldr         r2, [sp, #0x2F4]
  00744	e59f3b5c	 ldr         r3, [pc, #0xB5C]
  00748	e5832000	 str         r2, [r3]

; 858  : 
; 859  :     GetSystemInfo(&systemInfo);

  0074c	e28d001c	 add         r0, sp, #0x1C
  00750	eb000000	 bl          GetSystemInfo

; 860  :     gdwPageSize = systemInfo.dwPageSize;

  00754	e59d2020	 ldr         r2, [sp, #0x20]
  00758	e59f3b00	 ldr         r3, [pc, #0xB00]
  0075c	e5832000	 str         r2, [r3]

; 861  : 
; 862  : /* cut-and-paste above as part of adding support for more than 2 blocks */
; 863  : 
; 864  :     for (bi = 0; bi < NBLOCKS; bi++) {

  00760	e3a03000	 mov         r3, #0
  00764	e58d3048	 str         r3, [sp, #0x48]
  00768	ea000002	 b           |$LN27@CMK_Init|
  0076c		 |$LN26@CMK_Init|
  0076c	e59d3048	 ldr         r3, [sp, #0x48]
  00770	e2833001	 add         r3, r3, #1
  00774	e58d3048	 str         r3, [sp, #0x48]
  00778		 |$LN27@CMK_Init|
  00778	e59d3048	 ldr         r3, [sp, #0x48]
  0077c	e3530002	 cmp         r3, #2
  00780	aa000256	 bge         |$LN25@CMK_Init|

; 865  : 
; 866  : /* cut-and-paste below as part of adding support for more than 2 blocks */
; 867  :         if (bi == 1 && (!block_start[1] || !block_end[1])) {

  00784	e59d3048	 ldr         r3, [sp, #0x48]
  00788	e3530001	 cmp         r3, #1
  0078c	1a000008	 bne         |$LN24@CMK_Init|
  00790	e59f3aa4	 ldr         r3, [pc, #0xAA4]
  00794	e5933004	 ldr         r3, [r3, #4]
  00798	e3530000	 cmp         r3, #0
  0079c	0a000003	 beq         |$LN23@CMK_Init|
  007a0	e59f3a98	 ldr         r3, [pc, #0xA98]
  007a4	e5933004	 ldr         r3, [r3, #4]
  007a8	e3530000	 cmp         r3, #0
  007ac	1a000000	 bne         |$LN24@CMK_Init|
  007b0		 |$LN23@CMK_Init|

; 868  :             break;

  007b0	ea00024a	 b           |$LN25@CMK_Init|
  007b4		 |$LN24@CMK_Init|

; 869  :         }
; 870  : 
; 871  : /* cut-and-paste above as part of adding support for more than 2 blocks */
; 872  : 
; 873  :         /* Get the start and end of CMEM memory */
; 874  :         block_start[bi] = PAGE_ALIGN(block_start[bi]);

  007b4	e59d1048	 ldr         r1, [sp, #0x48]
  007b8	e3a03004	 mov         r3, #4
  007bc	e0020391	 mul         r2, r1, r3
  007c0	e59f3a74	 ldr         r3, [pc, #0xA74]
  007c4	e0833002	 add         r3, r3, r2
  007c8	e5932000	 ldr         r2, [r3]
  007cc	e59f3a8c	 ldr         r3, [pc, #0xA8C]
  007d0	e5933000	 ldr         r3, [r3]
  007d4	e0823003	 add         r3, r2, r3
  007d8	e2432001	 sub         r2, r3, #1
  007dc	e59f3a7c	 ldr         r3, [pc, #0xA7C]
  007e0	e5933000	 ldr         r3, [r3]
  007e4	e2433001	 sub         r3, r3, #1
  007e8	e1e03003	 mvn         r3, r3
  007ec	e0020003	 and         r0, r2, r3
  007f0	e59d1048	 ldr         r1, [sp, #0x48]
  007f4	e3a03004	 mov         r3, #4
  007f8	e0020391	 mul         r2, r1, r3
  007fc	e59f3a38	 ldr         r3, [pc, #0xA38]
  00800	e0833002	 add         r3, r3, r2
  00804	e5830000	 str         r0, [r3]

; 875  :         block_end[bi] = PAGE_ALIGN(block_end[bi]);

  00808	e59d1048	 ldr         r1, [sp, #0x48]
  0080c	e3a03004	 mov         r3, #4
  00810	e0020391	 mul         r2, r1, r3
  00814	e59f3a24	 ldr         r3, [pc, #0xA24]
  00818	e0833002	 add         r3, r3, r2
  0081c	e5932000	 ldr         r2, [r3]
  00820	e59f3a38	 ldr         r3, [pc, #0xA38]
  00824	e5933000	 ldr         r3, [r3]
  00828	e0823003	 add         r3, r2, r3
  0082c	e2432001	 sub         r2, r3, #1
  00830	e59f3a28	 ldr         r3, [pc, #0xA28]
  00834	e5933000	 ldr         r3, [r3]
  00838	e2433001	 sub         r3, r3, #1
  0083c	e1e03003	 mvn         r3, r3
  00840	e0020003	 and         r0, r2, r3
  00844	e59d1048	 ldr         r1, [sp, #0x48]
  00848	e3a03004	 mov         r3, #4
  0084c	e0020391	 mul         r2, r1, r3
  00850	e59f39e8	 ldr         r3, [pc, #0x9E8]
  00854	e0833002	 add         r3, r3, r2
  00858	e5830000	 str         r0, [r3]

; 876  :         length = block_end[bi] - block_start[bi];

  0085c	e59d1048	 ldr         r1, [sp, #0x48]
  00860	e3a03004	 mov         r3, #4
  00864	e0020391	 mul         r2, r1, r3
  00868	e59f39d0	 ldr         r3, [pc, #0x9D0]
  0086c	e0830002	 add         r0, r3, r2
  00870	e59d1048	 ldr         r1, [sp, #0x48]
  00874	e3a03004	 mov         r3, #4
  00878	e0020391	 mul         r2, r1, r3
  0087c	e59f39b8	 ldr         r3, [pc, #0x9B8]
  00880	e0833002	 add         r3, r3, r2
  00884	e5902000	 ldr         r2, [r0]
  00888	e5933000	 ldr         r3, [r3]
  0088c	e0423003	 sub         r3, r2, r3
  00890	e58d300c	 str         r3, [sp, #0xC]

; 877  : 
; 878  :         if (length < 0) {

  00894	e59d300c	 ldr         r3, [sp, #0xC]
  00898	e3530000	 cmp         r3, #0
  0089c	2a000005	 bcs         |$LN22@CMK_Init|

; 879  :             __E("Negative length of physical memory (%ld)\n", length);

  008a0	e59d100c	 ldr         r1, [sp, #0xC]
  008a4	e59f09f8	 ldr         r0, [pc, #0x9F8]
  008a8	eb000000	 bl          NKDbgPrintfW

; 880  :             err = 0;

  008ac	e3a03000	 mov         r3, #0
  008b0	e58d3044	 str         r3, [sp, #0x44]

; 881  :             goto fail_after_create;

  008b4	ea00024e	 b           |$fail_after_create$40493|
  008b8		 |$LN22@CMK_Init|

; 882  :         }
; 883  : 
; 884  :         block_avail_size[bi] = length;

  008b8	e59d1048	 ldr         r1, [sp, #0x48]
  008bc	e3a03004	 mov         r3, #4
  008c0	e0020391	 mul         r2, r1, r3
  008c4	e59f3958	 ldr         r3, [pc, #0x958]
  008c8	e0832002	 add         r2, r3, r2
  008cc	e59d300c	 ldr         r3, [sp, #0xC]
  008d0	e5823000	 str         r3, [r2]

; 885  :         numBlocks = bi + 1;

  008d4	e59d3048	 ldr         r3, [sp, #0x48]
  008d8	e2832001	 add         r2, r3, #1
  008dc	e59f39bc	 ldr         r3, [pc, #0x9BC]
  008e0	e5832000	 str         r2, [r3]

; 886  : 
; 887  :         // TODO: Can't do this in WINCE....figure out some other way!
; 888  :         /* attempt to determine the end of Linux kernel memory */
; 889  :         //phys_end_kernel = virt_to_phys((void *)PAGE_OFFSET) +
; 890  :         //  (num_physpages << PAGE_SHIFT);
; 891  : 
; 892  :         //if (phys_end_kernel > block_start[bi])
; 893  :         //{
; 894  :         //  if (allowOverlap == 0)
; 895  :         //  {
; 896  :         //      __E("CMEM phys_start (%#lx) overlaps kernel (%#lx -> %#lx)\n",
; 897  :         //          block_start[bi], virt_to_phys((void *)PAGE_OFFSET), phys_end_kernel);
; 898  :         //      err = 0;
; 899  :         //      goto fail_after_create;
; 900  :         //  }
; 901  :         //  else
; 902  :         //  {
; 903  :         //      printk("CMEM Range Overlaps Kernel Physical - allowing overlap\n");
; 904  :         //      printk("CMEM phys_start (%#lx) overlaps kernel (%#lx -> %#lx)\n",
; 905  :         //          block_start[bi], virt_to_phys((void *)PAGE_OFFSET), phys_end_kernel);
; 906  :         //  }
; 907  :         //}
; 908  : 
; 909  :         /* Initialize the top memory chunk in which to put the pools */
; 910  :         //#ifdef NOCACHE
; 911  :         //    block_virtp[bi] = (unsigned long) ioremap_nocache(block_start[bi], length);
; 912  :         //#else
; 913  :         //    block_virtp[bi] = (unsigned long) ioremap_cached(block_start[bi], length);
; 914  :         //#endif
; 915  :         if (block_start[bi]) {

  008e4	e59d1048	 ldr         r1, [sp, #0x48]
  008e8	e3a03004	 mov         r3, #4
  008ec	e0020391	 mul         r2, r1, r3
  008f0	e59f3944	 ldr         r3, [pc, #0x944]
  008f4	e0833002	 add         r3, r3, r2
  008f8	e5933000	 ldr         r3, [r3]
  008fc	e3530000	 cmp         r3, #0
  00900	0a00001d	 beq         |$LN21@CMK_Init|

; 916  :             // physical address specified in registry (hole was punched in
; 917  :             // address table in config.bib) - use it directly
; 918  :             // HACKHACKHACK!!!! - This is a big security risk.  Either remove
; 919  :             // this feature or add a check on the allowable physical address
; 920  :             // range.
; 921  :             //
; 922  :             PHYSICAL_ADDRESS pa = {block_start[bi], 0};

  00904	e59d1048	 ldr         r1, [sp, #0x48]
  00908	e3a03004	 mov         r3, #4
  0090c	e0020391	 mul         r2, r1, r3
  00910	e59f3924	 ldr         r3, [pc, #0x924]
  00914	e0833002	 add         r3, r3, r2
  00918	e5933000	 ldr         r3, [r3]
  0091c	e58d3054	 str         r3, [sp, #0x54]
  00920	e3a03000	 mov         r3, #0
  00924	e58d3058	 str         r3, [sp, #0x58]

; 923  : #ifdef NOCACHE
; 924  :             block_virtp[bi] = (unsigned long)MmMapIoSpace(pa, length, FALSE);

  00928	e3a03000	 mov         r3, #0
  0092c	e59d200c	 ldr         r2, [sp, #0xC]
  00930	e59d0054	 ldr         r0, [sp, #0x54]
  00934	e59d1058	 ldr         r1, [sp, #0x58]
  00938	eb000000	 bl          MmMapIoSpace
  0093c	e58d02f8	 str         r0, [sp, #0x2F8]
  00940	e59d1048	 ldr         r1, [sp, #0x48]
  00944	e3a03004	 mov         r3, #4
  00948	e0020391	 mul         r2, r1, r3
  0094c	e59f38c8	 ldr         r3, [pc, #0x8C8]
  00950	e0832002	 add         r2, r3, r2
  00954	e59d32f8	 ldr         r3, [sp, #0x2F8]
  00958	e5823000	 str         r3, [r2]

; 925  : #else
; 926  :             block_virtp[bi] = (unsigned long)MmMapIoSpace(pa, length, TRUE);
; 927  : #endif // NOCACHE
; 928  :             mem_alloc_type[bi] = MMMAPIOSPACE;

  0095c	e59d1048	 ldr         r1, [sp, #0x48]
  00960	e3a03004	 mov         r3, #4
  00964	e0020391	 mul         r2, r1, r3
  00968	e59f38b0	 ldr         r3, [pc, #0x8B0]
  0096c	e0832002	 add         r2, r3, r2
  00970	e3a03000	 mov         r3, #0
  00974	e5823000	 str         r3, [r2]

; 929  :         }
; 930  :         else {

  00978	ea00006b	 b           |$LN20@CMK_Init|
  0097c		 |$LN21@CMK_Init|

; 931  :             // user did not specify a fixed physical address - let
; 932  :             // AllocPhysMem() decide where to allocate memory. Memory
; 933  :             // allocated this way is always uncached.
; 934  :             //
; 935  :             // block_virtp[bi] = (unsigned long)AllocPhysMem(length,
; 936  :             //         PAGE_READWRITE, gdwPageSize, 0, &block_start[bi]);
; 937  :             // block_virtp[bi] = (unsigned long)AllocPhysMem(length,
; 938  :             //         PAGE_READWRITE, 0, 0, &block_start[bi]);
; 939  : #define PHYS_ALLOC_MEM_ALIGN 0x10000
; 940  :             // hack: dsplink like the physical address which is 64k aligned,
; 941  :             // but AllocPhysMem seems to only care if the virtual address
; 942  :             // is aligned, so we have to adjust the physical address manually.
; 943  :             //
; 944  :             real_block_virtp[bi] = (unsigned long)AllocPhysMem(length +
; 945  :                     PHYS_ALLOC_MEM_ALIGN, PAGE_READWRITE, PHYS_ALLOC_MEM_ALIGN,
; 946  :                     0, &real_block_start[bi]);

  0097c	e59d1048	 ldr         r1, [sp, #0x48]
  00980	e3a03004	 mov         r3, #4
  00984	e0020391	 mul         r2, r1, r3
  00988	e59f3908	 ldr         r3, [pc, #0x908]
  0098c	e0833002	 add         r3, r3, r2
  00990	e58d3000	 str         r3, [sp]
  00994	e3a03000	 mov         r3, #0
  00998	e3a02801	 mov         r2, #1, 16
  0099c	e3a01004	 mov         r1, #4
  009a0	e59d000c	 ldr         r0, [sp, #0xC]
  009a4	e2800801	 add         r0, r0, #1, 16
  009a8	eb000000	 bl          AllocPhysMem
  009ac	e58d02fc	 str         r0, [sp, #0x2FC]
  009b0	e59d1048	 ldr         r1, [sp, #0x48]
  009b4	e3a03004	 mov         r3, #4
  009b8	e0020391	 mul         r2, r1, r3
  009bc	e59f38d8	 ldr         r3, [pc, #0x8D8]
  009c0	e0832002	 add         r2, r3, r2
  009c4	e59d32fc	 ldr         r3, [sp, #0x2FC]
  009c8	e5823000	 str         r3, [r2]

; 947  :             block_start[bi] = (real_block_start[bi] &
; 948  :                     (PHYS_ALLOC_MEM_ALIGN - 1)) ?
; 949  :                 (real_block_start[bi] & ~(PHYS_ALLOC_MEM_ALIGN - 1)) +
; 950  :                     PHYS_ALLOC_MEM_ALIGN
; 951  :                 : real_block_start[bi];

  009cc	e59d1048	 ldr         r1, [sp, #0x48]
  009d0	e3a03004	 mov         r3, #4
  009d4	e0020391	 mul         r2, r1, r3
  009d8	e59f38b8	 ldr         r3, [pc, #0x8B8]
  009dc	e0833002	 add         r3, r3, r2
  009e0	e5932000	 ldr         r2, [r3]
  009e4	e3a03cff	 mov         r3, #0xFF, 24
  009e8	e38330ff	 orr         r3, r3, #0xFF
  009ec	e1120003	 tst         r2, r3
  009f0	0a00000b	 beq         |$LN40@CMK_Init|
  009f4	e59d1048	 ldr         r1, [sp, #0x48]
  009f8	e3a03004	 mov         r3, #4
  009fc	e0020391	 mul         r2, r1, r3
  00a00	e59f3890	 ldr         r3, [pc, #0x890]
  00a04	e0833002	 add         r3, r3, r2
  00a08	e5932000	 ldr         r2, [r3]
  00a0c	e3e03cff	 mvn         r3, #0xFF, 24
  00a10	e22330ff	 eor         r3, r3, #0xFF
  00a14	e0023003	 and         r3, r2, r3
  00a18	e2833801	 add         r3, r3, #1, 16
  00a1c	e58d3300	 str         r3, [sp, #0x300]
  00a20	ea000006	 b           |$LN41@CMK_Init|
  00a24		 |$LN40@CMK_Init|
  00a24	e59d1048	 ldr         r1, [sp, #0x48]
  00a28	e3a03004	 mov         r3, #4
  00a2c	e0020391	 mul         r2, r1, r3
  00a30	e59f3860	 ldr         r3, [pc, #0x860]
  00a34	e0833002	 add         r3, r3, r2
  00a38	e5933000	 ldr         r3, [r3]
  00a3c	e58d3300	 str         r3, [sp, #0x300]
  00a40		 |$LN41@CMK_Init|
  00a40	e59d1048	 ldr         r1, [sp, #0x48]
  00a44	e3a03004	 mov         r3, #4
  00a48	e0020391	 mul         r2, r1, r3
  00a4c	e59f37e8	 ldr         r3, [pc, #0x7E8]
  00a50	e0832002	 add         r2, r3, r2
  00a54	e59d3300	 ldr         r3, [sp, #0x300]
  00a58	e5823000	 str         r3, [r2]

; 952  : 
; 953  :             block_virtp[bi] = real_block_virtp[bi] +
; 954  :                 (block_start[bi] - real_block_start[bi]);

  00a5c	e59d1048	 ldr         r1, [sp, #0x48]
  00a60	e3a03004	 mov         r3, #4
  00a64	e0020391	 mul         r2, r1, r3
  00a68	e59f382c	 ldr         r3, [pc, #0x82C]
  00a6c	e083e002	 add         lr, r3, r2
  00a70	e59d1048	 ldr         r1, [sp, #0x48]
  00a74	e3a03004	 mov         r3, #4
  00a78	e0020391	 mul         r2, r1, r3
  00a7c	e59f37b8	 ldr         r3, [pc, #0x7B8]
  00a80	e0830002	 add         r0, r3, r2
  00a84	e59d1048	 ldr         r1, [sp, #0x48]
  00a88	e3a03004	 mov         r3, #4
  00a8c	e0020391	 mul         r2, r1, r3
  00a90	e59f3800	 ldr         r3, [pc, #0x800]
  00a94	e0833002	 add         r3, r3, r2
  00a98	e5902000	 ldr         r2, [r0]
  00a9c	e5933000	 ldr         r3, [r3]
  00aa0	e0422003	 sub         r2, r2, r3
  00aa4	e59e3000	 ldr         r3, [lr]
  00aa8	e0830002	 add         r0, r3, r2
  00aac	e59d1048	 ldr         r1, [sp, #0x48]
  00ab0	e3a03004	 mov         r3, #4
  00ab4	e0020391	 mul         r2, r1, r3
  00ab8	e59f375c	 ldr         r3, [pc, #0x75C]
  00abc	e0833002	 add         r3, r3, r2
  00ac0	e5830000	 str         r0, [r3]

; 955  : 
; 956  :             block_end[bi] += block_start[bi];

  00ac4	e59d1048	 ldr         r1, [sp, #0x48]
  00ac8	e3a03004	 mov         r3, #4
  00acc	e0020391	 mul         r2, r1, r3
  00ad0	e59f3768	 ldr         r3, [pc, #0x768]
  00ad4	e0830002	 add         r0, r3, r2
  00ad8	e59d1048	 ldr         r1, [sp, #0x48]
  00adc	e3a03004	 mov         r3, #4
  00ae0	e0020391	 mul         r2, r1, r3
  00ae4	e59f3750	 ldr         r3, [pc, #0x750]
  00ae8	e0833002	 add         r3, r3, r2
  00aec	e5902000	 ldr         r2, [r0]
  00af0	e5933000	 ldr         r3, [r3]
  00af4	e0820003	 add         r0, r2, r3
  00af8	e59d1048	 ldr         r1, [sp, #0x48]
  00afc	e3a03004	 mov         r3, #4
  00b00	e0020391	 mul         r2, r1, r3
  00b04	e59f3734	 ldr         r3, [pc, #0x734]
  00b08	e0833002	 add         r3, r3, r2
  00b0c	e5830000	 str         r0, [r3]

; 957  :             mem_alloc_type[bi] = ALLOCPHYSMEM;

  00b10	e59d1048	 ldr         r1, [sp, #0x48]
  00b14	e3a03004	 mov         r3, #4
  00b18	e0020391	 mul         r2, r1, r3
  00b1c	e59f36fc	 ldr         r3, [pc, #0x6FC]
  00b20	e0832002	 add         r2, r3, r2
  00b24	e3a03001	 mov         r3, #1
  00b28	e5823000	 str         r3, [r2]
  00b2c		 |$LN20@CMK_Init|

; 958  :         }
; 959  : 
; 960  :         if (block_virtp[bi] == 0) {

  00b2c	e59d1048	 ldr         r1, [sp, #0x48]
  00b30	e3a03004	 mov         r3, #4
  00b34	e0020391	 mul         r2, r1, r3
  00b38	e59f36dc	 ldr         r3, [pc, #0x6DC]
  00b3c	e0833002	 add         r3, r3, r2
  00b40	e5933000	 ldr         r3, [r3]
  00b44	e3530000	 cmp         r3, #0
  00b48	1a00000c	 bne         |$LN19@CMK_Init|

; 961  : #ifdef NOCACHE
; 962  :             __E("Failed to allocate contiguous memory (non-cached) (%#lx, %ld)\n",
; 963  :                     block_start[bi], length);

  00b4c	e59d200c	 ldr         r2, [sp, #0xC]
  00b50	e59d0048	 ldr         r0, [sp, #0x48]
  00b54	e3a03004	 mov         r3, #4
  00b58	e0010390	 mul         r1, r0, r3
  00b5c	e59f36d8	 ldr         r3, [pc, #0x6D8]
  00b60	e0833001	 add         r3, r3, r1
  00b64	e5931000	 ldr         r1, [r3]
  00b68	e59f0724	 ldr         r0, [pc, #0x724]
  00b6c	eb000000	 bl          NKDbgPrintfW

; 964  : #else
; 965  :             __E("Failed to allocate contiguous memory (cached) (%#lx, %ld)\n",
; 966  :                     block_start[bi], length);
; 967  : #endif
; 968  :             err = 0;

  00b70	e3a03000	 mov         r3, #0
  00b74	e58d3044	 str         r3, [sp, #0x44]

; 969  :             goto fail_after_create;

  00b78	ea00019d	 b           |$fail_after_create$40493|

; 970  :         }
; 971  :         else {

  00b7c	ea00000e	 b           |$LN18@CMK_Init|
  00b80		 |$LN19@CMK_Init|

; 972  : #ifdef NOCACHE
; 973  :             __D("Allocate contiguous memory (non-cached)(%#lx, %ld)=%#lx\n",
; 974  :                     block_start[bi], length, block_virtp[bi]);

  00b80	e59d1048	 ldr         r1, [sp, #0x48]
  00b84	e3a03004	 mov         r3, #4
  00b88	e0020391	 mul         r2, r1, r3
  00b8c	e59f3688	 ldr         r3, [pc, #0x688]
  00b90	e0833002	 add         r3, r3, r2
  00b94	e5933000	 ldr         r3, [r3]
  00b98	e59d200c	 ldr         r2, [sp, #0xC]
  00b9c	e59de048	 ldr         lr, [sp, #0x48]
  00ba0	e3a01004	 mov         r1, #4
  00ba4	e000019e	 mul         r0, lr, r1
  00ba8	e59f168c	 ldr         r1, [pc, #0x68C]
  00bac	e0811000	 add         r1, r1, r0
  00bb0	e5911000	 ldr         r1, [r1]
  00bb4	e59f06d4	 ldr         r0, [pc, #0x6D4]
  00bb8	eb000000	 bl          NKDbgPrintfW
  00bbc		 |$LN18@CMK_Init|

; 975  : #else
; 976  :             __D("allocate contiguous memory (cached)(%#lx, %ld)=%#lx\n",
; 977  :                     block_start[bi], length, block_virtp[bi]);
; 978  : #endif
; 979  :         }
; 980  : 
; 981  :         block_virtoff[bi] = block_virtp[bi] - block_start[bi];

  00bbc	e59d1048	 ldr         r1, [sp, #0x48]
  00bc0	e3a03004	 mov         r3, #4
  00bc4	e0020391	 mul         r2, r1, r3
  00bc8	e59f364c	 ldr         r3, [pc, #0x64C]
  00bcc	e0830002	 add         r0, r3, r2
  00bd0	e59d1048	 ldr         r1, [sp, #0x48]
  00bd4	e3a03004	 mov         r3, #4
  00bd8	e0020391	 mul         r2, r1, r3
  00bdc	e59f3658	 ldr         r3, [pc, #0x658]
  00be0	e0833002	 add         r3, r3, r2
  00be4	e5902000	 ldr         r2, [r0]
  00be8	e5933000	 ldr         r3, [r3]
  00bec	e0420003	 sub         r0, r2, r3
  00bf0	e59d1048	 ldr         r1, [sp, #0x48]
  00bf4	e3a03004	 mov         r3, #4
  00bf8	e0020391	 mul         r2, r1, r3
  00bfc	e59f3688	 ldr         r3, [pc, #0x688]
  00c00	e0833002	 add         r3, r3, r2
  00c04	e5830000	 str         r0, [r3]

; 982  :         block_virtend[bi] = block_virtp[bi] + length;

  00c08	e59d1048	 ldr         r1, [sp, #0x48]
  00c0c	e3a03004	 mov         r3, #4
  00c10	e0020391	 mul         r2, r1, r3
  00c14	e59f3600	 ldr         r3, [pc, #0x600]
  00c18	e0833002	 add         r3, r3, r2
  00c1c	e5932000	 ldr         r2, [r3]
  00c20	e59d300c	 ldr         r3, [sp, #0xC]
  00c24	e0820003	 add         r0, r2, r3
  00c28	e59d1048	 ldr         r1, [sp, #0x48]
  00c2c	e3a03004	 mov         r3, #4
  00c30	e0020391	 mul         r2, r1, r3
  00c34	e59f364c	 ldr         r3, [pc, #0x64C]
  00c38	e0833002	 add         r3, r3, r2
  00c3c	e5830000	 str         r0, [r3]

; 983  : 
; 984  :         memset((PUCHAR)block_virtp[bi], 0, length);

  00c40	e59d200c	 ldr         r2, [sp, #0xC]
  00c44	e3a01000	 mov         r1, #0
  00c48	e59de048	 ldr         lr, [sp, #0x48]
  00c4c	e3a03004	 mov         r3, #4
  00c50	e000039e	 mul         r0, lr, r3
  00c54	e59f35c0	 ldr         r3, [pc, #0x5C0]
  00c58	e0833000	 add         r3, r3, r0
  00c5c	e5930000	 ldr         r0, [r3]
  00c60	eb000000	 bl          memset

; 985  : 
; 986  :         /* Parse and allocate the pools */
; 987  :         for (i = 0; i < npools[bi]; i++) {

  00c64	e3a03000	 mov         r3, #0
  00c68	e58d3014	 str         r3, [sp, #0x14]
  00c6c	ea000002	 b           |$LN17@CMK_Init|
  00c70		 |$LN16@CMK_Init|
  00c70	e59d3014	 ldr         r3, [sp, #0x14]
  00c74	e2833001	 add         r3, r3, #1
  00c78	e58d3014	 str         r3, [sp, #0x14]
  00c7c		 |$LN17@CMK_Init|
  00c7c	e59d1048	 ldr         r1, [sp, #0x48]
  00c80	e3a03004	 mov         r3, #4
  00c84	e0020391	 mul         r2, r1, r3
  00c88	e59f35a8	 ldr         r3, [pc, #0x5A8]
  00c8c	e0833002	 add         r3, r3, r2
  00c90	e59d2014	 ldr         r2, [sp, #0x14]
  00c94	e5933000	 ldr         r3, [r3]
  00c98	e1520003	 cmp         r2, r3
  00c9c	aa00006a	 bge         |$LN15@CMK_Init|

; 988  :             TCHAR tszRegKey[256];
; 989  :             dwDataSize = sizeof(pool_num_buffers);

  00ca0	e3a03004	 mov         r3, #4
  00ca4	e58d304c	 str         r3, [sp, #0x4C]

; 990  :             if (StringCchPrintf(tszRegKey, 256, TEXT("%s%d_%s%d"),
; 991  :                         CMEMK_REG_KEY_BLOCK, bi, CMEMK_REG_KEY_NUM_BUFFERS, i)
; 992  :                     != S_OK) {

  00ca8	e59d3014	 ldr         r3, [sp, #0x14]
  00cac	e58d3008	 str         r3, [sp, #8]
  00cb0	e59f35cc	 ldr         r3, [pc, #0x5CC]
  00cb4	e58d3004	 str         r3, [sp, #4]
  00cb8	e59d3048	 ldr         r3, [sp, #0x48]
  00cbc	e58d3000	 str         r3, [sp]
  00cc0	e59f35b0	 ldr         r3, [pc, #0x5B0]
  00cc4	e59f25a8	 ldr         r2, [pc, #0x5A8]
  00cc8	e3a01c01	 mov         r1, #1, 24
  00ccc	e28d005c	 add         r0, sp, #0x5C
  00cd0	eb000000	 bl          StringCchPrintfW
  00cd4	e58d0304	 str         r0, [sp, #0x304]
  00cd8	e59d3304	 ldr         r3, [sp, #0x304]
  00cdc	e3530000	 cmp         r3, #0
  00ce0	0a000001	 beq         |$LN14@CMK_Init|

; 993  :                 RETAILMSG(1, (TEXT("ERROR: CMEMK init(): StringCchPrintf (NUM_BUFFERS) failed!!!\r\n")));

  00ce4	e59f0594	 ldr         r0, [pc, #0x594]
  00ce8	eb000000	 bl          NKDbgPrintfW
  00cec		 |$LN14@CMK_Init|

; 994  :             }
; 995  :             if (RegQueryValueEx(hKey, tszRegKey, NULL, NULL,
; 996  :                         (LPBYTE)&pool_num_buffers, &dwDataSize) !=
; 997  :                     ERROR_SUCCESS) {

  00cec	e28d304c	 add         r3, sp, #0x4C
  00cf0	e58d3004	 str         r3, [sp, #4]
  00cf4	e28d3018	 add         r3, sp, #0x18
  00cf8	e58d3000	 str         r3, [sp]
  00cfc	e3a03000	 mov         r3, #0
  00d00	e3a02000	 mov         r2, #0
  00d04	e28d105c	 add         r1, sp, #0x5C
  00d08	e59d0010	 ldr         r0, [sp, #0x10]
  00d0c	eb000000	 bl          RegQueryValueExW
  00d10	e58d0308	 str         r0, [sp, #0x308]
  00d14	e59d3308	 ldr         r3, [sp, #0x308]
  00d18	e3530000	 cmp         r3, #0
  00d1c	0a000004	 beq         |$LN13@CMK_Init|

; 998  :                 __E("CMEMK: cannot open registry key: %s!\n", tszRegKey);

  00d20	e28d105c	 add         r1, sp, #0x5C
  00d24	e59f0540	 ldr         r0, [pc, #0x540]
  00d28	eb000000	 bl          NKDbgPrintfW

; 999  :                 pool_num_buffers = 0;

  00d2c	e3a03000	 mov         r3, #0
  00d30	e58d3018	 str         r3, [sp, #0x18]
  00d34		 |$LN13@CMK_Init|

; 1000 :             }
; 1001 : 
; 1002 :             if (StringCchPrintf(tszRegKey, 256, TEXT("%s%d_%s%d"),
; 1003 :                         CMEMK_REG_KEY_BLOCK, bi, CMEMK_REG_KEY_POOL_SIZE, i)
; 1004 :                     != S_OK) {

  00d34	e59d3014	 ldr         r3, [sp, #0x14]
  00d38	e58d3008	 str         r3, [sp, #8]
  00d3c	e59f3538	 ldr         r3, [pc, #0x538]
  00d40	e58d3004	 str         r3, [sp, #4]
  00d44	e59d3048	 ldr         r3, [sp, #0x48]
  00d48	e58d3000	 str         r3, [sp]
  00d4c	e59f3524	 ldr         r3, [pc, #0x524]
  00d50	e59f251c	 ldr         r2, [pc, #0x51C]
  00d54	e3a01c01	 mov         r1, #1, 24
  00d58	e28d005c	 add         r0, sp, #0x5C
  00d5c	eb000000	 bl          StringCchPrintfW
  00d60	e58d030c	 str         r0, [sp, #0x30C]
  00d64	e59d330c	 ldr         r3, [sp, #0x30C]
  00d68	e3530000	 cmp         r3, #0
  00d6c	0a000001	 beq         |$LN12@CMK_Init|

; 1005 :                 RETAILMSG(1, (TEXT("ERROR: CMEMK init(): StringCchPrintf (POOL_SIZE) failed!!!\r\n")));

  00d70	e59f04f8	 ldr         r0, [pc, #0x4F8]
  00d74	eb000000	 bl          NKDbgPrintfW
  00d78		 |$LN12@CMK_Init|

; 1006 :             }
; 1007 :             dwDataSize = sizeof(pool_size);

  00d78	e3a03004	 mov         r3, #4
  00d7c	e58d304c	 str         r3, [sp, #0x4C]

; 1008 :             if (RegQueryValueEx(hKey, tszRegKey, NULL, NULL,
; 1009 :                         (LPBYTE)&pool_size, &dwDataSize) != ERROR_SUCCESS) {

  00d80	e28d304c	 add         r3, sp, #0x4C
  00d84	e58d3004	 str         r3, [sp, #4]
  00d88	e28d3040	 add         r3, sp, #0x40
  00d8c	e58d3000	 str         r3, [sp]
  00d90	e3a03000	 mov         r3, #0
  00d94	e3a02000	 mov         r2, #0
  00d98	e28d105c	 add         r1, sp, #0x5C
  00d9c	e59d0010	 ldr         r0, [sp, #0x10]
  00da0	eb000000	 bl          RegQueryValueExW
  00da4	e58d0310	 str         r0, [sp, #0x310]
  00da8	e59d3310	 ldr         r3, [sp, #0x310]
  00dac	e3530000	 cmp         r3, #0
  00db0	0a000004	 beq         |$LN11@CMK_Init|

; 1010 :                 __E("CMEMK: cannot open registry key: %s!\n", tszRegKey);

  00db4	e28d105c	 add         r1, sp, #0x5C
  00db8	e59f04ac	 ldr         r0, [pc, #0x4AC]
  00dbc	eb000000	 bl          NKDbgPrintfW

; 1011 :                 pool_size = 0;

  00dc0	e3a03000	 mov         r3, #0
  00dc4	e58d3040	 str         r3, [sp, #0x40]
  00dc8		 |$LN11@CMK_Init|

; 1012 :             }
; 1013 : 
; 1014 :             if (alloc_pool(bi, i, pool_num_buffers, pool_size, NULL) < 0) {

  00dc8	e3a03000	 mov         r3, #0
  00dcc	e58d3000	 str         r3, [sp]
  00dd0	e59d3040	 ldr         r3, [sp, #0x40]
  00dd4	e59d2018	 ldr         r2, [sp, #0x18]
  00dd8	e59d1014	 ldr         r1, [sp, #0x14]
  00ddc	e59d0048	 ldr         r0, [sp, #0x48]
  00de0	eb000000	 bl          alloc_pool
  00de4	e58d0314	 str         r0, [sp, #0x314]
  00de8	e59d3314	 ldr         r3, [sp, #0x314]
  00dec	e3530000	 cmp         r3, #0
  00df0	aa000006	 bge         |$LN10@CMK_Init|

; 1015 :                 __E("Failed to alloc pool of size %d and number of buffers %d\n",
; 1016 :                         pool_size, pool_num_buffers);

  00df4	e59d2018	 ldr         r2, [sp, #0x18]
  00df8	e59d1040	 ldr         r1, [sp, #0x40]
  00dfc	e59f0464	 ldr         r0, [pc, #0x464]
  00e00	eb000000	 bl          NKDbgPrintfW

; 1017 :                 err = 0;

  00e04	e3a03000	 mov         r3, #0
  00e08	e58d3044	 str         r3, [sp, #0x44]

; 1018 :                 goto fail_after_ioremap;

  00e0c	ea0000c9	 b           |$fail_after_ioremap$40540|
  00e10		 |$LN10@CMK_Init|

; 1019 :             }
; 1020 : 
; 1021 :             total_num_buffers[bi] += pool_num_buffers;

  00e10	e59d1048	 ldr         r1, [sp, #0x48]
  00e14	e3a03004	 mov         r3, #4
  00e18	e0020391	 mul         r2, r1, r3
  00e1c	e59f3440	 ldr         r3, [pc, #0x440]
  00e20	e0833002	 add         r3, r3, r2
  00e24	e5932000	 ldr         r2, [r3]
  00e28	e59d3018	 ldr         r3, [sp, #0x18]
  00e2c	e0820003	 add         r0, r2, r3
  00e30	e59d1048	 ldr         r1, [sp, #0x48]
  00e34	e3a03004	 mov         r3, #4
  00e38	e0020391	 mul         r2, r1, r3
  00e3c	e59f3420	 ldr         r3, [pc, #0x420]
  00e40	e0833002	 add         r3, r3, r2
  00e44	e5830000	 str         r0, [r3]

; 1022 :         }

  00e48	eaffff88	 b           |$LN16@CMK_Init|
  00e4c		 |$LN15@CMK_Init|

; 1023 : 
; 1024 :         /* use whatever is left for the heap */
; 1025 :         heap_size[bi] = block_avail_size[bi] & PAGE_MASK;

  00e4c	e59d1048	 ldr         r1, [sp, #0x48]
  00e50	e3a03004	 mov         r3, #4
  00e54	e0020391	 mul         r2, r1, r3
  00e58	e59f33c4	 ldr         r3, [pc, #0x3C4]
  00e5c	e0831002	 add         r1, r3, r2
  00e60	e59f33f8	 ldr         r3, [pc, #0x3F8]
  00e64	e5933000	 ldr         r3, [r3]
  00e68	e2433001	 sub         r3, r3, #1
  00e6c	e1e02003	 mvn         r2, r3
  00e70	e5913000	 ldr         r3, [r1]
  00e74	e0030002	 and         r0, r3, r2
  00e78	e59d1048	 ldr         r1, [sp, #0x48]
  00e7c	e3a03004	 mov         r3, #4
  00e80	e0020391	 mul         r2, r1, r3
  00e84	e59f33c0	 ldr         r3, [pc, #0x3C0]
  00e88	e0833002	 add         r3, r3, r2
  00e8c	e5830000	 str         r0, [r3]

; 1026 :         heap_pool[bi] = npools[bi];

  00e90	e59d1048	 ldr         r1, [sp, #0x48]
  00e94	e3a03004	 mov         r3, #4
  00e98	e0020391	 mul         r2, r1, r3
  00e9c	e59f3394	 ldr         r3, [pc, #0x394]
  00ea0	e0830002	 add         r0, r3, r2
  00ea4	e59d1048	 ldr         r1, [sp, #0x48]
  00ea8	e3a03004	 mov         r3, #4
  00eac	e0020391	 mul         r2, r1, r3
  00eb0	e59f33a4	 ldr         r3, [pc, #0x3A4]
  00eb4	e0832002	 add         r2, r3, r2
  00eb8	e5903000	 ldr         r3, [r0]
  00ebc	e5823000	 str         r3, [r2]

; 1027 :         if (heap_size[bi] > 0) {

  00ec0	e59d1048	 ldr         r1, [sp, #0x48]
  00ec4	e3a03004	 mov         r3, #4
  00ec8	e0020391	 mul         r2, r1, r3
  00ecc	e59f3378	 ldr         r3, [pc, #0x378]
  00ed0	e0833002	 add         r3, r3, r2
  00ed4	e5933000	 ldr         r3, [r3]
  00ed8	e3530000	 cmp         r3, #0
  00edc	9a000059	 bls         |$LN9@CMK_Init|

; 1028 :             err = alloc_pool(bi, heap_pool[bi], 1, heap_size[bi],
; 1029 :                     &heap_virtp[bi]);

  00ee0	e59d1048	 ldr         r1, [sp, #0x48]
  00ee4	e3a03004	 mov         r3, #4
  00ee8	e0020391	 mul         r2, r1, r3
  00eec	e59f335c	 ldr         r3, [pc, #0x35C]
  00ef0	e0833002	 add         r3, r3, r2
  00ef4	e58d3000	 str         r3, [sp]
  00ef8	e59d1048	 ldr         r1, [sp, #0x48]
  00efc	e3a03004	 mov         r3, #4
  00f00	e0020391	 mul         r2, r1, r3
  00f04	e59f3340	 ldr         r3, [pc, #0x340]
  00f08	e0833002	 add         r3, r3, r2
  00f0c	e5933000	 ldr         r3, [r3]
  00f10	e3a02001	 mov         r2, #1
  00f14	e59de048	 ldr         lr, [sp, #0x48]
  00f18	e3a01004	 mov         r1, #4
  00f1c	e000019e	 mul         r0, lr, r1
  00f20	e59f1334	 ldr         r1, [pc, #0x334]
  00f24	e0811000	 add         r1, r1, r0
  00f28	e5911000	 ldr         r1, [r1]
  00f2c	e59d0048	 ldr         r0, [sp, #0x48]
  00f30	eb000000	 bl          alloc_pool
  00f34	e58d0318	 str         r0, [sp, #0x318]
  00f38	e59d3318	 ldr         r3, [sp, #0x318]
  00f3c	e58d3044	 str         r3, [sp, #0x44]

; 1030 :             if (err < 0) {

  00f40	e59d3044	 ldr         r3, [sp, #0x44]
  00f44	e3530000	 cmp         r3, #0
  00f48	aa000008	 bge         |$LN8@CMK_Init|

; 1031 :                 __E("Failed to alloc heap of size %#lx\n", heap_size[bi]);

  00f4c	e59d1048	 ldr         r1, [sp, #0x48]
  00f50	e3a03004	 mov         r3, #4
  00f54	e0020391	 mul         r2, r1, r3
  00f58	e59f32ec	 ldr         r3, [pc, #0x2EC]
  00f5c	e0833002	 add         r3, r3, r2
  00f60	e5931000	 ldr         r1, [r3]
  00f64	e59f02ec	 ldr         r0, [pc, #0x2EC]
  00f68	eb000000	 bl          NKDbgPrintfW

; 1032 :                 goto fail_after_ioremap;

  00f6c	ea000071	 b           |$fail_after_ioremap$40540|
  00f70		 |$LN8@CMK_Init|

; 1033 :             }
; 1034 :             __D("allocated heap buffer %#lx of size %#lx\n", heap_virtp[bi],
; 1035 :                     heap_size[bi]);

  00f70	e59d1048	 ldr         r1, [sp, #0x48]
  00f74	e3a03004	 mov         r3, #4
  00f78	e0020391	 mul         r2, r1, r3
  00f7c	e59f32c8	 ldr         r3, [pc, #0x2C8]
  00f80	e0833002	 add         r3, r3, r2
  00f84	e5932000	 ldr         r2, [r3]
  00f88	e59d0048	 ldr         r0, [sp, #0x48]
  00f8c	e3a03004	 mov         r3, #4
  00f90	e0010390	 mul         r1, r0, r3
  00f94	e59f32b4	 ldr         r3, [pc, #0x2B4]
  00f98	e0833001	 add         r3, r3, r1
  00f9c	e5931000	 ldr         r1, [r3]
  00fa0	e59f02ac	 ldr         r0, [pc, #0x2AC]
  00fa4	eb000000	 bl          NKDbgPrintfW

; 1036 :             header = (HeapMem_Header *)heap_virtp[bi];

  00fa8	e59d1048	 ldr         r1, [sp, #0x48]
  00fac	e3a03004	 mov         r3, #4
  00fb0	e0020391	 mul         r2, r1, r3
  00fb4	e59f3294	 ldr         r3, [pc, #0x294]
  00fb8	e0833002	 add         r3, r3, r2
  00fbc	e5933000	 ldr         r3, [r3]
  00fc0	e58d3050	 str         r3, [sp, #0x50]

; 1037 :             heap_head[bi].next = header;

  00fc4	e59d1048	 ldr         r1, [sp, #0x48]
  00fc8	e3a03008	 mov         r3, #8
  00fcc	e0020391	 mul         r2, r1, r3
  00fd0	e59f326c	 ldr         r3, [pc, #0x26C]
  00fd4	e0832002	 add         r2, r3, r2
  00fd8	e59d3050	 ldr         r3, [sp, #0x50]
  00fdc	e5823000	 str         r3, [r2]

; 1038 :             heap_head[bi].size = heap_size[bi];

  00fe0	e59d1048	 ldr         r1, [sp, #0x48]
  00fe4	e3a03004	 mov         r3, #4
  00fe8	e0020391	 mul         r2, r1, r3
  00fec	e59f3258	 ldr         r3, [pc, #0x258]
  00ff0	e0830002	 add         r0, r3, r2
  00ff4	e59d1048	 ldr         r1, [sp, #0x48]
  00ff8	e3a03008	 mov         r3, #8
  00ffc	e0020391	 mul         r2, r1, r3
  01000	e59f323c	 ldr         r3, [pc, #0x23C]
  01004	e0833002	 add         r3, r3, r2
  01008	e2832004	 add         r2, r3, #4
  0100c	e5903000	 ldr         r3, [r0]
  01010	e5823000	 str         r3, [r2]

; 1039 :             header->next = NULL;

  01014	e59d2050	 ldr         r2, [sp, #0x50]
  01018	e3a03000	 mov         r3, #0
  0101c	e5823000	 str         r3, [r2]

; 1040 :             header->size = heap_size[bi];

  01020	e59d1048	 ldr         r1, [sp, #0x48]
  01024	e3a03004	 mov         r3, #4
  01028	e0020391	 mul         r2, r1, r3
  0102c	e59f3218	 ldr         r3, [pc, #0x218]
  01030	e0831002	 add         r1, r3, r2
  01034	e59d3050	 ldr         r3, [sp, #0x50]
  01038	e2832004	 add         r2, r3, #4
  0103c	e5913000	 ldr         r3, [r1]
  01040	e5823000	 str         r3, [r2]

; 1041 :         }
; 1042 :         else {

  01044	ea000010	 b           |$LN7@CMK_Init|
  01048		 |$LN9@CMK_Init|

; 1043 :             __D("no remaining memory for heap, no heap created for memory block %d\n", bi);

  01048	e59d1048	 ldr         r1, [sp, #0x48]
  0104c	e59f01f4	 ldr         r0, [pc, #0x1F4]
  01050	eb000000	 bl          NKDbgPrintfW

; 1044 :             heap_head[bi].next = NULL;

  01054	e59d1048	 ldr         r1, [sp, #0x48]
  01058	e3a03008	 mov         r3, #8
  0105c	e0020391	 mul         r2, r1, r3
  01060	e59f31dc	 ldr         r3, [pc, #0x1DC]
  01064	e0832002	 add         r2, r3, r2
  01068	e3a03000	 mov         r3, #0
  0106c	e5823000	 str         r3, [r2]

; 1045 :             heap_head[bi].next = 0;

  01070	e59d1048	 ldr         r1, [sp, #0x48]
  01074	e3a03008	 mov         r3, #8
  01078	e0020391	 mul         r2, r1, r3
  0107c	e59f31c0	 ldr         r3, [pc, #0x1C0]
  01080	e0832002	 add         r2, r3, r2
  01084	e3a03000	 mov         r3, #0
  01088	e5823000	 str         r3, [r2]
  0108c		 |$LN7@CMK_Init|

; 1046 :         }
; 1047 : 
; 1048 :         __D("cmem initialized %d pools between %#lx and %#lx\n", npools[bi],
; 1049 :                 block_start[bi], block_end[bi]);

  0108c	e59d1048	 ldr         r1, [sp, #0x48]
  01090	e3a03004	 mov         r3, #4
  01094	e0020391	 mul         r2, r1, r3
  01098	e59f31a0	 ldr         r3, [pc, #0x1A0]
  0109c	e0833002	 add         r3, r3, r2
  010a0	e5933000	 ldr         r3, [r3]
  010a4	e59d0048	 ldr         r0, [sp, #0x48]
  010a8	e3a02004	 mov         r2, #4
  010ac	e0010290	 mul         r1, r0, r2
  010b0	e59f2184	 ldr         r2, [pc, #0x184]
  010b4	e0822001	 add         r2, r2, r1
  010b8	e5922000	 ldr         r2, [r2]
  010bc	e59de048	 ldr         lr, [sp, #0x48]
  010c0	e3a01004	 mov         r1, #4
  010c4	e000019e	 mul         r0, lr, r1
  010c8	e59f1168	 ldr         r1, [pc, #0x168]
  010cc	e0811000	 add         r1, r1, r0
  010d0	e5911000	 ldr         r1, [r1]
  010d4	e59f0158	 ldr         r0, [pc, #0x158]
  010d8	eb000000	 bl          NKDbgPrintfW

; 1050 :     }

  010dc	eafffda2	 b           |$LN26@CMK_Init|
  010e0		 |$LN25@CMK_Init|

; 1051 : 
; 1052 :     /* Initialize list of mapped buffers */
; 1053 :     InitializeListHead(&mappedBufferList);

  010e0	e59f2148	 ldr         r2, [pc, #0x148]
  010e4	e59f3144	 ldr         r3, [pc, #0x144]
  010e8	e5832004	 str         r2, [r3, #4]
  010ec	e59f313c	 ldr         r3, [pc, #0x13C]
  010f0	e5932004	 ldr         r2, [r3, #4]
  010f4	e59f3134	 ldr         r3, [pc, #0x134]
  010f8	e5832000	 str         r2, [r3]

; 1054 : 
; 1055 :     __D("Successfully initialized module\n");

  010fc	e59f0128	 ldr         r0, [pc, #0x128]
  01100	eb000000	 bl          NKDbgPrintfW

; 1056 : 
; 1057 :     RegCloseKey(hKey);

  01104	e59d0010	 ldr         r0, [sp, #0x10]
  01108	eb000000	 bl          RegCloseKey

; 1058 :     CMKDevice.openCount = 0;

  0110c	e59f2114	 ldr         r2, [pc, #0x114]
  01110	e3a03000	 mov         r3, #0
  01114	e5823004	 str         r3, [r2, #4]

; 1059 :     CMKDevice.initialized = TRUE;

  01118	e59f2108	 ldr         r2, [pc, #0x108]
  0111c	e3a03001	 mov         r3, #1
  01120	e5823000	 str         r3, [r2]

; 1060 : 
; 1061 :     return (DWORD)&CMKDevice;

  01124	e59d025c	 ldr         r0, [sp, #0x25C]
  01128	eb000000	 bl          __security_check_cookie
  0112c	e59f30f4	 ldr         r3, [pc, #0xF4]
  01130	e58d3264	 str         r3, [sp, #0x264]
  01134	ea000034	 b           |$LN38@CMK_Init|
  01138		 |$fail_after_ioremap$40540|

; 1062 : 
; 1063 : 
; 1064 :   fail_after_ioremap:
; 1065 :     for (bi = 0; bi < NBLOCKS; bi++) {

  01138	e3a03000	 mov         r3, #0
  0113c	e58d3048	 str         r3, [sp, #0x48]
  01140	ea000002	 b           |$LN6@CMK_Init|
  01144		 |$LN5@CMK_Init|
  01144	e59d3048	 ldr         r3, [sp, #0x48]
  01148	e2833001	 add         r3, r3, #1
  0114c	e58d3048	 str         r3, [sp, #0x48]
  01150		 |$LN6@CMK_Init|
  01150	e59d3048	 ldr         r3, [sp, #0x48]
  01154	e3530002	 cmp         r3, #2
  01158	aa000025	 bge         |$LN4@CMK_Init|

; 1066 :         if (mem_alloc_type[bi] == MMMAPIOSPACE) {

  0115c	e59d1048	 ldr         r1, [sp, #0x48]
  01160	e3a03004	 mov         r3, #4
  01164	e0020391	 mul         r2, r1, r3
  01168	e59f30b0	 ldr         r3, [pc, #0xB0]
  0116c	e0833002	 add         r3, r3, r2
  01170	e5933000	 ldr         r3, [r3]
  01174	e3530000	 cmp         r3, #0
  01178	1a00000d	 bne         |$LN3@CMK_Init|

; 1067 :             MmUnmapIoSpace((PVOID)block_virtp[bi], block_avail_size[bi]);

  0117c	e59d1048	 ldr         r1, [sp, #0x48]
  01180	e3a03004	 mov         r3, #4
  01184	e0020391	 mul         r2, r1, r3
  01188	e59f3094	 ldr         r3, [pc, #0x94]
  0118c	e0833002	 add         r3, r3, r2
  01190	e5931000	 ldr         r1, [r3]
  01194	e59d0048	 ldr         r0, [sp, #0x48]
  01198	e3a03004	 mov         r3, #4
  0119c	e0020390	 mul         r2, r0, r3
  011a0	e59f3074	 ldr         r3, [pc, #0x74]
  011a4	e0833002	 add         r3, r3, r2
  011a8	e5930000	 ldr         r0, [r3]
  011ac	eb000000	 bl          MmUnmapIoSpace
  011b0	ea00000e	 b           |$LN2@CMK_Init|
  011b4		 |$LN3@CMK_Init|

; 1068 :         }
; 1069 :         else if (mem_alloc_type[bi] == ALLOCPHYSMEM) {

  011b4	e59d1048	 ldr         r1, [sp, #0x48]
  011b8	e3a03004	 mov         r3, #4
  011bc	e0020391	 mul         r2, r1, r3
  011c0	e59f3058	 ldr         r3, [pc, #0x58]
  011c4	e0833002	 add         r3, r3, r2
  011c8	e5933000	 ldr         r3, [r3]
  011cc	e3530001	 cmp         r3, #1
  011d0	1a000006	 bne         |$LN1@CMK_Init|

; 1070 :             FreePhysMem((LPVOID)block_virtp[bi]);

  011d4	e59d1048	 ldr         r1, [sp, #0x48]
  011d8	e3a03004	 mov         r3, #4
  011dc	e0020391	 mul         r2, r1, r3
  011e0	e59f3034	 ldr         r3, [pc, #0x34]
  011e4	e0833002	 add         r3, r3, r2
  011e8	e5930000	 ldr         r0, [r3]
  011ec	eb000000	 bl          FreePhysMem
  011f0		 |$LN1@CMK_Init|
  011f0		 |$LN2@CMK_Init|

; 1071 :         }
; 1072 :     }

  011f0	eaffffd3	 b           |$LN5@CMK_Init|
  011f4		 |$LN4@CMK_Init|
  011f4		 |$fail_after_create$40493|

; 1073 : 
; 1074 :   fail_after_create:
; 1075 : //fail_after_reg:
; 1076 :     RegCloseKey(hKey);

  011f4	e59d0010	 ldr         r0, [sp, #0x10]
  011f8	eb000000	 bl          RegCloseKey

; 1077 :     return 0;

  011fc	e59d025c	 ldr         r0, [sp, #0x25C]
  01200	eb000000	 bl          __security_check_cookie
  01204	e3a03000	 mov         r3, #0
  01208	e58d3264	 str         r3, [sp, #0x264]
  0120c		 |$LN38@CMK_Init|

; 1078 : }

  0120c	e59d0264	 ldr         r0, [sp, #0x264]
  01210	e28ddfc7	 add         sp, sp, #0xC7, 30
  01214	e89d6000	 ldmia       sp, {sp, lr}
  01218	e12fff1e	 bx          lr
  0121c		 |$LN45@CMK_Init|
  0121c		 |$LN46@CMK_Init|
  0121c	00000000	 DCD         |block_virtp|
  01220		 |$LN47@CMK_Init|
  01220	00000000	 DCD         |mem_alloc_type|
  01224		 |$LN48@CMK_Init|
  01224	00000000	 DCD         |block_avail_size|
  01228		 |$LN49@CMK_Init|
  01228	00000000	 DCD         |CMKDevice|
  0122c		 |$LN50@CMK_Init|
  0122c	00000000	 DCD         |??_C@_1FM@JFOFNLID@?$AAC?$AAM?$AAE?$AAM?$AAK?$AA?5?$AAD?$AAe?$AAb?$AAu?$AAg?$AA?3?$AA?5?$AAS?$AAu?$AAc?$AAc?$AAe?$AAs?$AAs?$AAf?$AAu?$AAl?$AAl?$AAy?$AA?5?$AAi?$AAn?$AAi?$AAt?$AAi?$AAa@|
  01230		 |$LN51@CMK_Init|
  01230	00000000	 DCD         |mappedBufferList|
  01234		 |$LN52@CMK_Init|
  01234	00000000	 DCD         |??_C@_1HM@JGDEPHGO@?$AAC?$AAM?$AAE?$AAM?$AAK?$AA?5?$AAD?$AAe?$AAb?$AAu?$AAg?$AA?3?$AA?5?$AAc?$AAm?$AAe?$AAm?$AA?5?$AAi?$AAn?$AAi?$AAt?$AAi?$AAa?$AAl?$AAi?$AAz?$AAe?$AAd?$AA?5?$AA?$CF?$AAd@|
  01238		 |$LN53@CMK_Init|
  01238	00000000	 DCD         |npools|
  0123c		 |$LN54@CMK_Init|
  0123c	00000000	 DCD         |block_start|
  01240		 |$LN55@CMK_Init|
  01240	00000000	 DCD         |block_end|
  01244		 |$LN56@CMK_Init|
  01244	00000000	 DCD         |heap_head|
  01248		 |$LN57@CMK_Init|
  01248	00000000	 DCD         |??_C@_1KA@DANNKMFI@?$AAC?$AAM?$AAE?$AAM?$AAK?$AA?5?$AAD?$AAe?$AAb?$AAu?$AAg?$AA?3?$AA?5?$AAn?$AAo?$AA?5?$AAr?$AAe?$AAm?$AAa?$AAi?$AAn?$AAi?$AAn?$AAg?$AA?5?$AAm?$AAe?$AAm?$AAo?$AAr?$AAy@|
  0124c		 |$LN58@CMK_Init|
  0124c	00000000	 DCD         |heap_size|
  01250		 |$LN59@CMK_Init|
  01250	00000000	 DCD         |heap_virtp|
  01254		 |$LN60@CMK_Init|
  01254	00000000	 DCD         |??_C@_1GM@EBCKMIOG@?$AAC?$AAM?$AAE?$AAM?$AAK?$AA?5?$AAD?$AAe?$AAb?$AAu?$AAg?$AA?3?$AA?5?$AAa?$AAl?$AAl?$AAo?$AAc?$AAa?$AAt?$AAe?$AAd?$AA?5?$AAh?$AAe?$AAa?$AAp?$AA?5?$AAb?$AAu?$AAf?$AAf@|
  01258		 |$LN61@CMK_Init|
  01258	00000000	 DCD         |??_C@_1GA@EHIEFMCN@?$AAC?$AAM?$AAE?$AAM?$AAK?$AA?5?$AAE?$AAr?$AAr?$AAo?$AAr?$AA?3?$AA?5?$AAF?$AAa?$AAi?$AAl?$AAe?$AAd?$AA?5?$AAt?$AAo?$AA?5?$AAa?$AAl?$AAl?$AAo?$AAc?$AA?5?$AAh?$AAe?$AAa@|
  0125c		 |$LN62@CMK_Init|
  0125c	00000000	 DCD         |heap_pool|
  01260		 |$LN63@CMK_Init|
  01260	00000000	 DCD         |gdwPageSize|
  01264		 |$LN64@CMK_Init|
  01264	00000000	 DCD         |total_num_buffers|
  01268		 |$LN65@CMK_Init|
  01268	00000000	 DCD         |??_C@_1IO@JOGLBBIA@?$AAC?$AAM?$AAE?$AAM?$AAK?$AA?5?$AAE?$AAr?$AAr?$AAo?$AAr?$AA?3?$AA?5?$AAF?$AAa?$AAi?$AAl?$AAe?$AAd?$AA?5?$AAt?$AAo?$AA?5?$AAa?$AAl?$AAl?$AAo?$AAc?$AA?5?$AAp?$AAo?$AAo@|
  0126c		 |$LN66@CMK_Init|
  0126c	00000000	 DCD         |??_C@_1GG@BKOAGPDI@?$AAC?$AAM?$AAE?$AAM?$AAK?$AA?5?$AAE?$AAr?$AAr?$AAo?$AAr?$AA?3?$AA?5?$AAC?$AAM?$AAE?$AAM?$AAK?$AA?3?$AA?5?$AAc?$AAa?$AAn?$AAn?$AAo?$AAt?$AA?5?$AAo?$AAp?$AAe?$AAn?$AA?5@|
  01270		 |$LN67@CMK_Init|
  01270	00000000	 DCD         |??_C@_1HK@PBGLKGFP@?$AAE?$AAR?$AAR?$AAO?$AAR?$AA?3?$AA?5?$AAC?$AAM?$AAE?$AAM?$AAK?$AA?5?$AAi?$AAn?$AAi?$AAt?$AA?$CI?$AA?$CJ?$AA?3?$AA?5?$AAS?$AAt?$AAr?$AAi?$AAn?$AAg?$AAC?$AAc?$AAh?$AAP?$AAr@|
  01274		 |$LN68@CMK_Init|
  01274	00000000	 DCD         |??_C@_1BE@DMMEGEFO@?$AA?$CF?$AAs?$AA?$CF?$AAd?$AA_?$AA?$CF?$AAs?$AA?$CF?$AAd?$AA?$AA@|
  01278		 |$LN69@CMK_Init|
  01278	00000000	 DCD         |??_C@_1M@PICFELOA@?$AAB?$AAl?$AAo?$AAc?$AAk?$AA?$AA@|
  0127c		 |$LN70@CMK_Init|
  0127c	00000000	 DCD         |??_C@_1BM@GDPAOOKP@?$AAP?$AAo?$AAo?$AAl?$AAS?$AAi?$AAz?$AAe?$AA_?$AAP?$AAo?$AAo?$AAl?$AA?$AA@|
  01280		 |$LN71@CMK_Init|
  01280	00000000	 DCD         |??_C@_1HO@CDBIOCIL@?$AAE?$AAR?$AAR?$AAO?$AAR?$AA?3?$AA?5?$AAC?$AAM?$AAE?$AAM?$AAK?$AA?5?$AAi?$AAn?$AAi?$AAt?$AA?$CI?$AA?$CJ?$AA?3?$AA?5?$AAS?$AAt?$AAr?$AAi?$AAn?$AAg?$AAC?$AAc?$AAh?$AAP?$AAr@|
  01284		 |$LN72@CMK_Init|
  01284	00000000	 DCD         |??_C@_1CA@JCJOGNFE@?$AAN?$AAu?$AAm?$AAB?$AAu?$AAf?$AAf?$AAe?$AAr?$AAs?$AA_?$AAP?$AAo?$AAo?$AAl?$AA?$AA@|
  01288		 |$LN73@CMK_Init|
  01288	00000000	 DCD         |block_virtend|
  0128c		 |$LN74@CMK_Init|
  0128c	00000000	 DCD         |block_virtoff|
  01290		 |$LN75@CMK_Init|
  01290	00000000	 DCD         |??_C@_1IM@DKGFCODN@?$AAC?$AAM?$AAE?$AAM?$AAK?$AA?5?$AAD?$AAe?$AAb?$AAu?$AAg?$AA?3?$AA?5?$AAA?$AAl?$AAl?$AAo?$AAc?$AAa?$AAt?$AAe?$AA?5?$AAc?$AAo?$AAn?$AAt?$AAi?$AAg?$AAu?$AAo?$AAu?$AAs@|
  01294		 |$LN76@CMK_Init|
  01294	00000000	 DCD         |??_C@_1JI@POFHIEIK@?$AAC?$AAM?$AAE?$AAM?$AAK?$AA?5?$AAE?$AAr?$AAr?$AAo?$AAr?$AA?3?$AA?5?$AAF?$AAa?$AAi?$AAl?$AAe?$AAd?$AA?5?$AAt?$AAo?$AA?5?$AAa?$AAl?$AAl?$AAo?$AAc?$AAa?$AAt?$AAe?$AA?5@|
  01298		 |$LN77@CMK_Init|
  01298	00000000	 DCD         |real_block_start|
  0129c		 |$LN78@CMK_Init|
  0129c	00000000	 DCD         |real_block_virtp|
  012a0		 |$LN79@CMK_Init|
  012a0	00000000	 DCD         |numBlocks|
  012a4		 |$LN80@CMK_Init|
  012a4	00000000	 DCD         |??_C@_1GO@KJFDBIDO@?$AAC?$AAM?$AAE?$AAM?$AAK?$AA?5?$AAE?$AAr?$AAr?$AAo?$AAr?$AA?3?$AA?5?$AAN?$AAe?$AAg?$AAa?$AAt?$AAi?$AAv?$AAe?$AA?5?$AAl?$AAe?$AAn?$AAg?$AAt?$AAh?$AA?5?$AAo?$AAf?$AA?5@|
  012a8		 |$LN81@CMK_Init|
  012a8	00000000	 DCD         |cmem_mutex|
  012ac		 |$LN82@CMK_Init|
  012ac	00000000	 DCD         |??_C@_1BI@DJKHEDFH@?$AAC?$AAM?$AAE?$AAM?$AAK?$AA_?$AAM?$AAU?$AAT?$AAE?$AAX?$AA?$AA@|
  012b0		 |$LN83@CMK_Init|
  012b0	00000000	 DCD         |??_C@_1JI@FJFCHAIK@?$AAC?$AAM?$AAE?$AAM?$AAK?$AA?5?$AAE?$AAr?$AAr?$AAo?$AAr?$AA?3?$AA?5?$AAT?$AAo?$AAo?$AA?5?$AAm?$AAa?$AAn?$AAy?$AA?5?$AAp?$AAo?$AAo?$AAl?$AAs?$AA?5?$AAs?$AAp?$AAe?$AAc@|
  012b4		 |$LN84@CMK_Init|
  012b4	00000000	 DCD         |??_C@_1JI@CGJLOLBJ@?$AAC?$AAM?$AAE?$AAM?$AAK?$AA?5?$AAE?$AAr?$AAr?$AAo?$AAr?$AA?3?$AA?5?$AAT?$AAo?$AAo?$AA?5?$AAm?$AAa?$AAn?$AAy?$AA?5?$AAp?$AAo?$AAo?$AAl?$AAs?$AA?5?$AAs?$AAp?$AAe?$AAc@|
  012b8		 |$LN85@CMK_Init|
  012b8	00000000	 DCD         |useHeapIfPoolUnavailable|
  012bc		 |$LN86@CMK_Init|
  012bc	00000000	 DCD         |??_C@_1HG@INLBPEDM@?$AAC?$AAM?$AAE?$AAM?$AAK?$AA?5?$AAD?$AAe?$AAb?$AAu?$AAg?$AA?3?$AA?5?$AAC?$AAM?$AAE?$AAM?$AAK?$AA?3?$AA?5?$AAW?$AAa?$AAr?$AAn?$AAi?$AAn?$AAg?$AA?3?$AA?5?$AAC?$AAa?$AAn@|
  012c0		 |$LN87@CMK_Init|
  012c0	00000000	 DCD         |??_C@_1DC@KFACKDPH@?$AAU?$AAs?$AAe?$AAH?$AAe?$AAa?$AAp?$AAI?$AAf?$AAP?$AAo?$AAo?$AAl?$AAU?$AAn?$AAa?$AAv?$AAa?$AAi?$AAl?$AAa?$AAb?$AAl?$AAe?$AA?$AA@|
  012c4		 |$LN88@CMK_Init|
  012c4	00000000	 DCD         |??_C@_1BE@NOPHIHDE@?$AAN?$AAu?$AAm?$AAP?$AAo?$AAo?$AAl?$AAs?$AA1?$AA?$AA@|
  012c8		 |$LN89@CMK_Init|
  012c8	00000000	 DCD         |??_C@_1BE@GGELOAFB@?$AAN?$AAu?$AAm?$AAP?$AAo?$AAo?$AAl?$AAs?$AA0?$AA?$AA@|
  012cc		 |$LN90@CMK_Init|
  012cc	00000000	 DCD         |??_C@_1BK@EEHBOAGL@?$AAP?$AAh?$AAy?$AAs?$AAi?$AAc?$AAa?$AAl?$AAE?$AAn?$AAd?$AA1?$AA?$AA@|
  012d0		 |$LN91@CMK_Init|
  012d0	00000000	 DCD         |??_C@_1BK@PMMNIHAO@?$AAP?$AAh?$AAy?$AAs?$AAi?$AAc?$AAa?$AAl?$AAE?$AAn?$AAd?$AA0?$AA?$AA@|
  012d4		 |$LN92@CMK_Init|
  012d4	00000000	 DCD         |??_C@_1BO@ODBAMBIC@?$AAP?$AAh?$AAy?$AAs?$AAi?$AAc?$AAa?$AAl?$AAS?$AAt?$AAa?$AAr?$AAt?$AA1?$AA?$AA@|
  012d8		 |$LN93@CMK_Init|
  012d8	00000000	 DCD         |??_C@_1BO@FLKMKGOH@?$AAP?$AAh?$AAy?$AAs?$AAi?$AAc?$AAa?$AAl?$AAS?$AAt?$AAa?$AAr?$AAt?$AA0?$AA?$AA@|
  012dc		 |$LN94@CMK_Init|
  012dc	00000000	 DCD         |??_C@_1FO@GGDGBKHC@?$AAC?$AAM?$AAE?$AAM?$AAK?$AA?5?$AAE?$AAr?$AAr?$AAo?$AAr?$AA?3?$AA?5?$AAC?$AAM?$AAE?$AAM?$AAK?$AA?3?$AA?5?$AAc?$AAa?$AAn?$AAn?$AAo?$AAt?$AA?5?$AAo?$AAp?$AAe?$AAn?$AA?5@|
  012e0		 |$LN95@CMK_Init|
  012e0	00000000	 DCD         |??_C@_1CM@BOKDKMGI@?$AAD?$AAr?$AAi?$AAv?$AAe?$AAr?$AAs?$AA?2?$AAB?$AAu?$AAi?$AAl?$AAt?$AAI?$AAn?$AA?2?$AAC?$AAM?$AAE?$AAM?$AAK?$AA?$AA@|
  012e4		 |$LN96@CMK_Init|
  012e4	00000000	 DCD         |__security_cookie|
  012e8		 |$M41180|

			 ENDP  ; |CMK_Init|

	EXPORT	|??_C@_1JM@CFPGCMJI@?$AAC?$AAM?$AAE?$AAM?$AAK?$AA?5?$AAD?$AAe?$AAb?$AAu?$AAg?$AA?3?$AA?5?$AAA?$AAl?$AAl?$AAo?$AAc?$AAa?$AAt?$AAe?$AAd?$AA?5?$AAb?$AAu?$AAf?$AAf?$AAe?$AAr?$AA?5?$AA?$CF?$AAd@| [ DATA ] ; `string'
	EXPORT	|??_C@_1IE@GIHALDF@?$AAC?$AAM?$AAE?$AAM?$AAK?$AA?5?$AAE?$AAr?$AAr?$AAo?$AAr?$AA?3?$AA?5?$AAa?$AAl?$AAl?$AAo?$AAc?$AA_?$AAp?$AAo?$AAo?$AAl?$AA?5?$AAf?$AAa?$AAi?$AAl?$AAe?$AAd?$AA?5?$AAt@| [ DATA ] ; `string'
	EXPORT	|??_C@_1HI@PBFJDIDF@?$AAC?$AAM?$AAE?$AAM?$AAK?$AA?5?$AAE?$AAr?$AAr?$AAo?$AAr?$AA?3?$AA?5?$AAa?$AAl?$AAl?$AAo?$AAc?$AA_?$AAp?$AAo?$AAo?$AAl?$AA?5?$AAf?$AAa?$AAi?$AAl?$AAe?$AAd?$AA?5?$AAt@| [ DATA ] ; `string'
	EXPORT	|??_C@_1HM@LKLPHBCP@?$AAC?$AAM?$AAE?$AAM?$AAK?$AA?5?$AAD?$AAe?$AAb?$AAu?$AAg?$AA?3?$AA?5?$AAA?$AAl?$AAl?$AAo?$AAc?$AAa?$AAt?$AAi?$AAn?$AAg?$AA?5?$AA?$CF?$AAd?$AA?5?$AAb?$AAu?$AAf?$AAf?$AAe@| [ DATA ] ; `string'
	IMPORT	|malloc|

  00018			 AREA	 |.pdata|, PDATA
|$T41241| DCD	|$LN14@alloc_pool|
	DCD	0x4000c804

  00000			 AREA	 |.rdata|, DATA, READONLY
|??_C@_1JM@CFPGCMJI@?$AAC?$AAM?$AAE?$AAM?$AAK?$AA?5?$AAD?$AAe?$AAb?$AAu?$AAg?$AA?3?$AA?5?$AAA?$AAl?$AAl?$AAo?$AAc?$AAa?$AAt?$AAe?$AAd?$AA?5?$AAb?$AAu?$AAf?$AAf?$AAe?$AAr?$AA?5?$AA?$CF?$AAd@| DCB "C"
	DCB	0x0, "M", 0x0, "E", 0x0, "M", 0x0, "K", 0x0, " ", 0x0, "D"
	DCB	0x0, "e", 0x0, "b", 0x0, "u", 0x0, "g", 0x0, ":", 0x0, " "
	DCB	0x0, "A", 0x0, "l", 0x0, "l", 0x0, "o", 0x0, "c", 0x0, "a"
	DCB	0x0, "t", 0x0, "e", 0x0, "d", 0x0, " ", 0x0, "b", 0x0, "u"
	DCB	0x0, "f", 0x0, "f", 0x0, "e", 0x0, "r", 0x0, " ", 0x0, "%"
	DCB	0x0, "d", 0x0, ",", 0x0, " ", 0x0, "v", 0x0, "i", 0x0, "r"
	DCB	0x0, "t", 0x0, "u", 0x0, "a", 0x0, "l", 0x0, " ", 0x0, "%"
	DCB	0x0, "#", 0x0, "l", 0x0, "x", 0x0, " ", 0x0, "a", 0x0, "n"
	DCB	0x0, "d", 0x0, " ", 0x0, "p", 0x0, "h", 0x0, "y", 0x0, "s"
	DCB	0x0, "i", 0x0, "c", 0x0, "a", 0x0, "l", 0x0, " ", 0x0, "%"
	DCB	0x0, "#", 0x0, "l", 0x0, "x", 0x0, " ", 0x0, "a", 0x0, "n"
	DCB	0x0, "d", 0x0, " ", 0x0, "s", 0x0, "i", 0x0, "z", 0x0, "e"
	DCB	0x0, " ", 0x0, "%", 0x0, "d", 0x0, 0xa, 0x0, 0x0, 0x0 ; `string'

  00000			 AREA	 |.rdata|, DATA, READONLY
|??_C@_1IE@GIHALDF@?$AAC?$AAM?$AAE?$AAM?$AAK?$AA?5?$AAE?$AAr?$AAr?$AAo?$AAr?$AA?3?$AA?5?$AAa?$AAl?$AAl?$AAo?$AAc?$AA_?$AAp?$AAo?$AAo?$AAl?$AA?5?$AAf?$AAa?$AAi?$AAl?$AAe?$AAd?$AA?5?$AAt@| DCB "C"
	DCB	0x0, "M", 0x0, "E", 0x0, "M", 0x0, "K", 0x0, " ", 0x0, "E"
	DCB	0x0, "r", 0x0, "r", 0x0, "o", 0x0, "r", 0x0, ":", 0x0, " "
	DCB	0x0, "a", 0x0, "l", 0x0, "l", 0x0, "o", 0x0, "c", 0x0, "_"
	DCB	0x0, "p", 0x0, "o", 0x0, "o", 0x0, "l", 0x0, " ", 0x0, "f"
	DCB	0x0, "a", 0x0, "i", 0x0, "l", 0x0, "e", 0x0, "d", 0x0, " "
	DCB	0x0, "t", 0x0, "o", 0x0, " ", 0x0, "g", 0x0, "e", 0x0, "t"
	DCB	0x0, " ", 0x0, "c", 0x0, "o", 0x0, "n", 0x0, "t", 0x0, "i"
	DCB	0x0, "g", 0x0, "u", 0x0, "o", 0x0, "u", 0x0, "s", 0x0, " "
	DCB	0x0, "a", 0x0, "r", 0x0, "e", 0x0, "a", 0x0, " ", 0x0, "o"
	DCB	0x0, "f", 0x0, " ", 0x0, "s", 0x0, "i", 0x0, "z", 0x0, "e"
	DCB	0x0, " ", 0x0, "%", 0x0, "d", 0x0, 0xa, 0x0, 0x0, 0x0 ; `string'

  00000			 AREA	 |.rdata|, DATA, READONLY
|??_C@_1HI@PBFJDIDF@?$AAC?$AAM?$AAE?$AAM?$AAK?$AA?5?$AAE?$AAr?$AAr?$AAo?$AAr?$AA?3?$AA?5?$AAa?$AAl?$AAl?$AAo?$AAc?$AA_?$AAp?$AAo?$AAo?$AAl?$AA?5?$AAf?$AAa?$AAi?$AAl?$AAe?$AAd?$AA?5?$AAt@| DCB "C"
	DCB	0x0, "M", 0x0, "E", 0x0, "M", 0x0, "K", 0x0, " ", 0x0, "E"
	DCB	0x0, "r", 0x0, "r", 0x0, "o", 0x0, "r", 0x0, ":", 0x0, " "
	DCB	0x0, "a", 0x0, "l", 0x0, "l", 0x0, "o", 0x0, "c", 0x0, "_"
	DCB	0x0, "p", 0x0, "o", 0x0, "o", 0x0, "l", 0x0, " ", 0x0, "f"
	DCB	0x0, "a", 0x0, "i", 0x0, "l", 0x0, "e", 0x0, "d", 0x0, " "
	DCB	0x0, "t", 0x0, "o", 0x0, " ", 0x0, "m", 0x0, "a", 0x0, "l"
	DCB	0x0, "l", 0x0, "o", 0x0, "c", 0x0, " ", 0x0, "p", 0x0, "o"
	DCB	0x0, "o", 0x0, "l", 0x0, "_", 0x0, "b", 0x0, "u", 0x0, "f"
	DCB	0x0, "f", 0x0, "e", 0x0, "r", 0x0, " ", 0x0, "s", 0x0, "t"
	DCB	0x0, "r", 0x0, "u", 0x0, "c", 0x0, "t", 0x0, 0x0, 0x0 ; `string'

  00000			 AREA	 |.rdata|, DATA, READONLY
|??_C@_1HM@LKLPHBCP@?$AAC?$AAM?$AAE?$AAM?$AAK?$AA?5?$AAD?$AAe?$AAb?$AAu?$AAg?$AA?3?$AA?5?$AAA?$AAl?$AAl?$AAo?$AAc?$AAa?$AAt?$AAi?$AAn?$AAg?$AA?5?$AA?$CF?$AAd?$AA?5?$AAb?$AAu?$AAf?$AAf?$AAe@| DCB "C"
	DCB	0x0, "M", 0x0, "E", 0x0, "M", 0x0, "K", 0x0, " ", 0x0, "D"
	DCB	0x0, "e", 0x0, "b", 0x0, "u", 0x0, "g", 0x0, ":", 0x0, " "
	DCB	0x0, "A", 0x0, "l", 0x0, "l", 0x0, "o", 0x0, "c", 0x0, "a"
	DCB	0x0, "t", 0x0, "i", 0x0, "n", 0x0, "g", 0x0, " ", 0x0, "%"
	DCB	0x0, "d", 0x0, " ", 0x0, "b", 0x0, "u", 0x0, "f", 0x0, "f"
	DCB	0x0, "e", 0x0, "r", 0x0, "s", 0x0, " ", 0x0, "o", 0x0, "f"
	DCB	0x0, " ", 0x0, "s", 0x0, "i", 0x0, "z", 0x0, "e", 0x0, " "
	DCB	0x0, "%", 0x0, "d", 0x0, " ", 0x0, "(", 0x0, "r", 0x0, "e"
	DCB	0x0, "q", 0x0, "u", 0x0, "e", 0x0, "s", 0x0, "t", 0x0, "e"
	DCB	0x0, "d", 0x0, " ", 0x0, "%", 0x0, "d", 0x0, ")", 0x0, 0xa
	DCB	0x0, 0x0, 0x0				; `string'
; Function compile flags: /Odtp

  012e8			 AREA	 |.text|, CODE, ARM

  012e8		 |alloc_pool| PROC

; 693  : {

  012e8		 |$LN14@alloc_pool|
  012e8	e1a0c00d	 mov         r12, sp
  012ec	e92d000f	 stmdb       sp!, {r0 - r3}
  012f0	e92d5000	 stmdb       sp!, {r12, lr}
  012f4	e24dd038	 sub         sp, sp, #0x38
  012f8		 |$M41238|

; 694  :     struct pool_buffer *entry;
; 695  :     LIST_ENTRY *freelistp = &p_objs[bi][idx].freelist;

  012f8	e59d1040	 ldr         r1, [sp, #0x40]
  012fc	e3a03c0e	 mov         r3, #0xE, 24
  01300	e0020391	 mul         r2, r1, r3
  01304	e59f32f0	 ldr         r3, [pc, #0x2F0]
  01308	e0831002	 add         r1, r3, r2
  0130c	e59d2044	 ldr         r2, [sp, #0x44]
  01310	e3a0301c	 mov         r3, #0x1C
  01314	e0030392	 mul         r3, r2, r3
  01318	e0813003	 add         r3, r1, r3
  0131c	e58d3008	 str         r3, [sp, #8]

; 696  :     LIST_ENTRY *busylistp = &p_objs[bi][idx].busylist;

  01320	e59d1040	 ldr         r1, [sp, #0x40]
  01324	e3a03c0e	 mov         r3, #0xE, 24
  01328	e0020391	 mul         r2, r1, r3
  0132c	e59f32c8	 ldr         r3, [pc, #0x2C8]
  01330	e0831002	 add         r1, r3, r2
  01334	e59d2044	 ldr         r2, [sp, #0x44]
  01338	e3a0301c	 mov         r3, #0x1C
  0133c	e0030392	 mul         r3, r2, r3
  01340	e0813003	 add         r3, r1, r3
  01344	e2833008	 add         r3, r3, #8
  01348	e58d3004	 str         r3, [sp, #4]

; 697  :     int size = PAGE_ALIGN(reqsize);

  0134c	e59d204c	 ldr         r2, [sp, #0x4C]
  01350	e59f32ac	 ldr         r3, [pc, #0x2AC]
  01354	e5933000	 ldr         r3, [r3]
  01358	e0823003	 add         r3, r2, r3
  0135c	e2432001	 sub         r2, r3, #1
  01360	e59f329c	 ldr         r3, [pc, #0x29C]
  01364	e5933000	 ldr         r3, [r3]
  01368	e2433001	 sub         r3, r3, #1
  0136c	e1e03003	 mvn         r3, r3
  01370	e0023003	 and         r3, r2, r3
  01374	e58d3014	 str         r3, [sp, #0x14]

; 698  :     unsigned long virtp;
; 699  :     int i;
; 700  : 
; 701  :     __D("Allocating %d buffers of size %d (requested %d)\n",
; 702  :             num, size, reqsize);

  01378	e59d304c	 ldr         r3, [sp, #0x4C]
  0137c	e59d2014	 ldr         r2, [sp, #0x14]
  01380	e59d1048	 ldr         r1, [sp, #0x48]
  01384	e59f0274	 ldr         r0, [pc, #0x274]
  01388	eb000000	 bl          NKDbgPrintfW

; 703  : 
; 704  :     p_objs[bi][idx].reqsize = reqsize;

  0138c	e59d1040	 ldr         r1, [sp, #0x40]
  01390	e3a03c0e	 mov         r3, #0xE, 24
  01394	e0020391	 mul         r2, r1, r3
  01398	e59f325c	 ldr         r3, [pc, #0x25C]
  0139c	e0831002	 add         r1, r3, r2
  013a0	e59d2044	 ldr         r2, [sp, #0x44]
  013a4	e3a0301c	 mov         r3, #0x1C
  013a8	e0030392	 mul         r3, r2, r3
  013ac	e0813003	 add         r3, r1, r3
  013b0	e2832018	 add         r2, r3, #0x18
  013b4	e59d304c	 ldr         r3, [sp, #0x4C]
  013b8	e5823000	 str         r3, [r2]

; 705  :     p_objs[bi][idx].numbufs = num;

  013bc	e59d1040	 ldr         r1, [sp, #0x40]
  013c0	e3a03c0e	 mov         r3, #0xE, 24
  013c4	e0020391	 mul         r2, r1, r3
  013c8	e59f322c	 ldr         r3, [pc, #0x22C]
  013cc	e0831002	 add         r1, r3, r2
  013d0	e59d2044	 ldr         r2, [sp, #0x44]
  013d4	e3a0301c	 mov         r3, #0x1C
  013d8	e0030392	 mul         r3, r2, r3
  013dc	e0813003	 add         r3, r1, r3
  013e0	e2832010	 add         r2, r3, #0x10
  013e4	e59d3048	 ldr         r3, [sp, #0x48]
  013e8	e5823000	 str         r3, [r2]

; 706  :     p_objs[bi][idx].size = size;

  013ec	e59d1040	 ldr         r1, [sp, #0x40]
  013f0	e3a03c0e	 mov         r3, #0xE, 24
  013f4	e0020391	 mul         r2, r1, r3
  013f8	e59f31fc	 ldr         r3, [pc, #0x1FC]
  013fc	e0831002	 add         r1, r3, r2
  01400	e59d2044	 ldr         r2, [sp, #0x44]
  01404	e3a0301c	 mov         r3, #0x1C
  01408	e0030392	 mul         r3, r2, r3
  0140c	e0813003	 add         r3, r1, r3
  01410	e2832014	 add         r2, r3, #0x14
  01414	e59d3014	 ldr         r3, [sp, #0x14]
  01418	e5823000	 str         r3, [r2]

; 707  : 
; 708  :     InitializeListHead(freelistp);

  0141c	e59d3008	 ldr         r3, [sp, #8]
  01420	e2832004	 add         r2, r3, #4
  01424	e59d3008	 ldr         r3, [sp, #8]
  01428	e5823000	 str         r3, [r2]
  0142c	e59d2008	 ldr         r2, [sp, #8]
  01430	e59d3008	 ldr         r3, [sp, #8]
  01434	e5832000	 str         r2, [r3]

; 709  :     InitializeListHead(busylistp);

  01438	e59d3004	 ldr         r3, [sp, #4]
  0143c	e2832004	 add         r2, r3, #4
  01440	e59d3004	 ldr         r3, [sp, #4]
  01444	e5823000	 str         r3, [r2]
  01448	e59d2004	 ldr         r2, [sp, #4]
  0144c	e59d3004	 ldr         r3, [sp, #4]
  01450	e5832000	 str         r2, [r3]

; 710  : 
; 711  :     for (i=0; i < num; i++) {

  01454	e3a03000	 mov         r3, #0
  01458	e58d300c	 str         r3, [sp, #0xC]
  0145c	ea000002	 b           |$LN9@alloc_pool|
  01460		 |$LN8@alloc_pool|
  01460	e59d300c	 ldr         r3, [sp, #0xC]
  01464	e2833001	 add         r3, r3, #1
  01468	e58d300c	 str         r3, [sp, #0xC]
  0146c		 |$LN9@alloc_pool|
  0146c	e59d200c	 ldr         r2, [sp, #0xC]
  01470	e59d3048	 ldr         r3, [sp, #0x48]
  01474	e1520003	 cmp         r2, r3
  01478	aa000053	 bge         |$LN7@alloc_pool|

; 712  :         entry = (pool_buffer*)malloc(sizeof(struct pool_buffer));

  0147c	e3a00024	 mov         r0, #0x24
  01480	eb000000	 bl          malloc
  01484	e58d002c	 str         r0, [sp, #0x2C]
  01488	e59d302c	 ldr         r3, [sp, #0x2C]
  0148c	e58d3018	 str         r3, [sp, #0x18]

; 713  : 
; 714  :         if (!entry) {

  01490	e59d3018	 ldr         r3, [sp, #0x18]
  01494	e3530000	 cmp         r3, #0
  01498	1a000004	 bne         |$LN6@alloc_pool|

; 715  :             __E("alloc_pool failed to malloc pool_buffer struct");

  0149c	e59f0154	 ldr         r0, [pc, #0x154]
  014a0	eb000000	 bl          NKDbgPrintfW

; 716  :             //return -ENOMEM;
; 717  :             return -1;

  014a4	e3e03000	 mvn         r3, #0
  014a8	e58d3024	 str         r3, [sp, #0x24]
  014ac	ea00004b	 b           |$LN10@alloc_pool|
  014b0		 |$LN6@alloc_pool|

; 718  :         }
; 719  : 
; 720  :         virtp = alloc_pool_buffer(bi, size);

  014b0	e59d1014	 ldr         r1, [sp, #0x14]
  014b4	e59d0040	 ldr         r0, [sp, #0x40]
  014b8	eb000000	 bl          alloc_pool_buffer
  014bc	e58d0030	 str         r0, [sp, #0x30]
  014c0	e59d3030	 ldr         r3, [sp, #0x30]
  014c4	e58d3010	 str         r3, [sp, #0x10]

; 721  : 
; 722  :         if (virtp == 0) {

  014c8	e59d3010	 ldr         r3, [sp, #0x10]
  014cc	e3530000	 cmp         r3, #0
  014d0	1a000005	 bne         |$LN5@alloc_pool|

; 723  :             __E("alloc_pool failed to get contiguous area of size %d\n", size);

  014d4	e59d1014	 ldr         r1, [sp, #0x14]
  014d8	e59f0114	 ldr         r0, [pc, #0x114]
  014dc	eb000000	 bl          NKDbgPrintfW

; 724  :             //return -ENOMEM;
; 725  :             return -1;

  014e0	e3e03000	 mvn         r3, #0
  014e4	e58d3024	 str         r3, [sp, #0x24]
  014e8	ea00003c	 b           |$LN10@alloc_pool|
  014ec		 |$LN5@alloc_pool|

; 726  :         }
; 727  : 
; 728  :         entry->id = i;

  014ec	e59d3018	 ldr         r3, [sp, #0x18]
  014f0	e2832008	 add         r2, r3, #8
  014f4	e59d300c	 ldr         r3, [sp, #0xC]
  014f8	e5823000	 str         r3, [r2]

; 729  :         entry->physp = get_phys(virtp);

  014fc	e59d0010	 ldr         r0, [sp, #0x10]
  01500	eb000000	 bl          get_phys
  01504	e58d0034	 str         r0, [sp, #0x34]
  01508	e59d3018	 ldr         r3, [sp, #0x18]
  0150c	e283200c	 add         r2, r3, #0xC
  01510	e59d3034	 ldr         r3, [sp, #0x34]
  01514	e5823000	 str         r3, [r2]

; 730  :         entry->kvirtp = virtp;

  01518	e59d3018	 ldr         r3, [sp, #0x18]
  0151c	e2832014	 add         r2, r3, #0x14
  01520	e59d3010	 ldr         r3, [sp, #0x10]
  01524	e5823000	 str         r3, [r2]

; 731  : 
; 732  :         if (virtpRet) {

  01528	e59d3050	 ldr         r3, [sp, #0x50]
  0152c	e3530000	 cmp         r3, #0
  01530	0a000005	 beq         |$LN4@alloc_pool|

; 733  :             *virtpRet++ = virtp;

  01534	e59d2010	 ldr         r2, [sp, #0x10]
  01538	e59d3050	 ldr         r3, [sp, #0x50]
  0153c	e5832000	 str         r2, [r3]
  01540	e59d3050	 ldr         r3, [sp, #0x50]
  01544	e2833004	 add         r3, r3, #4
  01548	e58d3050	 str         r3, [sp, #0x50]
  0154c		 |$LN4@alloc_pool|

; 734  :         }
; 735  : 
; 736  :         __D("Allocated buffer %d, virtual %#lx and physical %#lx and size %d\n",
; 737  :                 entry->id, virtp, entry->physp, size);

  0154c	e59d3014	 ldr         r3, [sp, #0x14]
  01550	e58d3000	 str         r3, [sp]
  01554	e59d3018	 ldr         r3, [sp, #0x18]
  01558	e283300c	 add         r3, r3, #0xC
  0155c	e5933000	 ldr         r3, [r3]
  01560	e59d2010	 ldr         r2, [sp, #0x10]
  01564	e59d1018	 ldr         r1, [sp, #0x18]
  01568	e2811008	 add         r1, r1, #8
  0156c	e5911000	 ldr         r1, [r1]
  01570	e59f0078	 ldr         r0, [pc, #0x78]
  01574	eb000000	 bl          NKDbgPrintfW

; 738  : 
; 739  :         //list_add_tail(&entry->element, freelistp);
; 740  :         InsertTailList(freelistp, &entry->element);

  01578	e59d3008	 ldr         r3, [sp, #8]
  0157c	e58d3020	 str         r3, [sp, #0x20]
  01580	e59d3020	 ldr         r3, [sp, #0x20]
  01584	e2833004	 add         r3, r3, #4
  01588	e5933000	 ldr         r3, [r3]
  0158c	e58d301c	 str         r3, [sp, #0x1C]
  01590	e59d2020	 ldr         r2, [sp, #0x20]
  01594	e59d3018	 ldr         r3, [sp, #0x18]
  01598	e5832000	 str         r2, [r3]
  0159c	e59d3018	 ldr         r3, [sp, #0x18]
  015a0	e2832004	 add         r2, r3, #4
  015a4	e59d301c	 ldr         r3, [sp, #0x1C]
  015a8	e5823000	 str         r3, [r2]
  015ac	e59d2018	 ldr         r2, [sp, #0x18]
  015b0	e59d301c	 ldr         r3, [sp, #0x1C]
  015b4	e5832000	 str         r2, [r3]
  015b8	e59d3020	 ldr         r3, [sp, #0x20]
  015bc	e2832004	 add         r2, r3, #4
  015c0	e59d3018	 ldr         r3, [sp, #0x18]
  015c4	e5823000	 str         r3, [r2]

; 741  :     }

  015c8	eaffffa4	 b           |$LN8@alloc_pool|
  015cc		 |$LN7@alloc_pool|

; 742  : 
; 743  : #ifdef __DEBUG
; 744  :     dump_lists(bi, idx);

  015cc	e59d1044	 ldr         r1, [sp, #0x44]
  015d0	e59d0040	 ldr         r0, [sp, #0x40]
  015d4	eb000000	 bl          dump_lists

; 745  : #endif
; 746  : 
; 747  :     return 0;

  015d8	e3a03000	 mov         r3, #0
  015dc	e58d3024	 str         r3, [sp, #0x24]
  015e0		 |$LN10@alloc_pool|

; 748  : }

  015e0	e59d0024	 ldr         r0, [sp, #0x24]
  015e4	e28dd038	 add         sp, sp, #0x38
  015e8	e89d6000	 ldmia       sp, {sp, lr}
  015ec	e12fff1e	 bx          lr
  015f0		 |$LN15@alloc_pool|
  015f0		 |$LN16@alloc_pool|
  015f0	00000000	 DCD         |??_C@_1JM@CFPGCMJI@?$AAC?$AAM?$AAE?$AAM?$AAK?$AA?5?$AAD?$AAe?$AAb?$AAu?$AAg?$AA?3?$AA?5?$AAA?$AAl?$AAl?$AAo?$AAc?$AAa?$AAt?$AAe?$AAd?$AA?5?$AAb?$AAu?$AAf?$AAf?$AAe?$AAr?$AA?5?$AA?$CF?$AAd@|
  015f4		 |$LN17@alloc_pool|
  015f4	00000000	 DCD         |??_C@_1IE@GIHALDF@?$AAC?$AAM?$AAE?$AAM?$AAK?$AA?5?$AAE?$AAr?$AAr?$AAo?$AAr?$AA?3?$AA?5?$AAa?$AAl?$AAl?$AAo?$AAc?$AA_?$AAp?$AAo?$AAo?$AAl?$AA?5?$AAf?$AAa?$AAi?$AAl?$AAe?$AAd?$AA?5?$AAt@|
  015f8		 |$LN18@alloc_pool|
  015f8	00000000	 DCD         |??_C@_1HI@PBFJDIDF@?$AAC?$AAM?$AAE?$AAM?$AAK?$AA?5?$AAE?$AAr?$AAr?$AAo?$AAr?$AA?3?$AA?5?$AAa?$AAl?$AAl?$AAo?$AAc?$AA_?$AAp?$AAo?$AAo?$AAl?$AA?5?$AAf?$AAa?$AAi?$AAl?$AAe?$AAd?$AA?5?$AAt@|
  015fc		 |$LN19@alloc_pool|
  015fc	00000000	 DCD         |p_objs|
  01600		 |$LN20@alloc_pool|
  01600	00000000	 DCD         |??_C@_1HM@LKLPHBCP@?$AAC?$AAM?$AAE?$AAM?$AAK?$AA?5?$AAD?$AAe?$AAb?$AAu?$AAg?$AA?3?$AA?5?$AAA?$AAl?$AAl?$AAo?$AAc?$AAa?$AAt?$AAi?$AAn?$AAg?$AA?5?$AA?$CF?$AAd?$AA?5?$AAb?$AAu?$AAf?$AAf?$AAe@|
  01604		 |$LN21@alloc_pool|
  01604	00000000	 DCD         |gdwPageSize|
  01608		 |$M41239|

			 ENDP  ; |alloc_pool|

	EXPORT	|??_C@_1GE@COLDEHO@?$AAC?$AAM?$AAE?$AAM?$AAK?$AA?5?$AAE?$AAr?$AAr?$AAo?$AAr?$AA?3?$AA?5?$AAg?$AAe?$AAt?$AA_?$AAp?$AAh?$AAy?$AAs?$AA?$CI?$AA?$CJ?$AA?3?$AA?5?$AAL?$AAo?$AAc?$AAk?$AAP?$AAa?$AAg@| [ DATA ] ; `string'
	EXPORT	|??_C@_1HE@HKOILLJD@?$AAC?$AAM?$AAE?$AAM?$AAK?$AA?5?$AAD?$AAe?$AAb?$AAu?$AAg?$AA?3?$AA?5?$AA?5?$AAP?$AAe?$AAr?$AAh?$AAa?$AAp?$AAs?$AA?5?$AAi?$AAt?$AA?8?$AAs?$AA?5?$AAi?$AAn?$AA?5?$AAt?$AAh@| [ DATA ] ; `string'
	EXPORT	|??_C@_1MG@IOKOPAFG@?$AAC?$AAM?$AAE?$AAM?$AAK?$AA?5?$AAD?$AAe?$AAb?$AAu?$AAg?$AA?3?$AA?5?$AAg?$AAe?$AAt?$AA_?$AAp?$AAh?$AAy?$AAs?$AA?$CI?$AA?$CJ?$AA?3?$AA?5?$AAR?$AAe?$AAq?$AAu?$AAe?$AAs?$AAt@| [ DATA ] ; `string'
	EXPORT	|??_C@_1JC@FDINJJIA@?$AAC?$AAM?$AAE?$AAM?$AAK?$AA?5?$AAD?$AAe?$AAb?$AAu?$AAg?$AA?3?$AA?5?$AAg?$AAe?$AAt?$AA_?$AAp?$AAh?$AAy?$AAs?$AA?3?$AA?5?$AAb?$AAl?$AAo?$AAc?$AAk?$AA_?$AAv?$AAi?$AAr@| [ DATA ] ; `string'
	IMPORT	|LockPages|
	IMPORT	|__imp___rt_udiv|

  00020			 AREA	 |.pdata|, PDATA
|$T41256| DCD	|$LN11@get_phys|
	DCD	0x40006a04

  00000			 AREA	 |.rdata|, DATA, READONLY
|??_C@_1GE@COLDEHO@?$AAC?$AAM?$AAE?$AAM?$AAK?$AA?5?$AAE?$AAr?$AAr?$AAo?$AAr?$AA?3?$AA?5?$AAg?$AAe?$AAt?$AA_?$AAp?$AAh?$AAy?$AAs?$AA?$CI?$AA?$CJ?$AA?3?$AA?5?$AAL?$AAo?$AAc?$AAk?$AAP?$AAa?$AAg@| DCB "C"
	DCB	0x0, "M", 0x0, "E", 0x0, "M", 0x0, "K", 0x0, " ", 0x0, "E"
	DCB	0x0, "r", 0x0, "r", 0x0, "o", 0x0, "r", 0x0, ":", 0x0, " "
	DCB	0x0, "g", 0x0, "e", 0x0, "t", 0x0, "_", 0x0, "p", 0x0, "h"
	DCB	0x0, "y", 0x0, "s", 0x0, "(", 0x0, ")", 0x0, ":", 0x0, " "
	DCB	0x0, "L", 0x0, "o", 0x0, "c", 0x0, "k", 0x0, "P", 0x0, "a"
	DCB	0x0, "g", 0x0, "e", 0x0, "s", 0x0, "(", 0x0, "0", 0x0, "x"
	DCB	0x0, "%", 0x0, "x", 0x0, ")", 0x0, " ", 0x0, "f", 0x0, "a"
	DCB	0x0, "i", 0x0, "l", 0x0, "e", 0x0, "d", 0x0, "!", 0x0, 0xa
	DCB	0x0, 0x0, 0x0				; `string'

  00000			 AREA	 |.rdata|, DATA, READONLY
|??_C@_1HE@HKOILLJD@?$AAC?$AAM?$AAE?$AAM?$AAK?$AA?5?$AAD?$AAe?$AAb?$AAu?$AAg?$AA?3?$AA?5?$AA?5?$AAP?$AAe?$AAr?$AAh?$AAa?$AAp?$AAs?$AA?5?$AAi?$AAt?$AA?8?$AAs?$AA?5?$AAi?$AAn?$AA?5?$AAt?$AAh@| DCB "C"
	DCB	0x0, "M", 0x0, "E", 0x0, "M", 0x0, "K", 0x0, " ", 0x0, "D"
	DCB	0x0, "e", 0x0, "b", 0x0, "u", 0x0, "g", 0x0, ":", 0x0, " "
	DCB	0x0, " ", 0x0, "P", 0x0, "e", 0x0, "r", 0x0, "h", 0x0, "a"
	DCB	0x0, "p", 0x0, "s", 0x0, " ", 0x0, "i", 0x0, "t", 0x0, "'"
	DCB	0x0, "s", 0x0, " ", 0x0, "i", 0x0, "n", 0x0, " ", 0x0, "t"
	DCB	0x0, "h", 0x0, "e", 0x0, " ", 0x0, "l", 0x0, "i", 0x0, "s"
	DCB	0x0, "t", 0x0, " ", 0x0, "o", 0x0, "f", 0x0, " ", 0x0, "b"
	DCB	0x0, "u", 0x0, "s", 0x0, "y", 0x0, " ", 0x0, "e", 0x0, "n"
	DCB	0x0, "t", 0x0, "r", 0x0, "i", 0x0, "e", 0x0, "s", 0x0, "?"
	DCB	0x0, 0xd, 0x0, 0xa, 0x0, 0x0, 0x0	; `string'

  00000			 AREA	 |.rdata|, DATA, READONLY
|??_C@_1MG@IOKOPAFG@?$AAC?$AAM?$AAE?$AAM?$AAK?$AA?5?$AAD?$AAe?$AAb?$AAu?$AAg?$AA?3?$AA?5?$AAg?$AAe?$AAt?$AA_?$AAp?$AAh?$AAy?$AAs?$AA?$CI?$AA?$CJ?$AA?3?$AA?5?$AAR?$AAe?$AAq?$AAu?$AAe?$AAs?$AAt@| DCB "C"
	DCB	0x0, "M", 0x0, "E", 0x0, "M", 0x0, "K", 0x0, " ", 0x0, "D"
	DCB	0x0, "e", 0x0, "b", 0x0, "u", 0x0, "g", 0x0, ":", 0x0, " "
	DCB	0x0, "g", 0x0, "e", 0x0, "t", 0x0, "_", 0x0, "p", 0x0, "h"
	DCB	0x0, "y", 0x0, "s", 0x0, "(", 0x0, ")", 0x0, ":", 0x0, " "
	DCB	0x0, "R", 0x0, "e", 0x0, "q", 0x0, "u", 0x0, "e", 0x0, "s"
	DCB	0x0, "t", 0x0, "e", 0x0, "d", 0x0, " ", 0x0, "a", 0x0, " "
	DCB	0x0, "V", 0x0, "A", 0x0, " ", 0x0, "t", 0x0, "o", 0x0, " "
	DCB	0x0, "P", 0x0, "A", 0x0, " ", 0x0, "m", 0x0, "a", 0x0, "p"
	DCB	0x0, "p", 0x0, "i", 0x0, "n", 0x0, "g", 0x0, " ", 0x0, "f"
	DCB	0x0, "o", 0x0, "r", 0x0, " ", 0x0, "a", 0x0, "n", 0x0, " "
	DCB	0x0, "a", 0x0, "d", 0x0, "d", 0x0, "r", 0x0, "e", 0x0, "s"
	DCB	0x0, "s", 0x0, " ", 0x0, "t", 0x0, "h", 0x0, "a", 0x0, "t"
	DCB	0x0, " ", 0x0, "C", 0x0, "M", 0x0, "E", 0x0, "M", 0x0, " "
	DCB	0x0, "d", 0x0, "i", 0x0, "d", 0x0, " ", 0x0, "n", 0x0, "o"
	DCB	0x0, "t", 0x0, " ", 0x0, "a", 0x0, "l", 0x0, "l", 0x0, "o"
	DCB	0x0, "c", 0x0, "a", 0x0, "t", 0x0, "e", 0x0, "!", 0x0, 0xd
	DCB	0x0, 0xa, 0x0, 0x0, 0x0			; `string'

  00000			 AREA	 |.rdata|, DATA, READONLY
|??_C@_1JC@FDINJJIA@?$AAC?$AAM?$AAE?$AAM?$AAK?$AA?5?$AAD?$AAe?$AAb?$AAu?$AAg?$AA?3?$AA?5?$AAg?$AAe?$AAt?$AA_?$AAp?$AAh?$AAy?$AAs?$AA?3?$AA?5?$AAb?$AAl?$AAo?$AAc?$AAk?$AA_?$AAv?$AAi?$AAr@| DCB "C"
	DCB	0x0, "M", 0x0, "E", 0x0, "M", 0x0, "K", 0x0, " ", 0x0, "D"
	DCB	0x0, "e", 0x0, "b", 0x0, "u", 0x0, "g", 0x0, ":", 0x0, " "
	DCB	0x0, "g", 0x0, "e", 0x0, "t", 0x0, "_", 0x0, "p", 0x0, "h"
	DCB	0x0, "y", 0x0, "s", 0x0, ":", 0x0, " ", 0x0, "b", 0x0, "l"
	DCB	0x0, "o", 0x0, "c", 0x0, "k", 0x0, "_", 0x0, "v", 0x0, "i"
	DCB	0x0, "r", 0x0, "t", 0x0, "o", 0x0, "f", 0x0, "f", 0x0, "["
	DCB	0x0, "%", 0x0, "d", 0x0, "]", 0x0, " ", 0x0, "t", 0x0, "r"
	DCB	0x0, "a", 0x0, "n", 0x0, "s", 0x0, "l", 0x0, "a", 0x0, "t"
	DCB	0x0, "e", 0x0, "d", 0x0, " ", 0x0, "k", 0x0, "e", 0x0, "r"
	DCB	0x0, "n", 0x0, "e", 0x0, "l", 0x0, " ", 0x0, "%", 0x0, "#"
	DCB	0x0, "l", 0x0, "x", 0x0, " ", 0x0, "t", 0x0, "o", 0x0, " "
	DCB	0x0, "%", 0x0, "#", 0x0, "l", 0x0, "x", 0x0, 0xa, 0x0, 0x0
	DCB	0x0					; `string'
; Function compile flags: /Odtp

  01608			 AREA	 |.text|, CODE, ARM

  01608		 |get_phys| PROC

; 521  : {

  01608		 |$LN11@get_phys|
  01608	e1a0c00d	 mov         r12, sp
  0160c	e92d0001	 stmdb       sp!, {r0}
  01610	e92d5000	 stmdb       sp!, {r12, lr}
  01614	e24dd024	 sub         sp, sp, #0x24
  01618		 |$M41253|

; 522  :     unsigned long bufStart;
; 523  :     unsigned long offset;
; 524  :     unsigned long physp = 0;

  01618	e3a03000	 mov         r3, #0
  0161c	e58d300c	 str         r3, [sp, #0xC]

; 525  :     DWORD         dwPFN[2];
; 526  :     int           bi;
; 527  :     BOOL          fRet;
; 528  : 
; 529  :     /* For CMEM block kernel addresses */
; 530  :     for (bi = 0; bi < NBLOCKS; bi++) {

  01620	e3a03000	 mov         r3, #0
  01624	e58d3010	 str         r3, [sp, #0x10]
  01628	ea000002	 b           |$LN6@get_phys|
  0162c		 |$LN5@get_phys|
  0162c	e59d3010	 ldr         r3, [sp, #0x10]
  01630	e2833001	 add         r3, r3, #1
  01634	e58d3010	 str         r3, [sp, #0x10]
  01638		 |$LN6@get_phys|
  01638	e59d3010	 ldr         r3, [sp, #0x10]
  0163c	e3530002	 cmp         r3, #2
  01640	aa000023	 bge         |$LN4@get_phys|

; 531  :         if (virtp >= block_virtp[bi] && virtp < block_virtend[bi]) {

  01644	e59d1010	 ldr         r1, [sp, #0x10]
  01648	e3a03004	 mov         r3, #4
  0164c	e0020391	 mul         r2, r1, r3
  01650	e59f3154	 ldr         r3, [pc, #0x154]
  01654	e0833002	 add         r3, r3, r2
  01658	e59d202c	 ldr         r2, [sp, #0x2C]
  0165c	e5933000	 ldr         r3, [r3]
  01660	e1520003	 cmp         r2, r3
  01664	3a000019	 bcc         |$LN3@get_phys|
  01668	e59d1010	 ldr         r1, [sp, #0x10]
  0166c	e3a03004	 mov         r3, #4
  01670	e0020391	 mul         r2, r1, r3
  01674	e59f312c	 ldr         r3, [pc, #0x12C]
  01678	e0833002	 add         r3, r3, r2
  0167c	e59d202c	 ldr         r2, [sp, #0x2C]
  01680	e5933000	 ldr         r3, [r3]
  01684	e1520003	 cmp         r2, r3
  01688	2a000010	 bcs         |$LN3@get_phys|

; 532  :             physp = virtp - block_virtoff[bi];

  0168c	e59d1010	 ldr         r1, [sp, #0x10]
  01690	e3a03004	 mov         r3, #4
  01694	e0020391	 mul         r2, r1, r3
  01698	e59f3104	 ldr         r3, [pc, #0x104]
  0169c	e0833002	 add         r3, r3, r2
  016a0	e59d202c	 ldr         r2, [sp, #0x2C]
  016a4	e5933000	 ldr         r3, [r3]
  016a8	e0423003	 sub         r3, r2, r3
  016ac	e58d300c	 str         r3, [sp, #0xC]

; 533  :             __D("get_phys: block_virtoff[%d] translated kernel %#lx to %#lx\n",
; 534  :                     bi, virtp, physp);

  016b0	e59d300c	 ldr         r3, [sp, #0xC]
  016b4	e59d202c	 ldr         r2, [sp, #0x2C]
  016b8	e59d1010	 ldr         r1, [sp, #0x10]
  016bc	e59f00dc	 ldr         r0, [pc, #0xDC]
  016c0	eb000000	 bl          NKDbgPrintfW

; 535  :             return (physp);

  016c4	e59d300c	 ldr         r3, [sp, #0xC]
  016c8	e58d301c	 str         r3, [sp, #0x1C]
  016cc	ea00002b	 b           |$LN7@get_phys|
  016d0		 |$LN3@get_phys|

; 536  :         }
; 537  :     }

  016d0	eaffffd5	 b           |$LN5@get_phys|
  016d4		 |$LN4@get_phys|

; 538  : 
; 539  :     __D("get_phys(): Requested a VA to PA mapping for an address that CMEM did not allocate!\r\n");

  016d4	e59f00c0	 ldr         r0, [pc, #0xC0]
  016d8	eb000000	 bl          NKDbgPrintfW

; 540  :     __D(" Perhaps it's in the list of busy entries?\r\n");

  016dc	e59f00b4	 ldr         r0, [pc, #0xB4]
  016e0	eb000000	 bl          NKDbgPrintfW

; 541  : 
; 542  :     offset = virtp % PAGE_SIZE; /* Offset from the beginning of a page */

  016e4	e3e03b0d	 mvn         r3, #0xD, 22
  016e8	e22330fb	 eor         r3, r3, #0xFB
  016ec	e59d102c	 ldr         r1, [sp, #0x2C]
  016f0	e5930000	 ldr         r0, [r3]
  016f4	e59f3098	 ldr         r3, [pc, #0x98]
  016f8	e5933000	 ldr         r3, [r3]
  016fc	e1a0e00f	 mov         lr, pc
  01700	e12fff13	 bx          r3
  01704	e58d1004	 str         r1, [sp, #4]

; 543  :     bufStart = virtp - offset;

  01708	e59d202c	 ldr         r2, [sp, #0x2C]
  0170c	e59d3004	 ldr         r3, [sp, #4]
  01710	e0423003	 sub         r3, r2, r3
  01714	e58d3000	 str         r3, [sp]

; 544  : 
; 545  :     /*
; 546  :      *  We will only query for one page, since we don't know the size of the
; 547  :      *  buffer we're doing the get_phys() for.
; 548  :      */
; 549  :     fRet = LockPages((LPVOID)bufStart, PAGE_SIZE, dwPFN, LOCKFLAG_QUERY_ONLY);

  01718	e3a03002	 mov         r3, #2
  0171c	e28d2014	 add         r2, sp, #0x14
  01720	e3e01b0d	 mvn         r1, #0xD, 22
  01724	e22110fb	 eor         r1, r1, #0xFB
  01728	e5911000	 ldr         r1, [r1]
  0172c	e59d0000	 ldr         r0, [sp]
  01730	eb000000	 bl          LockPages
  01734	e58d0020	 str         r0, [sp, #0x20]
  01738	e59d3020	 ldr         r3, [sp, #0x20]
  0173c	e58d3008	 str         r3, [sp, #8]

; 550  :     if (fRet) {

  01740	e59d3008	 ldr         r3, [sp, #8]
  01744	e3530000	 cmp         r3, #0
  01748	0a000008	 beq         |$LN2@get_phys|

; 551  :         physp = (dwPFN[0] << UserKInfo[KINX_PFN_SHIFT]) + offset;

  0174c	e3e03b0d	 mvn         r3, #0xD, 22
  01750	e22330f7	 eor         r3, r3, #0xF7
  01754	e59d2014	 ldr         r2, [sp, #0x14]
  01758	e5933000	 ldr         r3, [r3]
  0175c	e1a02312	 mov         r2, r2, lsl r3
  01760	e59d3004	 ldr         r3, [sp, #4]
  01764	e0823003	 add         r3, r2, r3
  01768	e58d300c	 str         r3, [sp, #0xC]

; 552  : 
; 553  :         /* Don't call UnlockPages() since we only did a query */
; 554  :     }
; 555  :     else {

  0176c	ea000001	 b           |$LN1@get_phys|
  01770		 |$LN2@get_phys|

; 556  :         __E("get_phys(): LockPages(0x%x) failed!\n");

  01770	e59f0018	 ldr         r0, [pc, #0x18]
  01774	eb000000	 bl          NKDbgPrintfW
  01778		 |$LN1@get_phys|

; 557  :     }
; 558  : 
; 559  :     return (physp);

  01778	e59d300c	 ldr         r3, [sp, #0xC]
  0177c	e58d301c	 str         r3, [sp, #0x1C]
  01780		 |$LN7@get_phys|

; 560  : }

  01780	e59d001c	 ldr         r0, [sp, #0x1C]
  01784	e28dd024	 add         sp, sp, #0x24
  01788	e89d6000	 ldmia       sp, {sp, lr}
  0178c	e12fff1e	 bx          lr
  01790		 |$LN12@get_phys|
  01790		 |$LN13@get_phys|
  01790	00000000	 DCD         |??_C@_1GE@COLDEHO@?$AAC?$AAM?$AAE?$AAM?$AAK?$AA?5?$AAE?$AAr?$AAr?$AAo?$AAr?$AA?3?$AA?5?$AAg?$AAe?$AAt?$AA_?$AAp?$AAh?$AAy?$AAs?$AA?$CI?$AA?$CJ?$AA?3?$AA?5?$AAL?$AAo?$AAc?$AAk?$AAP?$AAa?$AAg@|
  01794		 |$LN14@get_phys|
  01794	00000000	 DCD         |__imp___rt_udiv|
  01798		 |$LN15@get_phys|
  01798	00000000	 DCD         |??_C@_1HE@HKOILLJD@?$AAC?$AAM?$AAE?$AAM?$AAK?$AA?5?$AAD?$AAe?$AAb?$AAu?$AAg?$AA?3?$AA?5?$AA?5?$AAP?$AAe?$AAr?$AAh?$AAa?$AAp?$AAs?$AA?5?$AAi?$AAt?$AA?8?$AAs?$AA?5?$AAi?$AAn?$AA?5?$AAt?$AAh@|
  0179c		 |$LN16@get_phys|
  0179c	00000000	 DCD         |??_C@_1MG@IOKOPAFG@?$AAC?$AAM?$AAE?$AAM?$AAK?$AA?5?$AAD?$AAe?$AAb?$AAu?$AAg?$AA?3?$AA?5?$AAg?$AAe?$AAt?$AA_?$AAp?$AAh?$AAy?$AAs?$AA?$CI?$AA?$CJ?$AA?3?$AA?5?$AAR?$AAe?$AAq?$AAu?$AAe?$AAs?$AAt@|
  017a0		 |$LN17@get_phys|
  017a0	00000000	 DCD         |??_C@_1JC@FDINJJIA@?$AAC?$AAM?$AAE?$AAM?$AAK?$AA?5?$AAD?$AAe?$AAb?$AAu?$AAg?$AA?3?$AA?5?$AAg?$AAe?$AAt?$AA_?$AAp?$AAh?$AAy?$AAs?$AA?3?$AA?5?$AAb?$AAl?$AAo?$AAc?$AAk?$AA_?$AAv?$AAi?$AAr@|
  017a4		 |$LN18@get_phys|
  017a4	00000000	 DCD         |block_virtoff|
  017a8		 |$LN19@get_phys|
  017a8	00000000	 DCD         |block_virtend|
  017ac		 |$LN20@get_phys|
  017ac	00000000	 DCD         |block_virtp|
  017b0		 |$M41254|

			 ENDP  ; |get_phys|

	EXPORT	|??_C@_1GK@INLGMAOE@?$AAC?$AAM?$AAE?$AAM?$AAK?$AA?5?$AAE?$AAr?$AAr?$AAo?$AAr?$AA?3?$AA?5?$AAF?$AAa?$AAi?$AAl?$AAe?$AAd?$AA?5?$AAt?$AAo?$AA?5?$AAf?$AAi?$AAn?$AAd?$AA?5?$AAa?$AA?5?$AAb?$AAi@| [ DATA ] ; `string'
	EXPORT	|??_C@_1II@HFFAIEFN@?$AAC?$AAM?$AAE?$AAM?$AAK?$AA?5?$AAD?$AAe?$AAb?$AAu?$AAg?$AA?3?$AA?5?$AAa?$AAl?$AAl?$AAo?$AAc?$AA_?$AAp?$AAo?$AAo?$AAl?$AA_?$AAb?$AAu?$AAf?$AAf?$AAe?$AAr?$AA?3?$AA?5@| [ DATA ] ; `string'
	EXPORT	|??_C@_1IA@NAJHAEMN@?$AAC?$AAM?$AAE?$AAM?$AAK?$AA?5?$AAD?$AAe?$AAb?$AAu?$AAg?$AA?3?$AA?5?$AAa?$AAl?$AAl?$AAo?$AAc?$AA_?$AAp?$AAo?$AAo?$AAl?$AA_?$AAb?$AAu?$AAf?$AAf?$AAe?$AAr?$AA?3?$AA?5@| [ DATA ] ; `string'
	EXPORT	|??_C@_1HC@EFJIJMPJ@?$AAC?$AAM?$AAE?$AAM?$AAK?$AA?5?$AAD?$AAe?$AAb?$AAu?$AAg?$AA?3?$AA?5?$AAa?$AAl?$AAl?$AAo?$AAc?$AA_?$AAp?$AAo?$AAo?$AAl?$AA_?$AAb?$AAu?$AAf?$AAf?$AAe?$AAr?$AA?3?$AA?5@| [ DATA ] ; `string'
	EXPORT	|??_C@_1GI@EPCLDAFB@?$AAC?$AAM?$AAE?$AAM?$AAK?$AA?5?$AAD?$AAe?$AAb?$AAu?$AAg?$AA?3?$AA?5?$AAa?$AAl?$AAl?$AAo?$AAc?$AA_?$AAp?$AAo?$AAo?$AAl?$AA_?$AAb?$AAu?$AAf?$AAf?$AAe?$AAr?$AA?3?$AA?5@| [ DATA ] ; `string'

  00028			 AREA	 |.pdata|, PDATA
|$T41271| DCD	|$LN6@alloc_pool@2|
	DCD	0x40005204

  00000			 AREA	 |.rdata|, DATA, READONLY
|??_C@_1GK@INLGMAOE@?$AAC?$AAM?$AAE?$AAM?$AAK?$AA?5?$AAE?$AAr?$AAr?$AAo?$AAr?$AA?3?$AA?5?$AAF?$AAa?$AAi?$AAl?$AAe?$AAd?$AA?5?$AAt?$AAo?$AA?5?$AAf?$AAi?$AAn?$AAd?$AA?5?$AAa?$AA?5?$AAb?$AAi@| DCB "C"
	DCB	0x0, "M", 0x0, "E", 0x0, "M", 0x0, "K", 0x0, " ", 0x0, "E"
	DCB	0x0, "r", 0x0, "r", 0x0, "o", 0x0, "r", 0x0, ":", 0x0, " "
	DCB	0x0, "F", 0x0, "a", 0x0, "i", 0x0, "l", 0x0, "e", 0x0, "d"
	DCB	0x0, " ", 0x0, "t", 0x0, "o", 0x0, " ", 0x0, "f", 0x0, "i"
	DCB	0x0, "n", 0x0, "d", 0x0, " ", 0x0, "a", 0x0, " ", 0x0, "b"
	DCB	0x0, "i", 0x0, "g", 0x0, " ", 0x0, "e", 0x0, "n", 0x0, "o"
	DCB	0x0, "u", 0x0, "g", 0x0, "h", 0x0, " ", 0x0, "f", 0x0, "r"
	DCB	0x0, "e", 0x0, "e", 0x0, " ", 0x0, "b", 0x0, "l", 0x0, "o"
	DCB	0x0, "c", 0x0, "k", 0x0, 0xa, 0x0, 0x0, 0x0 ; `string'

  00000			 AREA	 |.rdata|, DATA, READONLY
|??_C@_1II@HFFAIEFN@?$AAC?$AAM?$AAE?$AAM?$AAK?$AA?5?$AAD?$AAe?$AAb?$AAu?$AAg?$AA?3?$AA?5?$AAa?$AAl?$AAl?$AAo?$AAc?$AA_?$AAp?$AAo?$AAo?$AAl?$AA_?$AAb?$AAu?$AAf?$AAf?$AAe?$AAr?$AA?3?$AA?5@| DCB "C"
	DCB	0x0, "M", 0x0, "E", 0x0, "M", 0x0, "K", 0x0, " ", 0x0, "D"
	DCB	0x0, "e", 0x0, "b", 0x0, "u", 0x0, "g", 0x0, ":", 0x0, " "
	DCB	0x0, "a", 0x0, "l", 0x0, "l", 0x0, "o", 0x0, "c", 0x0, "_"
	DCB	0x0, "p", 0x0, "o", 0x0, "o", 0x0, "l", 0x0, "_", 0x0, "b"
	DCB	0x0, "u", 0x0, "f", 0x0, "f", 0x0, "e", 0x0, "r", 0x0, ":"
	DCB	0x0, " ", 0x0, "r", 0x0, "e", 0x0, "t", 0x0, "u", 0x0, "r"
	DCB	0x0, "n", 0x0, "i", 0x0, "n", 0x0, "g", 0x0, " ", 0x0, "a"
	DCB	0x0, "l", 0x0, "l", 0x0, "o", 0x0, "c", 0x0, "a", 0x0, "t"
	DCB	0x0, "e", 0x0, "d", 0x0, " ", 0x0, "b", 0x0, "u", 0x0, "f"
	DCB	0x0, "f", 0x0, "e", 0x0, "r", 0x0, " ", 0x0, "a", 0x0, "t"
	DCB	0x0, " ", 0x0, "%", 0x0, "#", 0x0, "l", 0x0, "x", 0x0, 0xa
	DCB	0x0, 0x0, 0x0				; `string'

  00000			 AREA	 |.rdata|, DATA, READONLY
|??_C@_1IA@NAJHAEMN@?$AAC?$AAM?$AAE?$AAM?$AAK?$AA?5?$AAD?$AAe?$AAb?$AAu?$AAg?$AA?3?$AA?5?$AAa?$AAl?$AAl?$AAo?$AAc?$AA_?$AAp?$AAo?$AAo?$AAl?$AA_?$AAb?$AAu?$AAf?$AAf?$AAe?$AAr?$AA?3?$AA?5@| DCB "C"
	DCB	0x0, "M", 0x0, "E", 0x0, "M", 0x0, "K", 0x0, " ", 0x0, "D"
	DCB	0x0, "e", 0x0, "b", 0x0, "u", 0x0, "g", 0x0, ":", 0x0, " "
	DCB	0x0, "a", 0x0, "l", 0x0, "l", 0x0, "o", 0x0, "c", 0x0, "_"
	DCB	0x0, "p", 0x0, "o", 0x0, "o", 0x0, "l", 0x0, "_", 0x0, "b"
	DCB	0x0, "u", 0x0, "f", 0x0, "f", 0x0, "e", 0x0, "r", 0x0, ":"
	DCB	0x0, " ", 0x0, "n", 0x0, "e", 0x0, "w", 0x0, " ", 0x0, "a"
	DCB	0x0, "v", 0x0, "a", 0x0, "i", 0x0, "l", 0x0, "a", 0x0, "b"
	DCB	0x0, "l", 0x0, "e", 0x0, " ", 0x0, "b", 0x0, "l", 0x0, "o"
	DCB	0x0, "c", 0x0, "k", 0x0, " ", 0x0, "s", 0x0, "i", 0x0, "z"
	DCB	0x0, "e", 0x0, " ", 0x0, "i", 0x0, "s", 0x0, " ", 0x0, "%"
	DCB	0x0, "d", 0x0, 0xa, 0x0, 0x0, 0x0	; `string'

  00000			 AREA	 |.rdata|, DATA, READONLY
|??_C@_1HC@EFJIJMPJ@?$AAC?$AAM?$AAE?$AAM?$AAK?$AA?5?$AAD?$AAe?$AAb?$AAu?$AAg?$AA?3?$AA?5?$AAa?$AAl?$AAl?$AAo?$AAc?$AA_?$AAp?$AAo?$AAo?$AAl?$AA_?$AAb?$AAu?$AAf?$AAf?$AAe?$AAr?$AA?3?$AA?5@| DCB "C"
	DCB	0x0, "M", 0x0, "E", 0x0, "M", 0x0, "K", 0x0, " ", 0x0, "D"
	DCB	0x0, "e", 0x0, "b", 0x0, "u", 0x0, "g", 0x0, ":", 0x0, " "
	DCB	0x0, "a", 0x0, "l", 0x0, "l", 0x0, "o", 0x0, "c", 0x0, "_"
	DCB	0x0, "p", 0x0, "o", 0x0, "o", 0x0, "l", 0x0, "_", 0x0, "b"
	DCB	0x0, "u", 0x0, "f", 0x0, "f", 0x0, "e", 0x0, "r", 0x0, ":"
	DCB	0x0, " ", 0x0, "F", 0x0, "i", 0x0, "t", 0x0, "s", 0x0, " "
	DCB	0x0, "r", 0x0, "e", 0x0, "q", 0x0, " ", 0x0, "%", 0x0, "u"
	DCB	0x0, " ", 0x0, "<", 0x0, " ", 0x0, "a", 0x0, "v", 0x0, "a"
	DCB	0x0, "i", 0x0, "l", 0x0, ":", 0x0, " ", 0x0, "%", 0x0, "u"
	DCB	0x0, 0xa, 0x0, 0x0, 0x0			; `string'

  00000			 AREA	 |.rdata|, DATA, READONLY
|??_C@_1GI@EPCLDAFB@?$AAC?$AAM?$AAE?$AAM?$AAK?$AA?5?$AAD?$AAe?$AAb?$AAu?$AAg?$AA?3?$AA?5?$AAa?$AAl?$AAl?$AAo?$AAc?$AA_?$AAp?$AAo?$AAo?$AAl?$AA_?$AAb?$AAu?$AAf?$AAf?$AAe?$AAr?$AA?3?$AA?5@| DCB "C"
	DCB	0x0, "M", 0x0, "E", 0x0, "M", 0x0, "K", 0x0, " ", 0x0, "D"
	DCB	0x0, "e", 0x0, "b", 0x0, "u", 0x0, "g", 0x0, ":", 0x0, " "
	DCB	0x0, "a", 0x0, "l", 0x0, "l", 0x0, "o", 0x0, "c", 0x0, "_"
	DCB	0x0, "p", 0x0, "o", 0x0, "o", 0x0, "l", 0x0, "_", 0x0, "b"
	DCB	0x0, "u", 0x0, "f", 0x0, "f", 0x0, "e", 0x0, "r", 0x0, ":"
	DCB	0x0, " ", 0x0, "C", 0x0, "a", 0x0, "l", 0x0, "l", 0x0, "e"
	DCB	0x0, "d", 0x0, " ", 0x0, "f", 0x0, "o", 0x0, "r", 0x0, " "
	DCB	0x0, "s", 0x0, "i", 0x0, "z", 0x0, "e", 0x0, " ", 0x0, "%"
	DCB	0x0, "u", 0x0, 0xa, 0x0, 0x0, 0x0	; `string'
; Function compile flags: /Odtp

  017b0			 AREA	 |.text|, CODE, ARM

  017b0		 |alloc_pool_buffer| PROC

; 564  : {

  017b0		 |$LN6@alloc_pool@2|
  017b0	e1a0c00d	 mov         r12, sp
  017b4	e92d0003	 stmdb       sp!, {r0, r1}
  017b8	e92d5000	 stmdb       sp!, {r12, lr}
  017bc	e24dd008	 sub         sp, sp, #8
  017c0		 |$M41268|

; 565  :     unsigned long virtp;
; 566  : 
; 567  :     __D("alloc_pool_buffer: Called for size %u\n", size);

  017c0	e59d1014	 ldr         r1, [sp, #0x14]
  017c4	e59f0128	 ldr         r0, [pc, #0x128]
  017c8	eb000000	 bl          NKDbgPrintfW

; 568  : 
; 569  :     if (size <= block_avail_size[bi]) {

  017cc	e59d1010	 ldr         r1, [sp, #0x10]
  017d0	e3a03004	 mov         r3, #4
  017d4	e0020391	 mul         r2, r1, r3
  017d8	e59f3108	 ldr         r3, [pc, #0x108]
  017dc	e0833002	 add         r3, r3, r2
  017e0	e59d2014	 ldr         r2, [sp, #0x14]
  017e4	e5933000	 ldr         r3, [r3]
  017e8	e1520003	 cmp         r2, r3
  017ec	8a000032	 bhi         |$LN1@alloc_pool@2|

; 570  :         __D("alloc_pool_buffer: Fits req %u < avail: %u\n",
; 571  :                 size, block_avail_size[bi]);

  017f0	e59d1010	 ldr         r1, [sp, #0x10]
  017f4	e3a03004	 mov         r3, #4
  017f8	e0020391	 mul         r2, r1, r3
  017fc	e59f30e4	 ldr         r3, [pc, #0xE4]
  01800	e0833002	 add         r3, r3, r2
  01804	e5932000	 ldr         r2, [r3]
  01808	e59d1014	 ldr         r1, [sp, #0x14]
  0180c	e59f00dc	 ldr         r0, [pc, #0xDC]
  01810	eb000000	 bl          NKDbgPrintfW

; 572  : 
; 573  :         block_avail_size[bi] -= size;

  01814	e59d1010	 ldr         r1, [sp, #0x10]
  01818	e3a03004	 mov         r3, #4
  0181c	e0020391	 mul         r2, r1, r3
  01820	e59f30c0	 ldr         r3, [pc, #0xC0]
  01824	e0833002	 add         r3, r3, r2
  01828	e5932000	 ldr         r2, [r3]
  0182c	e59d3014	 ldr         r3, [sp, #0x14]
  01830	e0420003	 sub         r0, r2, r3
  01834	e59d1010	 ldr         r1, [sp, #0x10]
  01838	e3a03004	 mov         r3, #4
  0183c	e0020391	 mul         r2, r1, r3
  01840	e59f30a0	 ldr         r3, [pc, #0xA0]
  01844	e0833002	 add         r3, r3, r2
  01848	e5830000	 str         r0, [r3]

; 574  :         virtp = block_virtp[bi] + block_avail_size[bi];

  0184c	e59d1010	 ldr         r1, [sp, #0x10]
  01850	e3a03004	 mov         r3, #4
  01854	e0020391	 mul         r2, r1, r3
  01858	e59f308c	 ldr         r3, [pc, #0x8C]
  0185c	e0830002	 add         r0, r3, r2
  01860	e59d1010	 ldr         r1, [sp, #0x10]
  01864	e3a03004	 mov         r3, #4
  01868	e0020391	 mul         r2, r1, r3
  0186c	e59f3074	 ldr         r3, [pc, #0x74]
  01870	e0833002	 add         r3, r3, r2
  01874	e5902000	 ldr         r2, [r0]
  01878	e5933000	 ldr         r3, [r3]
  0187c	e0823003	 add         r3, r2, r3
  01880	e58d3000	 str         r3, [sp]

; 575  : 
; 576  :         __D("alloc_pool_buffer: new available block size is %d\n",
; 577  :                 block_avail_size[bi]);

  01884	e59d1010	 ldr         r1, [sp, #0x10]
  01888	e3a03004	 mov         r3, #4
  0188c	e0020391	 mul         r2, r1, r3
  01890	e59f3050	 ldr         r3, [pc, #0x50]
  01894	e0833002	 add         r3, r3, r2
  01898	e5931000	 ldr         r1, [r3]
  0189c	e59f0040	 ldr         r0, [pc, #0x40]
  018a0	eb000000	 bl          NKDbgPrintfW

; 578  :         __D("alloc_pool_buffer: returning allocated buffer at %#lx\n", virtp);

  018a4	e59d1000	 ldr         r1, [sp]
  018a8	e59f0030	 ldr         r0, [pc, #0x30]
  018ac	eb000000	 bl          NKDbgPrintfW

; 579  : 
; 580  :         return virtp;

  018b0	e59d3000	 ldr         r3, [sp]
  018b4	e58d3004	 str         r3, [sp, #4]
  018b8	ea000003	 b           |$LN2@alloc_pool@2|
  018bc		 |$LN1@alloc_pool@2|

; 581  :     }
; 582  : 
; 583  :     __E("Failed to find a big enough free block\n");

  018bc	e59f0018	 ldr         r0, [pc, #0x18]
  018c0	eb000000	 bl          NKDbgPrintfW

; 584  : 
; 585  :     return 0;

  018c4	e3a03000	 mov         r3, #0
  018c8	e58d3004	 str         r3, [sp, #4]
  018cc		 |$LN2@alloc_pool@2|

; 586  : }

  018cc	e59d0004	 ldr         r0, [sp, #4]
  018d0	e28dd008	 add         sp, sp, #8
  018d4	e89d6000	 ldmia       sp, {sp, lr}
  018d8	e12fff1e	 bx          lr
  018dc		 |$LN7@alloc_pool@2|
  018dc		 |$LN8@alloc_pool@2|
  018dc	00000000	 DCD         |??_C@_1GK@INLGMAOE@?$AAC?$AAM?$AAE?$AAM?$AAK?$AA?5?$AAE?$AAr?$AAr?$AAo?$AAr?$AA?3?$AA?5?$AAF?$AAa?$AAi?$AAl?$AAe?$AAd?$AA?5?$AAt?$AAo?$AA?5?$AAf?$AAi?$AAn?$AAd?$AA?5?$AAa?$AA?5?$AAb?$AAi@|
  018e0		 |$LN9@alloc_pool@2|
  018e0	00000000	 DCD         |??_C@_1II@HFFAIEFN@?$AAC?$AAM?$AAE?$AAM?$AAK?$AA?5?$AAD?$AAe?$AAb?$AAu?$AAg?$AA?3?$AA?5?$AAa?$AAl?$AAl?$AAo?$AAc?$AA_?$AAp?$AAo?$AAo?$AAl?$AA_?$AAb?$AAu?$AAf?$AAf?$AAe?$AAr?$AA?3?$AA?5@|
  018e4		 |$LN10@alloc_pool@2|
  018e4	00000000	 DCD         |??_C@_1IA@NAJHAEMN@?$AAC?$AAM?$AAE?$AAM?$AAK?$AA?5?$AAD?$AAe?$AAb?$AAu?$AAg?$AA?3?$AA?5?$AAa?$AAl?$AAl?$AAo?$AAc?$AA_?$AAp?$AAo?$AAo?$AAl?$AA_?$AAb?$AAu?$AAf?$AAf?$AAe?$AAr?$AA?3?$AA?5@|
  018e8		 |$LN11@alloc_pool@2|
  018e8	00000000	 DCD         |block_avail_size|
  018ec		 |$LN12@alloc_pool@2|
  018ec	00000000	 DCD         |block_virtp|
  018f0		 |$LN13@alloc_pool@2|
  018f0	00000000	 DCD         |??_C@_1HC@EFJIJMPJ@?$AAC?$AAM?$AAE?$AAM?$AAK?$AA?5?$AAD?$AAe?$AAb?$AAu?$AAg?$AA?3?$AA?5?$AAa?$AAl?$AAl?$AAo?$AAc?$AA_?$AAp?$AAo?$AAo?$AAl?$AA_?$AAb?$AAu?$AAf?$AAf?$AAe?$AAr?$AA?3?$AA?5@|
  018f4		 |$LN14@alloc_pool@2|
  018f4	00000000	 DCD         |??_C@_1GI@EPCLDAFB@?$AAC?$AAM?$AAE?$AAM?$AAK?$AA?5?$AAD?$AAe?$AAb?$AAu?$AAg?$AA?3?$AA?5?$AAa?$AAl?$AAl?$AAo?$AAc?$AA_?$AAp?$AAo?$AAo?$AAl?$AA_?$AAb?$AAu?$AAf?$AAf?$AAe?$AAr?$AA?3?$AA?5@|
  018f8		 |$M41269|

			 ENDP  ; |alloc_pool_buffer|

	EXPORT	|??_C@_1IA@PINDAFCE@?$AAC?$AAM?$AAE?$AAM?$AAK?$AA?5?$AAD?$AAe?$AAb?$AAu?$AAg?$AA?3?$AA?5?$AAF?$AAr?$AAe?$AAe?$AA?3?$AA?5?$AAB?$AAu?$AAf?$AAf?$AAe?$AAr?$AA?5?$AAw?$AAi?$AAt?$AAh?$AA?5?$AAi@| [ DATA ] ; `string'
	EXPORT	|??_C@_1EI@KIBDDIBI@?$AAC?$AAM?$AAE?$AAM?$AAK?$AA?5?$AAD?$AAe?$AAb?$AAu?$AAg?$AA?3?$AA?5?$AAF?$AAr?$AAe?$AAe?$AAl?$AAi?$AAs?$AAt?$AA?5?$AAf?$AAo?$AAr?$AA?5?$AAp?$AAo?$AAo?$AAl?$AA?5?$AA?$CF@| [ DATA ] ; `string'
	EXPORT	|??_C@_1IA@HLDGFKLC@?$AAC?$AAM?$AAE?$AAM?$AAK?$AA?5?$AAD?$AAe?$AAb?$AAu?$AAg?$AA?3?$AA?5?$AAB?$AAu?$AAs?$AAy?$AA?3?$AA?5?$AAB?$AAu?$AAf?$AAf?$AAe?$AAr?$AA?5?$AAw?$AAi?$AAt?$AAh?$AA?5?$AAi@| [ DATA ] ; `string'
	EXPORT	|??_C@_1EI@GHMIEHGN@?$AAC?$AAM?$AAE?$AAM?$AAK?$AA?5?$AAD?$AAe?$AAb?$AAu?$AAg?$AA?3?$AA?5?$AAB?$AAu?$AAs?$AAy?$AAl?$AAi?$AAs?$AAt?$AA?5?$AAf?$AAo?$AAr?$AA?5?$AAp?$AAo?$AAo?$AAl?$AA?5?$AA?$CF@| [ DATA ] ; `string'
	IMPORT	|ReleaseMutex|
	IMPORT	|WaitForSingleObject|

  00030			 AREA	 |.pdata|, PDATA
|$T41284| DCD	|$LN12@dump_lists|
	DCD	0x40006004

  00000			 AREA	 |.rdata|, DATA, READONLY
|??_C@_1IA@PINDAFCE@?$AAC?$AAM?$AAE?$AAM?$AAK?$AA?5?$AAD?$AAe?$AAb?$AAu?$AAg?$AA?3?$AA?5?$AAF?$AAr?$AAe?$AAe?$AA?3?$AA?5?$AAB?$AAu?$AAf?$AAf?$AAe?$AAr?$AA?5?$AAw?$AAi?$AAt?$AAh?$AA?5?$AAi@| DCB "C"
	DCB	0x0, "M", 0x0, "E", 0x0, "M", 0x0, "K", 0x0, " ", 0x0, "D"
	DCB	0x0, "e", 0x0, "b", 0x0, "u", 0x0, "g", 0x0, ":", 0x0, " "
	DCB	0x0, "F", 0x0, "r", 0x0, "e", 0x0, "e", 0x0, ":", 0x0, " "
	DCB	0x0, "B", 0x0, "u", 0x0, "f", 0x0, "f", 0x0, "e", 0x0, "r"
	DCB	0x0, " ", 0x0, "w", 0x0, "i", 0x0, "t", 0x0, "h", 0x0, " "
	DCB	0x0, "i", 0x0, "d", 0x0, " ", 0x0, "%", 0x0, "d", 0x0, " "
	DCB	0x0, "a", 0x0, "n", 0x0, "d", 0x0, " ", 0x0, "p", 0x0, "h"
	DCB	0x0, "y", 0x0, "s", 0x0, "i", 0x0, "c", 0x0, "a", 0x0, "l"
	DCB	0x0, " ", 0x0, "a", 0x0, "d", 0x0, "d", 0x0, "r", 0x0, "e"
	DCB	0x0, "s", 0x0, "s", 0x0, " ", 0x0, "%", 0x0, "#", 0x0, "l"
	DCB	0x0, "x", 0x0, 0xa, 0x0, 0x0, 0x0	; `string'

  00000			 AREA	 |.rdata|, DATA, READONLY
|??_C@_1EI@KIBDDIBI@?$AAC?$AAM?$AAE?$AAM?$AAK?$AA?5?$AAD?$AAe?$AAb?$AAu?$AAg?$AA?3?$AA?5?$AAF?$AAr?$AAe?$AAe?$AAl?$AAi?$AAs?$AAt?$AA?5?$AAf?$AAo?$AAr?$AA?5?$AAp?$AAo?$AAo?$AAl?$AA?5?$AA?$CF@| DCB "C"
	DCB	0x0, "M", 0x0, "E", 0x0, "M", 0x0, "K", 0x0, " ", 0x0, "D"
	DCB	0x0, "e", 0x0, "b", 0x0, "u", 0x0, "g", 0x0, ":", 0x0, " "
	DCB	0x0, "F", 0x0, "r", 0x0, "e", 0x0, "e", 0x0, "l", 0x0, "i"
	DCB	0x0, "s", 0x0, "t", 0x0, " ", 0x0, "f", 0x0, "o", 0x0, "r"
	DCB	0x0, " ", 0x0, "p", 0x0, "o", 0x0, "o", 0x0, "l", 0x0, " "
	DCB	0x0, "%", 0x0, "d", 0x0, ":", 0x0, 0xa, 0x0, 0x0, 0x0 ; `string'

  00000			 AREA	 |.rdata|, DATA, READONLY
|??_C@_1IA@HLDGFKLC@?$AAC?$AAM?$AAE?$AAM?$AAK?$AA?5?$AAD?$AAe?$AAb?$AAu?$AAg?$AA?3?$AA?5?$AAB?$AAu?$AAs?$AAy?$AA?3?$AA?5?$AAB?$AAu?$AAf?$AAf?$AAe?$AAr?$AA?5?$AAw?$AAi?$AAt?$AAh?$AA?5?$AAi@| DCB "C"
	DCB	0x0, "M", 0x0, "E", 0x0, "M", 0x0, "K", 0x0, " ", 0x0, "D"
	DCB	0x0, "e", 0x0, "b", 0x0, "u", 0x0, "g", 0x0, ":", 0x0, " "
	DCB	0x0, "B", 0x0, "u", 0x0, "s", 0x0, "y", 0x0, ":", 0x0, " "
	DCB	0x0, "B", 0x0, "u", 0x0, "f", 0x0, "f", 0x0, "e", 0x0, "r"
	DCB	0x0, " ", 0x0, "w", 0x0, "i", 0x0, "t", 0x0, "h", 0x0, " "
	DCB	0x0, "i", 0x0, "d", 0x0, " ", 0x0, "%", 0x0, "d", 0x0, " "
	DCB	0x0, "a", 0x0, "n", 0x0, "d", 0x0, " ", 0x0, "p", 0x0, "h"
	DCB	0x0, "y", 0x0, "s", 0x0, "i", 0x0, "c", 0x0, "a", 0x0, "l"
	DCB	0x0, " ", 0x0, "a", 0x0, "d", 0x0, "d", 0x0, "r", 0x0, "e"
	DCB	0x0, "s", 0x0, "s", 0x0, " ", 0x0, "%", 0x0, "#", 0x0, "l"
	DCB	0x0, "x", 0x0, 0xa, 0x0, 0x0, 0x0	; `string'

  00000			 AREA	 |.rdata|, DATA, READONLY
|??_C@_1EI@GHMIEHGN@?$AAC?$AAM?$AAE?$AAM?$AAK?$AA?5?$AAD?$AAe?$AAb?$AAu?$AAg?$AA?3?$AA?5?$AAB?$AAu?$AAs?$AAy?$AAl?$AAi?$AAs?$AAt?$AA?5?$AAf?$AAo?$AAr?$AA?5?$AAp?$AAo?$AAo?$AAl?$AA?5?$AA?$CF@| DCB "C"
	DCB	0x0, "M", 0x0, "E", 0x0, "M", 0x0, "K", 0x0, " ", 0x0, "D"
	DCB	0x0, "e", 0x0, "b", 0x0, "u", 0x0, "g", 0x0, ":", 0x0, " "
	DCB	0x0, "B", 0x0, "u", 0x0, "s", 0x0, "y", 0x0, "l", 0x0, "i"
	DCB	0x0, "s", 0x0, "t", 0x0, " ", 0x0, "f", 0x0, "o", 0x0, "r"
	DCB	0x0, " ", 0x0, "p", 0x0, "o", 0x0, "o", 0x0, "l", 0x0, " "
	DCB	0x0, "%", 0x0, "d", 0x0, ":", 0x0, 0xa, 0x0, 0x0, 0x0 ; `string'
; Function compile flags: /Odtp

  018f8			 AREA	 |.text|, CODE, ARM

  018f8		 |dump_lists| PROC

; 595  : {

  018f8		 |$LN12@dump_lists|
  018f8	e1a0c00d	 mov         r12, sp
  018fc	e92d0003	 stmdb       sp!, {r0, r1}
  01900	e92d5000	 stmdb       sp!, {r12, lr}
  01904	e24dd014	 sub         sp, sp, #0x14
  01908		 |$M41281|

; 596  :     LIST_ENTRY *freelistp = &p_objs[bi][idx].freelist;

  01908	e59d101c	 ldr         r1, [sp, #0x1C]
  0190c	e3a03c0e	 mov         r3, #0xE, 24
  01910	e0020391	 mul         r2, r1, r3
  01914	e59f3158	 ldr         r3, [pc, #0x158]
  01918	e0831002	 add         r1, r3, r2
  0191c	e59d2020	 ldr         r2, [sp, #0x20]
  01920	e3a0301c	 mov         r3, #0x1C
  01924	e0030392	 mul         r3, r2, r3
  01928	e0813003	 add         r3, r1, r3
  0192c	e58d3004	 str         r3, [sp, #4]

; 597  :     LIST_ENTRY *busylistp = &p_objs[bi][idx].busylist;

  01930	e59d101c	 ldr         r1, [sp, #0x1C]
  01934	e3a03c0e	 mov         r3, #0xE, 24
  01938	e0020391	 mul         r2, r1, r3
  0193c	e59f3130	 ldr         r3, [pc, #0x130]
  01940	e0831002	 add         r1, r3, r2
  01944	e59d2020	 ldr         r2, [sp, #0x20]
  01948	e3a0301c	 mov         r3, #0x1C
  0194c	e0030392	 mul         r3, r2, r3
  01950	e0813003	 add         r3, r1, r3
  01954	e2833008	 add         r3, r3, #8
  01958	e58d3000	 str         r3, [sp]

; 598  :     LIST_ENTRY *e;
; 599  :     struct pool_buffer *entry;
; 600  : 
; 601  :     if (WaitForSingleObject(cmem_mutex, INFINITE) != WAIT_OBJECT_0) {

  0195c	e3e01000	 mvn         r1, #0
  01960	e59f30f8	 ldr         r3, [pc, #0xF8]
  01964	e5930000	 ldr         r0, [r3]
  01968	eb000000	 bl          WaitForSingleObject
  0196c	e58d0010	 str         r0, [sp, #0x10]
  01970	e59d3010	 ldr         r3, [sp, #0x10]
  01974	e3530000	 cmp         r3, #0
  01978	0a000000	 beq         |$LN7@dump_lists|

; 602  :         return;

  0197c	ea000034	 b           |$LN8@dump_lists|
  01980		 |$LN7@dump_lists|

; 603  :     }
; 604  : 
; 605  :     __D("Busylist for pool %d:\n", idx);

  01980	e59d1020	 ldr         r1, [sp, #0x20]
  01984	e59f00e4	 ldr         r0, [pc, #0xE4]
  01988	eb000000	 bl          NKDbgPrintfW

; 606  :     for (e = busylistp->Flink; e != busylistp; e = e->Flink) {

  0198c	e59d3000	 ldr         r3, [sp]
  01990	e5933000	 ldr         r3, [r3]
  01994	e58d300c	 str         r3, [sp, #0xC]
  01998	ea000002	 b           |$LN6@dump_lists|
  0199c		 |$LN5@dump_lists|
  0199c	e59d300c	 ldr         r3, [sp, #0xC]
  019a0	e5933000	 ldr         r3, [r3]
  019a4	e58d300c	 str         r3, [sp, #0xC]
  019a8		 |$LN6@dump_lists|
  019a8	e59d200c	 ldr         r2, [sp, #0xC]
  019ac	e59d3000	 ldr         r3, [sp]
  019b0	e1520003	 cmp         r2, r3
  019b4	0a00000a	 beq         |$LN4@dump_lists|

; 607  : 
; 608  :         entry = list_entry(e, struct pool_buffer, element);

  019b8	e59d300c	 ldr         r3, [sp, #0xC]
  019bc	e58d3008	 str         r3, [sp, #8]

; 609  : 
; 610  :         __D("Busy: Buffer with id %d and physical address %#lx\n",
; 611  :                 entry->id, entry->physp);

  019c0	e59d3008	 ldr         r3, [sp, #8]
  019c4	e283300c	 add         r3, r3, #0xC
  019c8	e5932000	 ldr         r2, [r3]
  019cc	e59d3008	 ldr         r3, [sp, #8]
  019d0	e2833008	 add         r3, r3, #8
  019d4	e5931000	 ldr         r1, [r3]
  019d8	e59f008c	 ldr         r0, [pc, #0x8C]
  019dc	eb000000	 bl          NKDbgPrintfW

; 612  :     }

  019e0	eaffffed	 b           |$LN5@dump_lists|
  019e4		 |$LN4@dump_lists|

; 613  : 
; 614  :     __D("Freelist for pool %d:\n", idx);

  019e4	e59d1020	 ldr         r1, [sp, #0x20]
  019e8	e59f0078	 ldr         r0, [pc, #0x78]
  019ec	eb000000	 bl          NKDbgPrintfW

; 615  :     for (e = freelistp->Flink; e != freelistp; e = e->Flink) {

  019f0	e59d3004	 ldr         r3, [sp, #4]
  019f4	e5933000	 ldr         r3, [r3]
  019f8	e58d300c	 str         r3, [sp, #0xC]
  019fc	ea000002	 b           |$LN3@dump_lists|
  01a00		 |$LN2@dump_lists|
  01a00	e59d300c	 ldr         r3, [sp, #0xC]
  01a04	e5933000	 ldr         r3, [r3]
  01a08	e58d300c	 str         r3, [sp, #0xC]
  01a0c		 |$LN3@dump_lists|
  01a0c	e59d200c	 ldr         r2, [sp, #0xC]
  01a10	e59d3004	 ldr         r3, [sp, #4]
  01a14	e1520003	 cmp         r2, r3
  01a18	0a00000a	 beq         |$LN1@dump_lists|

; 616  : 
; 617  :         entry = list_entry(e, struct pool_buffer, element);

  01a1c	e59d300c	 ldr         r3, [sp, #0xC]
  01a20	e58d3008	 str         r3, [sp, #8]

; 618  : 
; 619  :         __D("Free: Buffer with id %d and physical address %#lx\n",
; 620  :                 entry->id, entry->physp);

  01a24	e59d3008	 ldr         r3, [sp, #8]
  01a28	e283300c	 add         r3, r3, #0xC
  01a2c	e5932000	 ldr         r2, [r3]
  01a30	e59d3008	 ldr         r3, [sp, #8]
  01a34	e2833008	 add         r3, r3, #8
  01a38	e5931000	 ldr         r1, [r3]
  01a3c	e59f0020	 ldr         r0, [pc, #0x20]
  01a40	eb000000	 bl          NKDbgPrintfW

; 621  :     }

  01a44	eaffffed	 b           |$LN2@dump_lists|
  01a48		 |$LN1@dump_lists|

; 622  : 
; 623  :     ReleaseMutex(cmem_mutex);

  01a48	e59f3010	 ldr         r3, [pc, #0x10]
  01a4c	e5930000	 ldr         r0, [r3]
  01a50	eb000000	 bl          ReleaseMutex
  01a54		 |$LN8@dump_lists|

; 624  : }

  01a54	e28dd014	 add         sp, sp, #0x14
  01a58	e89d6000	 ldmia       sp, {sp, lr}
  01a5c	e12fff1e	 bx          lr
  01a60		 |$LN13@dump_lists|
  01a60		 |$LN14@dump_lists|
  01a60	00000000	 DCD         |cmem_mutex|
  01a64		 |$LN15@dump_lists|
  01a64	00000000	 DCD         |??_C@_1IA@PINDAFCE@?$AAC?$AAM?$AAE?$AAM?$AAK?$AA?5?$AAD?$AAe?$AAb?$AAu?$AAg?$AA?3?$AA?5?$AAF?$AAr?$AAe?$AAe?$AA?3?$AA?5?$AAB?$AAu?$AAf?$AAf?$AAe?$AAr?$AA?5?$AAw?$AAi?$AAt?$AAh?$AA?5?$AAi@|
  01a68		 |$LN16@dump_lists|
  01a68	00000000	 DCD         |??_C@_1EI@KIBDDIBI@?$AAC?$AAM?$AAE?$AAM?$AAK?$AA?5?$AAD?$AAe?$AAb?$AAu?$AAg?$AA?3?$AA?5?$AAF?$AAr?$AAe?$AAe?$AAl?$AAi?$AAs?$AAt?$AA?5?$AAf?$AAo?$AAr?$AA?5?$AAp?$AAo?$AAo?$AAl?$AA?5?$AA?$CF@|
  01a6c		 |$LN17@dump_lists|
  01a6c	00000000	 DCD         |??_C@_1IA@HLDGFKLC@?$AAC?$AAM?$AAE?$AAM?$AAK?$AA?5?$AAD?$AAe?$AAb?$AAu?$AAg?$AA?3?$AA?5?$AAB?$AAu?$AAs?$AAy?$AA?3?$AA?5?$AAB?$AAu?$AAf?$AAf?$AAe?$AAr?$AA?5?$AAw?$AAi?$AAt?$AAh?$AA?5?$AAi@|
  01a70		 |$LN18@dump_lists|
  01a70	00000000	 DCD         |??_C@_1EI@GHMIEHGN@?$AAC?$AAM?$AAE?$AAM?$AAK?$AA?5?$AAD?$AAe?$AAb?$AAu?$AAg?$AA?3?$AA?5?$AAB?$AAu?$AAs?$AAy?$AAl?$AAi?$AAs?$AAt?$AA?5?$AAf?$AAo?$AAr?$AA?5?$AAp?$AAo?$AAo?$AAl?$AA?5?$AA?$CF@|
  01a74		 |$LN19@dump_lists|
  01a74	00000000	 DCD         |p_objs|
  01a78		 |$M41282|

			 ENDP  ; |dump_lists|

	EXPORT	|??_C@_1GE@MBPJBFA@?$AAC?$AAM?$AAE?$AAM?$AAK?$AA?3?$AA?5?$AAw?$AAa?$AAr?$AAn?$AAi?$AAn?$AAg?$AA?0?$AA?5?$AAd?$AAe?$AAi?$AAn?$AAi?$AAt?$AAi?$AAa?$AAl?$AAi?$AAz?$AAe?$AAd?$AA?5?$AAw?$AAi@| [ DATA ] ; `string'
	EXPORT	|??_C@_1FI@CEPBDDGG@?$AAC?$AAM?$AAE?$AAM?$AAK?$AA?5?$AAD?$AAe?$AAb?$AAu?$AAg?$AA?3?$AA?5?$AAF?$AAr?$AAe?$AAe?$AAi?$AAn?$AAg?$AA?5?$AAf?$AAr?$AAe?$AAe?$AA?5?$AAe?$AAn?$AAt?$AAr?$AAy?$AA?5@| [ DATA ] ; `string'
	EXPORT	|??_C@_1GK@NLHGLFNO@?$AAC?$AAM?$AAE?$AAM?$AAK?$AA?5?$AAD?$AAe?$AAb?$AAu?$AAg?$AA?3?$AA?5?$AAW?$AAa?$AAr?$AAn?$AAi?$AAn?$AAg?$AA?3?$AA?5?$AAF?$AAr?$AAe?$AAe?$AAi?$AAn?$AAg?$AA?5?$AAb?$AAu@| [ DATA ] ; `string'
	EXPORT	|??_C@_1GK@CBPANNAJ@?$AAC?$AAM?$AAE?$AAM?$AAK?$AA?5?$AAD?$AAe?$AAb?$AAu?$AAg?$AA?3?$AA?5?$AAF?$AAr?$AAe?$AAe?$AAi?$AAn?$AAg?$AA?5?$AAm?$AAe?$AAm?$AAo?$AAr?$AAy?$AA?5?$AAa?$AAs?$AAs?$AAo@| [ DATA ] ; `string'
	EXPORT	|??_C@_1DK@MPFCMFJO@?$AAC?$AAM?$AAE?$AAM?$AAK?$AA?5?$AAD?$AAe?$AAb?$AAu?$AAg?$AA?3?$AA?5?$AAI?$AAn?$AA?5?$AAc?$AAm?$AAe?$AAm?$AA_?$AAe?$AAx?$AAi?$AAt?$AA?$CI?$AA?$CJ?$AA?6?$AA?$AA@| [ DATA ] ; `string'
	EXPORT	|CMK_Deinit|
	IMPORT	|CloseHandle|
	IMPORT	|free|

  00038			 AREA	 |.pdata|, PDATA
|$T41297| DCD	|$LN21@CMK_Deinit|
	DCD	0x4000bd04

  00000			 AREA	 |.rdata|, DATA, READONLY
|??_C@_1GE@MBPJBFA@?$AAC?$AAM?$AAE?$AAM?$AAK?$AA?3?$AA?5?$AAw?$AAa?$AAr?$AAn?$AAi?$AAn?$AAg?$AA?0?$AA?5?$AAd?$AAe?$AAi?$AAn?$AAi?$AAt?$AAi?$AAa?$AAl?$AAi?$AAz?$AAe?$AAd?$AA?5?$AAw?$AAi@| DCB "C"
	DCB	0x0, "M", 0x0, "E", 0x0, "M", 0x0, "K", 0x0, ":", 0x0, " "
	DCB	0x0, "w", 0x0, "a", 0x0, "r", 0x0, "n", 0x0, "i", 0x0, "n"
	DCB	0x0, "g", 0x0, ",", 0x0, " ", 0x0, "d", 0x0, "e", 0x0, "i"
	DCB	0x0, "n", 0x0, "i", 0x0, "t", 0x0, "i", 0x0, "a", 0x0, "l"
	DCB	0x0, "i", 0x0, "z", 0x0, "e", 0x0, "d", 0x0, " ", 0x0, "w"
	DCB	0x0, "i", 0x0, "t", 0x0, "h", 0x0, " ", 0x0, "o", 0x0, "p"
	DCB	0x0, "e", 0x0, "n", 0x0, " ", 0x0, "c", 0x0, "l", 0x0, "i"
	DCB	0x0, "e", 0x0, "n", 0x0, "t", 0x0, "s", 0x0, 0xd, 0x0, 0xa
	DCB	0x0, 0x0, 0x0				; `string'

  00000			 AREA	 |.rdata|, DATA, READONLY
|??_C@_1FI@CEPBDDGG@?$AAC?$AAM?$AAE?$AAM?$AAK?$AA?5?$AAD?$AAe?$AAb?$AAu?$AAg?$AA?3?$AA?5?$AAF?$AAr?$AAe?$AAe?$AAi?$AAn?$AAg?$AA?5?$AAf?$AAr?$AAe?$AAe?$AA?5?$AAe?$AAn?$AAt?$AAr?$AAy?$AA?5@| DCB "C"
	DCB	0x0, "M", 0x0, "E", 0x0, "M", 0x0, "K", 0x0, " ", 0x0, "D"
	DCB	0x0, "e", 0x0, "b", 0x0, "u", 0x0, "g", 0x0, ":", 0x0, " "
	DCB	0x0, "F", 0x0, "r", 0x0, "e", 0x0, "e", 0x0, "i", 0x0, "n"
	DCB	0x0, "g", 0x0, " ", 0x0, "f", 0x0, "r", 0x0, "e", 0x0, "e"
	DCB	0x0, " ", 0x0, "e", 0x0, "n", 0x0, "t", 0x0, "r", 0x0, "y"
	DCB	0x0, " ", 0x0, "%", 0x0, "d", 0x0, " ", 0x0, "a", 0x0, "t"
	DCB	0x0, " ", 0x0, "%", 0x0, "#", 0x0, "l", 0x0, "x", 0x0, 0xa
	DCB	0x0, 0x0, 0x0				; `string'

  00000			 AREA	 |.rdata|, DATA, READONLY
|??_C@_1GK@NLHGLFNO@?$AAC?$AAM?$AAE?$AAM?$AAK?$AA?5?$AAD?$AAe?$AAb?$AAu?$AAg?$AA?3?$AA?5?$AAW?$AAa?$AAr?$AAn?$AAi?$AAn?$AAg?$AA?3?$AA?5?$AAF?$AAr?$AAe?$AAe?$AAi?$AAn?$AAg?$AA?5?$AAb?$AAu@| DCB "C"
	DCB	0x0, "M", 0x0, "E", 0x0, "M", 0x0, "K", 0x0, " ", 0x0, "D"
	DCB	0x0, "e", 0x0, "b", 0x0, "u", 0x0, "g", 0x0, ":", 0x0, " "
	DCB	0x0, "W", 0x0, "a", 0x0, "r", 0x0, "n", 0x0, "i", 0x0, "n"
	DCB	0x0, "g", 0x0, ":", 0x0, " ", 0x0, "F", 0x0, "r", 0x0, "e"
	DCB	0x0, "e", 0x0, "i", 0x0, "n", 0x0, "g", 0x0, " ", 0x0, "b"
	DCB	0x0, "u", 0x0, "s", 0x0, "y", 0x0, " ", 0x0, "e", 0x0, "n"
	DCB	0x0, "t", 0x0, "r", 0x0, "y", 0x0, " ", 0x0, "%", 0x0, "d"
	DCB	0x0, " ", 0x0, "a", 0x0, "t", 0x0, " ", 0x0, "%", 0x0, "#"
	DCB	0x0, "l", 0x0, "x", 0x0, 0xa, 0x0, 0x0, 0x0 ; `string'

  00000			 AREA	 |.rdata|, DATA, READONLY
|??_C@_1GK@CBPANNAJ@?$AAC?$AAM?$AAE?$AAM?$AAK?$AA?5?$AAD?$AAe?$AAb?$AAu?$AAg?$AA?3?$AA?5?$AAF?$AAr?$AAe?$AAe?$AAi?$AAn?$AAg?$AA?5?$AAm?$AAe?$AAm?$AAo?$AAr?$AAy?$AA?5?$AAa?$AAs?$AAs?$AAo@| DCB "C"
	DCB	0x0, "M", 0x0, "E", 0x0, "M", 0x0, "K", 0x0, " ", 0x0, "D"
	DCB	0x0, "e", 0x0, "b", 0x0, "u", 0x0, "g", 0x0, ":", 0x0, " "
	DCB	0x0, "F", 0x0, "r", 0x0, "e", 0x0, "e", 0x0, "i", 0x0, "n"
	DCB	0x0, "g", 0x0, " ", 0x0, "m", 0x0, "e", 0x0, "m", 0x0, "o"
	DCB	0x0, "r", 0x0, "y", 0x0, " ", 0x0, "a", 0x0, "s", 0x0, "s"
	DCB	0x0, "o", 0x0, "c", 0x0, "i", 0x0, "a", 0x0, "t", 0x0, "e"
	DCB	0x0, "d", 0x0, " ", 0x0, "w", 0x0, "i", 0x0, "t", 0x0, "h"
	DCB	0x0, " ", 0x0, "p", 0x0, "o", 0x0, "o", 0x0, "l", 0x0, " "
	DCB	0x0, "%", 0x0, "d", 0x0, 0xa, 0x0, 0x0, 0x0 ; `string'

  00000			 AREA	 |.rdata|, DATA, READONLY
|??_C@_1DK@MPFCMFJO@?$AAC?$AAM?$AAE?$AAM?$AAK?$AA?5?$AAD?$AAe?$AAb?$AAu?$AAg?$AA?3?$AA?5?$AAI?$AAn?$AA?5?$AAc?$AAm?$AAe?$AAm?$AA_?$AAe?$AAx?$AAi?$AAt?$AA?$CI?$AA?$CJ?$AA?6?$AA?$AA@| DCB "C"
	DCB	0x0, "M", 0x0, "E", 0x0, "M", 0x0, "K", 0x0, " ", 0x0, "D"
	DCB	0x0, "e", 0x0, "b", 0x0, "u", 0x0, "g", 0x0, ":", 0x0, " "
	DCB	0x0, "I", 0x0, "n", 0x0, " ", 0x0, "c", 0x0, "m", 0x0, "e"
	DCB	0x0, "m", 0x0, "_", 0x0, "e", 0x0, "x", 0x0, "i", 0x0, "t"
	DCB	0x0, "(", 0x0, ")", 0x0, 0xa, 0x0, 0x0, 0x0 ; `string'
; Function compile flags: /Odtp

  01a78			 AREA	 |.text|, CODE, ARM

  01a78		 |CMK_Deinit| PROC

; 1086 : {

  01a78		 |$LN21@CMK_Deinit|
  01a78	e1a0c00d	 mov         r12, sp
  01a7c	e92d0001	 stmdb       sp!, {r0}
  01a80	e92d5000	 stmdb       sp!, {r12, lr}
  01a84	e24dd024	 sub         sp, sp, #0x24
  01a88		 |$M41294|

; 1087 :     DEVICE_STATE *pCMKDevice = (DEVICE_STATE *)dwContext;

  01a88	e59d302c	 ldr         r3, [sp, #0x2C]
  01a8c	e58d301c	 str         r3, [sp, #0x1C]

; 1088 :     LIST_ENTRY *freelistp;
; 1089 :     LIST_ENTRY *busylistp;
; 1090 :     LIST_ENTRY *e;
; 1091 :     struct pool_buffer *entry;
; 1092 :     int num_pools;
; 1093 :     int bi;
; 1094 :     int i;
; 1095 : 
; 1096 :     __D("In cmem_exit()\n");

  01a90	e59f02d0	 ldr         r0, [pc, #0x2D0]
  01a94	eb000000	 bl          NKDbgPrintfW

; 1097 : 
; 1098 :     for (bi = 0; bi < NBLOCKS; bi++) {

  01a98	e3a03000	 mov         r3, #0
  01a9c	e58d3010	 str         r3, [sp, #0x10]
  01aa0	ea000002	 b           |$LN16@CMK_Deinit|
  01aa4		 |$LN15@CMK_Deinit|
  01aa4	e59d3010	 ldr         r3, [sp, #0x10]
  01aa8	e2833001	 add         r3, r3, #1
  01aac	e58d3010	 str         r3, [sp, #0x10]
  01ab0		 |$LN16@CMK_Deinit|
  01ab0	e59d3010	 ldr         r3, [sp, #0x10]
  01ab4	e3530002	 cmp         r3, #2
  01ab8	aa00008c	 bge         |$LN14@CMK_Deinit|

; 1099 :         num_pools = npools[bi];

  01abc	e59d1010	 ldr         r1, [sp, #0x10]
  01ac0	e3a03004	 mov         r3, #4
  01ac4	e0020391	 mul         r2, r1, r3
  01ac8	e59f3294	 ldr         r3, [pc, #0x294]
  01acc	e0833002	 add         r3, r3, r2
  01ad0	e5933000	 ldr         r3, [r3]
  01ad4	e58d300c	 str         r3, [sp, #0xC]

; 1100 :         if (!num_pools) {

  01ad8	e59d300c	 ldr         r3, [sp, #0xC]
  01adc	e3530000	 cmp         r3, #0
  01ae0	1a000000	 bne         |$LN13@CMK_Deinit|

; 1101 :             continue;

  01ae4	eaffffee	 b           |$LN15@CMK_Deinit|
  01ae8		 |$LN13@CMK_Deinit|

; 1102 :         }
; 1103 : 
; 1104 :         if (heap_pool[bi] != -1) {

  01ae8	e59d1010	 ldr         r1, [sp, #0x10]
  01aec	e3a03004	 mov         r3, #4
  01af0	e0020391	 mul         r2, r1, r3
  01af4	e59f3264	 ldr         r3, [pc, #0x264]
  01af8	e0833002	 add         r3, r3, r2
  01afc	e5933000	 ldr         r3, [r3]
  01b00	e3730001	 cmn         r3, #1
  01b04	0a000002	 beq         |$LN12@CMK_Deinit|

; 1105 :             num_pools++;

  01b08	e59d300c	 ldr         r3, [sp, #0xC]
  01b0c	e2833001	 add         r3, r3, #1
  01b10	e58d300c	 str         r3, [sp, #0xC]
  01b14		 |$LN12@CMK_Deinit|

; 1106 :         }
; 1107 : 
; 1108 :         /* Free the pool structures and empty the lists. */
; 1109 :         for (i=0; i<num_pools; i++) {

  01b14	e3a03000	 mov         r3, #0
  01b18	e58d3008	 str         r3, [sp, #8]
  01b1c	ea000002	 b           |$LN11@CMK_Deinit|
  01b20		 |$LN10@CMK_Deinit|
  01b20	e59d3008	 ldr         r3, [sp, #8]
  01b24	e2833001	 add         r3, r3, #1
  01b28	e58d3008	 str         r3, [sp, #8]
  01b2c		 |$LN11@CMK_Deinit|
  01b2c	e59d2008	 ldr         r2, [sp, #8]
  01b30	e59d300c	 ldr         r3, [sp, #0xC]
  01b34	e1520003	 cmp         r2, r3
  01b38	aa000046	 bge         |$LN9@CMK_Deinit|

; 1110 :             __D("Freeing memory associated with pool %d\n", i);

  01b3c	e59d1008	 ldr         r1, [sp, #8]
  01b40	e59f0214	 ldr         r0, [pc, #0x214]
  01b44	eb000000	 bl          NKDbgPrintfW

; 1111 : 
; 1112 :             freelistp = &p_objs[bi][i].freelist;

  01b48	e59d1010	 ldr         r1, [sp, #0x10]
  01b4c	e3a03c0e	 mov         r3, #0xE, 24
  01b50	e0020391	 mul         r2, r1, r3
  01b54	e59f31fc	 ldr         r3, [pc, #0x1FC]
  01b58	e0831002	 add         r1, r3, r2
  01b5c	e59d2008	 ldr         r2, [sp, #8]
  01b60	e3a0301c	 mov         r3, #0x1C
  01b64	e0030392	 mul         r3, r2, r3
  01b68	e0813003	 add         r3, r1, r3
  01b6c	e58d3004	 str         r3, [sp, #4]

; 1113 :             busylistp = &p_objs[bi][i].busylist;

  01b70	e59d1010	 ldr         r1, [sp, #0x10]
  01b74	e3a03c0e	 mov         r3, #0xE, 24
  01b78	e0020391	 mul         r2, r1, r3
  01b7c	e59f31d4	 ldr         r3, [pc, #0x1D4]
  01b80	e0831002	 add         r1, r3, r2
  01b84	e59d2008	 ldr         r2, [sp, #8]
  01b88	e3a0301c	 mov         r3, #0x1C
  01b8c	e0030392	 mul         r3, r2, r3
  01b90	e0813003	 add         r3, r1, r3
  01b94	e2833008	 add         r3, r3, #8
  01b98	e58d3000	 str         r3, [sp]

; 1114 : 
; 1115 :             e = busylistp->Flink;

  01b9c	e59d3000	 ldr         r3, [sp]
  01ba0	e5933000	 ldr         r3, [r3]
  01ba4	e58d3018	 str         r3, [sp, #0x18]
  01ba8		 |$LN8@CMK_Deinit|

; 1116 :             while (e != busylistp) {

  01ba8	e59d2018	 ldr         r2, [sp, #0x18]
  01bac	e59d3000	 ldr         r3, [sp]
  01bb0	e1520003	 cmp         r2, r3
  01bb4	0a00000f	 beq         |$LN7@CMK_Deinit|

; 1117 :                 entry = CONTAINING_RECORD(e, struct pool_buffer, element);

  01bb8	e59d3018	 ldr         r3, [sp, #0x18]
  01bbc	e58d3014	 str         r3, [sp, #0x14]

; 1118 :                 __D("Warning: Freeing busy entry %d at %#lx\n",
; 1119 :                         entry->id, entry->physp);

  01bc0	e59d3014	 ldr         r3, [sp, #0x14]
  01bc4	e283300c	 add         r3, r3, #0xC
  01bc8	e5932000	 ldr         r2, [r3]
  01bcc	e59d3014	 ldr         r3, [sp, #0x14]
  01bd0	e2833008	 add         r3, r3, #8
  01bd4	e5931000	 ldr         r1, [r3]
  01bd8	e59f0174	 ldr         r0, [pc, #0x174]
  01bdc	eb000000	 bl          NKDbgPrintfW

; 1120 :                 e = e->Flink;

  01be0	e59d3018	 ldr         r3, [sp, #0x18]
  01be4	e5933000	 ldr         r3, [r3]
  01be8	e58d3018	 str         r3, [sp, #0x18]

; 1121 :                 free(entry);

  01bec	e59d0014	 ldr         r0, [sp, #0x14]
  01bf0	eb000000	 bl          free

; 1122 :             }

  01bf4	eaffffeb	 b           |$LN8@CMK_Deinit|
  01bf8		 |$LN7@CMK_Deinit|

; 1123 : 
; 1124 :             e = freelistp->Flink;

  01bf8	e59d3004	 ldr         r3, [sp, #4]
  01bfc	e5933000	 ldr         r3, [r3]
  01c00	e58d3018	 str         r3, [sp, #0x18]
  01c04		 |$LN6@CMK_Deinit|

; 1125 :             while (e != freelistp) {

  01c04	e59d2018	 ldr         r2, [sp, #0x18]
  01c08	e59d3004	 ldr         r3, [sp, #4]
  01c0c	e1520003	 cmp         r2, r3
  01c10	0a00000f	 beq         |$LN5@CMK_Deinit|

; 1126 :                 entry = CONTAINING_RECORD(e, struct pool_buffer, element);

  01c14	e59d3018	 ldr         r3, [sp, #0x18]
  01c18	e58d3014	 str         r3, [sp, #0x14]

; 1127 :                 __D("Freeing free entry %d at %#lx\n", entry->id, entry->physp);

  01c1c	e59d3014	 ldr         r3, [sp, #0x14]
  01c20	e283300c	 add         r3, r3, #0xC
  01c24	e5932000	 ldr         r2, [r3]
  01c28	e59d3014	 ldr         r3, [sp, #0x14]
  01c2c	e2833008	 add         r3, r3, #8
  01c30	e5931000	 ldr         r1, [r3]
  01c34	e59f0114	 ldr         r0, [pc, #0x114]
  01c38	eb000000	 bl          NKDbgPrintfW

; 1128 :                 e = e->Flink;

  01c3c	e59d3018	 ldr         r3, [sp, #0x18]
  01c40	e5933000	 ldr         r3, [r3]
  01c44	e58d3018	 str         r3, [sp, #0x18]

; 1129 :                 free(entry);

  01c48	e59d0014	 ldr         r0, [sp, #0x14]
  01c4c	eb000000	 bl          free

; 1130 :             }

  01c50	eaffffeb	 b           |$LN6@CMK_Deinit|
  01c54		 |$LN5@CMK_Deinit|

; 1131 :         }

  01c54	eaffffb1	 b           |$LN10@CMK_Deinit|
  01c58		 |$LN9@CMK_Deinit|

; 1132 : 
; 1133 :         //iounmap((void *) block_virtp[bi]);
; 1134 :         if (mem_alloc_type[bi] == MMMAPIOSPACE) {

  01c58	e59d1010	 ldr         r1, [sp, #0x10]
  01c5c	e3a03004	 mov         r3, #4
  01c60	e0020391	 mul         r2, r1, r3
  01c64	e59f30dc	 ldr         r3, [pc, #0xDC]
  01c68	e0833002	 add         r3, r3, r2
  01c6c	e5933000	 ldr         r3, [r3]
  01c70	e3530000	 cmp         r3, #0
  01c74	1a00000d	 bne         |$LN4@CMK_Deinit|

; 1135 :             MmUnmapIoSpace((PVOID)block_virtp[bi], block_avail_size[bi]);

  01c78	e59d1010	 ldr         r1, [sp, #0x10]
  01c7c	e3a03004	 mov         r3, #4
  01c80	e0020391	 mul         r2, r1, r3
  01c84	e59f30c0	 ldr         r3, [pc, #0xC0]
  01c88	e0833002	 add         r3, r3, r2
  01c8c	e5931000	 ldr         r1, [r3]
  01c90	e59d0010	 ldr         r0, [sp, #0x10]
  01c94	e3a03004	 mov         r3, #4
  01c98	e0020390	 mul         r2, r0, r3
  01c9c	e59f30a0	 ldr         r3, [pc, #0xA0]
  01ca0	e0833002	 add         r3, r3, r2
  01ca4	e5930000	 ldr         r0, [r3]
  01ca8	eb000000	 bl          MmUnmapIoSpace
  01cac	ea00000e	 b           |$LN3@CMK_Deinit|
  01cb0		 |$LN4@CMK_Deinit|

; 1136 :         }
; 1137 :         else if (mem_alloc_type[bi] == ALLOCPHYSMEM) {

  01cb0	e59d1010	 ldr         r1, [sp, #0x10]
  01cb4	e3a03004	 mov         r3, #4
  01cb8	e0020391	 mul         r2, r1, r3
  01cbc	e59f3084	 ldr         r3, [pc, #0x84]
  01cc0	e0833002	 add         r3, r3, r2
  01cc4	e5933000	 ldr         r3, [r3]
  01cc8	e3530001	 cmp         r3, #1
  01ccc	1a000006	 bne         |$LN2@CMK_Deinit|

; 1138 :             FreePhysMem((LPVOID)block_virtp[bi]);

  01cd0	e59d1010	 ldr         r1, [sp, #0x10]
  01cd4	e3a03004	 mov         r3, #4
  01cd8	e0020391	 mul         r2, r1, r3
  01cdc	e59f3060	 ldr         r3, [pc, #0x60]
  01ce0	e0833002	 add         r3, r3, r2
  01ce4	e5930000	 ldr         r0, [r3]
  01ce8	eb000000	 bl          FreePhysMem
  01cec		 |$LN2@CMK_Deinit|
  01cec		 |$LN3@CMK_Deinit|

; 1139 :         }
; 1140 :     }

  01cec	eaffff6c	 b           |$LN15@CMK_Deinit|
  01cf0		 |$LN14@CMK_Deinit|

; 1141 :     CloseHandle(cmem_mutex);

  01cf0	e59f3048	 ldr         r3, [pc, #0x48]
  01cf4	e5930000	 ldr         r0, [r3]
  01cf8	eb000000	 bl          CloseHandle

; 1142 : 
; 1143 :     pCMKDevice->initialized = FALSE;

  01cfc	e59d201c	 ldr         r2, [sp, #0x1C]
  01d00	e3a03000	 mov         r3, #0
  01d04	e5823000	 str         r3, [r2]

; 1144 :     if (pCMKDevice->openCount != 0) {

  01d08	e59d301c	 ldr         r3, [sp, #0x1C]
  01d0c	e2833004	 add         r3, r3, #4
  01d10	e5933000	 ldr         r3, [r3]
  01d14	e3530000	 cmp         r3, #0
  01d18	0a000001	 beq         |$LN1@CMK_Deinit|

; 1145 :         RETAILMSG(1, (L"CMEMK: warning, deinitialized with open clients\r\n"));

  01d1c	e59f0018	 ldr         r0, [pc, #0x18]
  01d20	eb000000	 bl          NKDbgPrintfW
  01d24		 |$LN1@CMK_Deinit|

; 1146 :     }
; 1147 : 
; 1148 :     return TRUE;

  01d24	e3a03001	 mov         r3, #1
  01d28	e58d3020	 str         r3, [sp, #0x20]

; 1149 : }

  01d2c	e59d0020	 ldr         r0, [sp, #0x20]
  01d30	e28dd024	 add         sp, sp, #0x24
  01d34	e89d6000	 ldmia       sp, {sp, lr}
  01d38	e12fff1e	 bx          lr
  01d3c		 |$LN22@CMK_Deinit|
  01d3c		 |$LN23@CMK_Deinit|
  01d3c	00000000	 DCD         |??_C@_1GE@MBPJBFA@?$AAC?$AAM?$AAE?$AAM?$AAK?$AA?3?$AA?5?$AAw?$AAa?$AAr?$AAn?$AAi?$AAn?$AAg?$AA?0?$AA?5?$AAd?$AAe?$AAi?$AAn?$AAi?$AAt?$AAi?$AAa?$AAl?$AAi?$AAz?$AAe?$AAd?$AA?5?$AAw?$AAi@|
  01d40		 |$LN24@CMK_Deinit|
  01d40	00000000	 DCD         |cmem_mutex|
  01d44		 |$LN25@CMK_Deinit|
  01d44	00000000	 DCD         |block_virtp|
  01d48		 |$LN26@CMK_Deinit|
  01d48	00000000	 DCD         |mem_alloc_type|
  01d4c		 |$LN27@CMK_Deinit|
  01d4c	00000000	 DCD         |block_avail_size|
  01d50		 |$LN28@CMK_Deinit|
  01d50	00000000	 DCD         |??_C@_1FI@CEPBDDGG@?$AAC?$AAM?$AAE?$AAM?$AAK?$AA?5?$AAD?$AAe?$AAb?$AAu?$AAg?$AA?3?$AA?5?$AAF?$AAr?$AAe?$AAe?$AAi?$AAn?$AAg?$AA?5?$AAf?$AAr?$AAe?$AAe?$AA?5?$AAe?$AAn?$AAt?$AAr?$AAy?$AA?5@|
  01d54		 |$LN29@CMK_Deinit|
  01d54	00000000	 DCD         |??_C@_1GK@NLHGLFNO@?$AAC?$AAM?$AAE?$AAM?$AAK?$AA?5?$AAD?$AAe?$AAb?$AAu?$AAg?$AA?3?$AA?5?$AAW?$AAa?$AAr?$AAn?$AAi?$AAn?$AAg?$AA?3?$AA?5?$AAF?$AAr?$AAe?$AAe?$AAi?$AAn?$AAg?$AA?5?$AAb?$AAu@|
  01d58		 |$LN30@CMK_Deinit|
  01d58	00000000	 DCD         |p_objs|
  01d5c		 |$LN31@CMK_Deinit|
  01d5c	00000000	 DCD         |??_C@_1GK@CBPANNAJ@?$AAC?$AAM?$AAE?$AAM?$AAK?$AA?5?$AAD?$AAe?$AAb?$AAu?$AAg?$AA?3?$AA?5?$AAF?$AAr?$AAe?$AAe?$AAi?$AAn?$AAg?$AA?5?$AAm?$AAe?$AAm?$AAo?$AAr?$AAy?$AA?5?$AAa?$AAs?$AAs?$AAo@|
  01d60		 |$LN32@CMK_Deinit|
  01d60	00000000	 DCD         |heap_pool|
  01d64		 |$LN33@CMK_Deinit|
  01d64	00000000	 DCD         |npools|
  01d68		 |$LN34@CMK_Deinit|
  01d68	00000000	 DCD         |??_C@_1DK@MPFCMFJO@?$AAC?$AAM?$AAE?$AAM?$AAK?$AA?5?$AAD?$AAe?$AAb?$AAu?$AAg?$AA?3?$AA?5?$AAI?$AAn?$AA?5?$AAc?$AAm?$AAe?$AAm?$AA_?$AAe?$AAx?$AAi?$AAt?$AA?$CI?$AA?$CJ?$AA?6?$AA?$AA@|
  01d6c		 |$M41295|

			 ENDP  ; |CMK_Deinit|

	EXPORT	|CMK_Open|
	IMPORT	|InterlockedIncrement|

  00040			 AREA	 |.pdata|, PDATA
|$T41316| DCD	|$LN5@CMK_Open|
	DCD	0x40000f04
; Function compile flags: /Odtp

  01d6c			 AREA	 |.text|, CODE, ARM

  01d6c		 |CMK_Open| PROC

; 1157 : {

  01d6c		 |$LN5@CMK_Open|
  01d6c	e1a0c00d	 mov         r12, sp
  01d70	e92d0007	 stmdb       sp!, {r0 - r2}
  01d74	e92d5000	 stmdb       sp!, {r12, lr}
  01d78	e24dd008	 sub         sp, sp, #8
  01d7c		 |$M41313|

; 1158 :     DEVICE_STATE *pCMKDevice = (DEVICE_STATE *)Context;

  01d7c	e59d3010	 ldr         r3, [sp, #0x10]
  01d80	e58d3000	 str         r3, [sp]

; 1159 : 
; 1160 :     InterlockedIncrement(&pCMKDevice->openCount);

  01d84	e59d3000	 ldr         r3, [sp]
  01d88	e2830004	 add         r0, r3, #4
  01d8c	eb000000	 bl          InterlockedIncrement

; 1161 : 
; 1162 :     return (Context);

  01d90	e59d3010	 ldr         r3, [sp, #0x10]
  01d94	e58d3004	 str         r3, [sp, #4]

; 1163 : }

  01d98	e59d0004	 ldr         r0, [sp, #4]
  01d9c	e28dd008	 add         sp, sp, #8
  01da0	e89d6000	 ldmia       sp, {sp, lr}
  01da4	e12fff1e	 bx          lr
  01da8		 |$M41314|

			 ENDP  ; |CMK_Open|

	EXPORT	|??_C@_1EM@DJHCFEOD@?$AAC?$AAM?$AAE?$AAM?$AAK?$AA?3?$AA?5?$AAC?$AAM?$AAK?$AA_?$AAC?$AAl?$AAo?$AAs?$AAe?$AA?$CI?$AA?$CJ?$AA?5?$AA?9?$AA?5?$AAo?$AAp?$AAe?$AAn?$AAC?$AAo?$AAu?$AAn?$AAt?$AA?5?$AA?$DM@| [ DATA ] ; `string'
	EXPORT	|CMK_Close|
	IMPORT	|InterlockedDecrement|

  00048			 AREA	 |.pdata|, PDATA
|$T41322| DCD	|$LN6@CMK_Close|
	DCD	0x40001a04

  00000			 AREA	 |.rdata|, DATA, READONLY
|??_C@_1EM@DJHCFEOD@?$AAC?$AAM?$AAE?$AAM?$AAK?$AA?3?$AA?5?$AAC?$AAM?$AAK?$AA_?$AAC?$AAl?$AAo?$AAs?$AAe?$AA?$CI?$AA?$CJ?$AA?5?$AA?9?$AA?5?$AAo?$AAp?$AAe?$AAn?$AAC?$AAo?$AAu?$AAn?$AAt?$AA?5?$AA?$DM@| DCB "C"
	DCB	0x0, "M", 0x0, "E", 0x0, "M", 0x0, "K", 0x0, ":", 0x0, " "
	DCB	0x0, "C", 0x0, "M", 0x0, "K", 0x0, "_", 0x0, "C", 0x0, "l"
	DCB	0x0, "o", 0x0, "s", 0x0, "e", 0x0, "(", 0x0, ")", 0x0, " "
	DCB	0x0, "-", 0x0, " ", 0x0, "o", 0x0, "p", 0x0, "e", 0x0, "n"
	DCB	0x0, "C", 0x0, "o", 0x0, "u", 0x0, "n", 0x0, "t", 0x0, " "
	DCB	0x0, "<", 0x0, " ", 0x0, "1", 0x0, "!", 0x0, 0xd, 0x0, 0xa
	DCB	0x0, 0x0, 0x0				; `string'
; Function compile flags: /Odtp

  01da8			 AREA	 |.text|, CODE, ARM

  01da8		 |CMK_Close| PROC

; 1172 : {

  01da8		 |$LN6@CMK_Close|
  01da8	e1a0c00d	 mov         r12, sp
  01dac	e92d0001	 stmdb       sp!, {r0}
  01db0	e92d5000	 stmdb       sp!, {r12, lr}
  01db4	e24dd008	 sub         sp, sp, #8
  01db8		 |$M41319|

; 1173 :     DEVICE_STATE *pCMKDevice = (DEVICE_STATE *)dwContext;

  01db8	e59d3010	 ldr         r3, [sp, #0x10]
  01dbc	e58d3000	 str         r3, [sp]

; 1174 : 
; 1175 :     if (pCMKDevice->openCount < 1) {

  01dc0	e59d3000	 ldr         r3, [sp]
  01dc4	e2833004	 add         r3, r3, #4
  01dc8	e5933000	 ldr         r3, [r3]
  01dcc	e3530001	 cmp         r3, #1
  01dd0	2a000004	 bcs         |$LN1@CMK_Close|

; 1176 :         RETAILMSG(1, (TEXT("CMEMK: CMK_Close() - openCount < 1!\r\n")));

  01dd4	e59f0030	 ldr         r0, [pc, #0x30]
  01dd8	eb000000	 bl          NKDbgPrintfW

; 1177 :         return FALSE;

  01ddc	e3a03000	 mov         r3, #0
  01de0	e58d3004	 str         r3, [sp, #4]
  01de4	ea000004	 b           |$LN2@CMK_Close|
  01de8		 |$LN1@CMK_Close|

; 1178 :     }
; 1179 : 
; 1180 :     InterlockedDecrement(&pCMKDevice->openCount);

  01de8	e59d3000	 ldr         r3, [sp]
  01dec	e2830004	 add         r0, r3, #4
  01df0	eb000000	 bl          InterlockedDecrement

; 1181 : 
; 1182 :     return (TRUE);

  01df4	e3a03001	 mov         r3, #1
  01df8	e58d3004	 str         r3, [sp, #4]
  01dfc		 |$LN2@CMK_Close|

; 1183 : }

  01dfc	e59d0004	 ldr         r0, [sp, #4]
  01e00	e28dd008	 add         sp, sp, #8
  01e04	e89d6000	 ldmia       sp, {sp, lr}
  01e08	e12fff1e	 bx          lr
  01e0c		 |$LN7@CMK_Close|
  01e0c		 |$LN8@CMK_Close|
  01e0c	00000000	 DCD         |??_C@_1EM@DJHCFEOD@?$AAC?$AAM?$AAE?$AAM?$AAK?$AA?3?$AA?5?$AAC?$AAM?$AAK?$AA_?$AAC?$AAl?$AAo?$AAs?$AAe?$AA?$CI?$AA?$CJ?$AA?5?$AA?9?$AA?5?$AAo?$AAp?$AAe?$AAn?$AAC?$AAo?$AAu?$AAn?$AAt?$AA?5?$AA?$DM@|
  01e10		 |$M41320|

			 ENDP  ; |CMK_Close|

	EXPORT	|CMK_Read|

  00050			 AREA	 |.pdata|, PDATA
|$T41330| DCD	|$LN5@CMK_Read|
	DCD	0x40000a04
; Function compile flags: /Odtp

  01e10			 AREA	 |.text|, CODE, ARM

  01e10		 |CMK_Read| PROC

; 1193 : {

  01e10		 |$LN5@CMK_Read|
  01e10	e1a0c00d	 mov         r12, sp
  01e14	e92d0007	 stmdb       sp!, {r0 - r2}
  01e18	e92d5000	 stmdb       sp!, {r12, lr}
  01e1c	e24dd004	 sub         sp, sp, #4
  01e20		 |$M41327|

; 1194 :     return  0;

  01e20	e3a03000	 mov         r3, #0
  01e24	e58d3000	 str         r3, [sp]

; 1195 : }

  01e28	e59d0000	 ldr         r0, [sp]
  01e2c	e28dd004	 add         sp, sp, #4
  01e30	e89d6000	 ldmia       sp, {sp, lr}
  01e34	e12fff1e	 bx          lr
  01e38		 |$M41328|

			 ENDP  ; |CMK_Read|

	EXPORT	|CMK_Write|

  00058			 AREA	 |.pdata|, PDATA
|$T41336| DCD	|$LN5@CMK_Write|
	DCD	0x40000a04
; Function compile flags: /Odtp

  01e38			 AREA	 |.text|, CODE, ARM

  01e38		 |CMK_Write| PROC

; 1204 : {

  01e38		 |$LN5@CMK_Write|
  01e38	e1a0c00d	 mov         r12, sp
  01e3c	e92d0007	 stmdb       sp!, {r0 - r2}
  01e40	e92d5000	 stmdb       sp!, {r12, lr}
  01e44	e24dd004	 sub         sp, sp, #4
  01e48		 |$M41333|

; 1205 :     return  0;

  01e48	e3a03000	 mov         r3, #0
  01e4c	e58d3000	 str         r3, [sp]

; 1206 : }

  01e50	e59d0000	 ldr         r0, [sp]
  01e54	e28dd004	 add         sp, sp, #4
  01e58	e89d6000	 ldmia       sp, {sp, lr}
  01e5c	e12fff1e	 bx          lr
  01e60		 |$M41334|

			 ENDP  ; |CMK_Write|

	EXPORT	|CMK_Seek|

  00060			 AREA	 |.pdata|, PDATA
|$T41342| DCD	|$LN5@CMK_Seek|
	DCD	0x40000a04
; Function compile flags: /Odtp

  01e60			 AREA	 |.text|, CODE, ARM

  01e60		 |CMK_Seek| PROC

; 1215 : {

  01e60		 |$LN5@CMK_Seek|
  01e60	e1a0c00d	 mov         r12, sp
  01e64	e92d0007	 stmdb       sp!, {r0 - r2}
  01e68	e92d5000	 stmdb       sp!, {r12, lr}
  01e6c	e24dd004	 sub         sp, sp, #4
  01e70		 |$M41339|

; 1216 :     return 0;

  01e70	e3a03000	 mov         r3, #0
  01e74	e58d3000	 str         r3, [sp]

; 1217 : }

  01e78	e59d0000	 ldr         r0, [sp]
  01e7c	e28dd004	 add         sp, sp, #4
  01e80	e89d6000	 ldmia       sp, {sp, lr}
  01e84	e12fff1e	 bx          lr
  01e88		 |$M41340|

			 ENDP  ; |CMK_Seek|

	EXPORT	|??_C@_1EM@MJEFGDHI@?$AAC?$AAM?$AAE?$AAM?$AAK?$AA?5?$AAE?$AAr?$AAr?$AAo?$AAr?$AA?3?$AA?5?$AAU?$AAn?$AAk?$AAn?$AAo?$AAw?$AAn?$AA?5?$AAi?$AAo?$AAc?$AAt?$AAl?$AA?5?$AAr?$AAe?$AAc?$AAe?$AAi@| [ DATA ] ; `string'
	EXPORT	|??_C@_1IC@BMAEIIKN@?$AAC?$AAM?$AAE?$AAM?$AAK?$AA?5?$AAE?$AAr?$AAr?$AAo?$AAr?$AA?3?$AA?5?$AAU?$AAN?$AAM?$AAA?$AAP?$AAA?$AAD?$AAD?$AAR?$AAE?$AAS?$AAS?$AA?3?$AA?5?$AAF?$AAa?$AAi?$AAl?$AAe@| [ DATA ] ; `string'
	EXPORT	|??_C@_1FC@IJJFEPMD@?$AAC?$AAM?$AAE?$AAM?$AAK?$AA?5?$AAD?$AAe?$AAb?$AAu?$AAg?$AA?3?$AA?5?$AAU?$AAN?$AAM?$AAA?$AAP?$AAA?$AAD?$AAD?$AAR?$AAE?$AAS?$AAS?$AA?3?$AA?5?$AAs?$AAi?$AAz?$AAe?$AA?5@| [ DATA ] ; `string'
	EXPORT	|??_C@_1FE@GPGJMNM@?$AAC?$AAM?$AAE?$AAM?$AAK?$AA?5?$AAD?$AAe?$AAb?$AAu?$AAg?$AA?3?$AA?5?$AAU?$AAN?$AAM?$AAA?$AAP?$AAA?$AAD?$AAD?$AAR?$AAE?$AAS?$AAS?$AA?3?$AA?5?$AAv?$AAi?$AAr?$AAt?$AAp@| [ DATA ] ; `string'
	EXPORT	|??_C@_1FG@ICHJJAGN@?$AAC?$AAM?$AAE?$AAM?$AAK?$AA?5?$AAD?$AAe?$AAb?$AAu?$AAg?$AA?3?$AA?5?$AAU?$AAN?$AAM?$AAA?$AAP?$AAA?$AAD?$AAD?$AAR?$AAE?$AAS?$AAS?$AA?5?$AAi?$AAo?$AAc?$AAt?$AAl?$AA?5@| [ DATA ] ; `string'
	EXPORT	|??_C@_1FC@KGMCGFLP@?$AAC?$AAM?$AAE?$AAM?$AAK?$AA?5?$AAD?$AAe?$AAb?$AAu?$AAg?$AA?3?$AA?5?$AAM?$AAA?$AAP?$AAA?$AAD?$AAD?$AAR?$AAE?$AAS?$AAS?$AA?3?$AA?5?$AAr?$AAe?$AAt?$AAu?$AAr?$AAn?$AAi@| [ DATA ] ; `string'
	EXPORT	|??_C@_1HM@PINJBPBF@?$AAC?$AAM?$AAE?$AAM?$AAK?$AA?5?$AAE?$AAr?$AAr?$AAo?$AAr?$AA?3?$AA?5?$AAM?$AAA?$AAP?$AAA?$AAD?$AAD?$AAR?$AAE?$AAS?$AAS?$AA?3?$AA?5?$AAF?$AAa?$AAi?$AAl?$AAe?$AAd?$AA?5@| [ DATA ] ; `string'
	EXPORT	|??_C@_1GM@ONIPBDBF@?$AAC?$AAM?$AAE?$AAM?$AAK?$AA?5?$AAE?$AAr?$AAr?$AAo?$AAr?$AA?3?$AA?5?$AAM?$AAA?$AAP?$AAA?$AAD?$AAD?$AAR?$AAE?$AAS?$AAS?$AA?3?$AA?5?$AAW?$AAa?$AAi?$AAt?$AAF?$AAo?$AAr@| [ DATA ] ; `string'
	EXPORT	|??_C@_1EO@KLDPFPB@?$AAC?$AAM?$AAE?$AAM?$AAK?$AA?5?$AAD?$AAe?$AAb?$AAu?$AAg?$AA?3?$AA?5?$AAM?$AAA?$AAP?$AAA?$AAD?$AAD?$AAR?$AAE?$AAS?$AAS?$AA?3?$AA?5?$AAp?$AAh?$AAy?$AAs?$AAp?$AA?5?$AA?$DN@| [ DATA ] ; `string'
	EXPORT	|??_C@_1FC@DBILBIOD@?$AAC?$AAM?$AAE?$AAM?$AAK?$AA?5?$AAD?$AAe?$AAb?$AAu?$AAg?$AA?3?$AA?5?$AAM?$AAA?$AAP?$AAA?$AAD?$AAD?$AAR?$AAE?$AAS?$AAS?$AA?5?$AAi?$AAo?$AAc?$AAt?$AAl?$AA?5?$AAr?$AAe@| [ DATA ] ; `string'
	EXPORT	|??_C@_1JK@LJHCIMLD@?$AAC?$AAM?$AAE?$AAM?$AAK?$AA?5?$AAD?$AAe?$AAb?$AAu?$AAg?$AA?3?$AA?5?$AAG?$AAE?$AAT?$AAB?$AAL?$AAO?$AAC?$AAK?$AA?5?$AAi?$AAo?$AAc?$AAt?$AAl?$AA?5?$AAr?$AAe?$AAc?$AAe@| [ DATA ] ; `string'
	EXPORT	|??_C@_1HE@GOLBGKGH@?$AAC?$AAM?$AAE?$AAM?$AAK?$AA?5?$AAD?$AAe?$AAb?$AAu?$AAg?$AA?3?$AA?5?$AAG?$AAE?$AAT?$AAN?$AAU?$AAM?$AAB?$AAL?$AAO?$AAC?$AAK?$AAS?$AA?5?$AAi?$AAo?$AAc?$AAt?$AAl?$AA?5@| [ DATA ] ; `string'
	EXPORT	|??_C@_1HA@ONBDBAJI@?$AAC?$AAM?$AAE?$AAM?$AAK?$AA?5?$AAD?$AAe?$AAb?$AAu?$AAg?$AA?3?$AA?5?$AAG?$AAE?$AAT?$AAV?$AAE?$AAR?$AAS?$AAI?$AAO?$AAN?$AA?5?$AAi?$AAo?$AAc?$AAt?$AAl?$AA?5?$AAr?$AAe@| [ DATA ] ; `string'
	EXPORT	|??_C@_1HE@HCOGAHNB@?$AAC?$AAM?$AAE?$AAM?$AAK?$AA?5?$AAD?$AAe?$AAb?$AAu?$AAg?$AA?3?$AA?5?$AAC?$AAA?$AAC?$AAH?$AAE?$AAW?$AAB?$AAI?$AAN?$AAV?$AA?3?$AA?5?$AAf?$AAl?$AAu?$AAs?$AAh?$AAe?$AAd@| [ DATA ] ; `string'
	EXPORT	|??_C@_1HI@HIEOILNF@?$AAC?$AAM?$AAE?$AAM?$AAK?$AA?5?$AAD?$AAe?$AAb?$AAu?$AAg?$AA?3?$AA?5?$AAC?$AAA?$AAC?$AAH?$AAE?$AAI?$AAN?$AAV?$AA?3?$AA?5?$AAi?$AAn?$AAv?$AAa?$AAl?$AAi?$AAd?$AAa?$AAt@| [ DATA ] ; `string'
	EXPORT	|??_C@_1GO@NDPACKBE@?$AAC?$AAM?$AAE?$AAM?$AAK?$AA?5?$AAD?$AAe?$AAb?$AAu?$AAg?$AA?3?$AA?5?$AAC?$AAA?$AAC?$AAH?$AAE?$AAW?$AAB?$AA?3?$AA?5?$AAc?$AAl?$AAe?$AAa?$AAn?$AAe?$AAd?$AA?5?$AAu?$AAs@| [ DATA ] ; `string'
	EXPORT	|??_C@_1FA@OCOOAJKP@?$AAC?$AAM?$AAE?$AAM?$AAK?$AA?5?$AAD?$AAe?$AAb?$AAu?$AAg?$AA?3?$AA?5?$AAC?$AAA?$AAC?$AAH?$AAE?$AA?$CF?$AAs?$AA?$CF?$AAs?$AA?5?$AAi?$AAo?$AAc?$AAt?$AAl?$AA?5?$AAr?$AAe?$AAc@| [ DATA ] ; `string'
	EXPORT	|??_C@_02KLACDDFP@WB?$AA@| [ DATA ]	; `string'
	EXPORT	|??_C@_03KOECGNEM@INV?$AA@| [ DATA ]	; `string'
	EXPORT	|??_C@_1EI@BJJPPGGM@?$AAC?$AAM?$AAE?$AAM?$AAK?$AA?5?$AAD?$AAe?$AAb?$AAu?$AAg?$AA?3?$AA?5?$AAG?$AAE?$AAT?$AAP?$AAO?$AAO?$AAL?$AA?3?$AA?5?$AAr?$AAe?$AAt?$AAu?$AAr?$AAn?$AAi?$AAn?$AAg?$AA?5@| [ DATA ] ; `string'
	EXPORT	|??_C@_1GE@ODKFOIGO@?$AAC?$AAM?$AAE?$AAM?$AAK?$AA?5?$AAE?$AAr?$AAr?$AAo?$AAr?$AA?3?$AA?5?$AAF?$AAa?$AAi?$AAl?$AAe?$AAd?$AA?5?$AAt?$AAo?$AA?5?$AAf?$AAi?$AAn?$AAd?$AA?5?$AAa?$AA?5?$AAp?$AAo@| [ DATA ] ; `string'
	EXPORT	|??_C@_1NM@MJDFBKNP@?$AAC?$AAM?$AAE?$AAM?$AAK?$AA?5?$AAD?$AAe?$AAb?$AAu?$AAg?$AA?3?$AA?5?$AAG?$AAE?$AAT?$AAP?$AAO?$AAO?$AAL?$AA?3?$AA?5?$AAn?$AAo?$AA?5?$AAp?$AAo?$AAo?$AAl?$AA?9?$AAb?$AAa@| [ DATA ] ; `string'
	EXPORT	|??_C@_1GC@EGDDBBFG@?$AAC?$AAM?$AAE?$AAM?$AAK?$AA?5?$AAD?$AAe?$AAb?$AAu?$AAg?$AA?3?$AA?5?$AAG?$AAE?$AAT?$AAP?$AAO?$AAO?$AAL?$AA?3?$AA?5?$AAF?$AAo?$AAu?$AAn?$AAd?$AA?5?$AAa?$AA?5?$AAb?$AAe@| [ DATA ] ; `string'
	EXPORT	|??_C@_1GG@BEIADIOI@?$AAC?$AAM?$AAE?$AAM?$AAK?$AA?5?$AAD?$AAe?$AAb?$AAu?$AAg?$AA?3?$AA?5?$AAG?$AAE?$AAT?$AAP?$AAO?$AAO?$AAL?$AA?3?$AA?5?$AAd?$AAe?$AAl?$AAt?$AAa?$AA?5?$AA?$CI?$AA?$CF?$AAd?$AA?$CJ@| [ DATA ] ; `string'
	EXPORT	|??_C@_1GC@LPLINNOE@?$AAC?$AAM?$AAE?$AAM?$AAK?$AA?5?$AAD?$AAe?$AAb?$AAu?$AAg?$AA?3?$AA?5?$AAG?$AAE?$AAT?$AAP?$AAO?$AAO?$AAL?$AA?3?$AA?5?$AAs?$AAi?$AAz?$AAe?$AA?5?$AA?$CI?$AA?$CF?$AAd?$AA?$CJ?$AA?5@| [ DATA ] ; `string'
	EXPORT	|??_C@_1HI@IIFIHIPJ@?$AAC?$AAM?$AAE?$AAM?$AAK?$AA?5?$AAD?$AAe?$AAb?$AAu?$AAg?$AA?3?$AA?5?$AAG?$AAE?$AAT?$AAP?$AAO?$AAO?$AAL?$AA?3?$AA?5?$AAT?$AAr?$AAy?$AAi?$AAn?$AAg?$AA?5?$AAt?$AAo?$AA?5@| [ DATA ] ; `string'
	EXPORT	|??_C@_1EM@CHGMNOLN@?$AAC?$AAM?$AAE?$AAM?$AAK?$AA?5?$AAD?$AAe?$AAb?$AAu?$AAg?$AA?3?$AA?5?$AAG?$AAE?$AAT?$AAP?$AAO?$AAO?$AAL?$AA?5?$AAi?$AAo?$AAc?$AAt?$AAl?$AA?5?$AAr?$AAe?$AAc?$AAe?$AAi@| [ DATA ] ; `string'
	EXPORT	|??_C@_1EG@KFEHIKGM@?$AAC?$AAM?$AAE?$AAM?$AAK?$AA?5?$AAD?$AAe?$AAb?$AAu?$AAg?$AA?3?$AA?5?$AAG?$AAE?$AAT?$AAS?$AAI?$AAZ?$AAE?$AA?5?$AAr?$AAe?$AAt?$AAu?$AAr?$AAn?$AAi?$AAn?$AAg?$AA?5?$AA?$CF@| [ DATA ] ; `string'
	EXPORT	|??_C@_1GC@JHLICFOL@?$AAC?$AAM?$AAE?$AAM?$AAK?$AA?5?$AAE?$AAr?$AAr?$AAo?$AAr?$AA?3?$AA?5?$AAG?$AAE?$AAT?$AAS?$AAI?$AAZ?$AAE?$AA?3?$AA?5?$AAi?$AAn?$AAv?$AAa?$AAl?$AAi?$AAd?$AA?5?$AAp?$AAo@| [ DATA ] ; `string'
	EXPORT	|??_C@_1EK@MKLGDKGI@?$AAC?$AAM?$AAE?$AAM?$AAK?$AA?5?$AAD?$AAe?$AAb?$AAu?$AAg?$AA?3?$AA?5?$AAG?$AAE?$AAT?$AAS?$AAI?$AAZ?$AAE?$AA?5?$AAi?$AAo?$AAc?$AAt?$AAl?$AA?5?$AAr?$AAe?$AAc?$AAe?$AAi@| [ DATA ] ; `string'
	EXPORT	|??_C@_1EM@NEHOKHNA@?$AAC?$AAM?$AAE?$AAM?$AAK?$AA?5?$AAD?$AAe?$AAb?$AAu?$AAg?$AA?3?$AA?5?$AAG?$AAE?$AAT?$AAP?$AAH?$AAY?$AAS?$AA?3?$AA?5?$AAr?$AAe?$AAt?$AAu?$AAr?$AAn?$AAi?$AAn?$AAg?$AA?5@| [ DATA ] ; `string'
	EXPORT	|??_C@_1IG@EKDDKMDK@?$AAC?$AAM?$AAE?$AAM?$AAK?$AA?5?$AAE?$AAr?$AAr?$AAo?$AAr?$AA?3?$AA?5?$AAG?$AAE?$AAT?$AAP?$AAH?$AAY?$AAS?$AA?3?$AA?5?$AAF?$AAa?$AAi?$AAl?$AAe?$AAd?$AA?5?$AAt?$AAo?$AA?5@| [ DATA ] ; `string'
	EXPORT	|??_C@_1IA@PMKIHOPJ@?$AAC?$AAM?$AAE?$AAM?$AAK?$AA?5?$AAD?$AAe?$AAb?$AAu?$AAg?$AA?3?$AA?5?$AAC?$AAM?$AAK?$AA_?$AAI?$AAO?$AAC?$AAo?$AAn?$AAt?$AAr?$AAo?$AAl?$AA?5?$AAc?$AAa?$AAs?$AAe?$AA?5@| [ DATA ] ; `string'
	EXPORT	|??_C@_1EM@EDDHNKIM@?$AAC?$AAM?$AAE?$AAM?$AAK?$AA?5?$AAD?$AAe?$AAb?$AAu?$AAg?$AA?3?$AA?5?$AAG?$AAE?$AAT?$AAP?$AAH?$AAY?$AAS?$AA?5?$AAi?$AAo?$AAc?$AAt?$AAl?$AA?5?$AAr?$AAe?$AAc?$AAe?$AAi@| [ DATA ] ; `string'
	EXPORT	|??_C@_1GK@IGEFKKAD@?$AAC?$AAM?$AAE?$AAM?$AAK?$AA?5?$AAD?$AAe?$AAb?$AAu?$AAg?$AA?3?$AA?5?$AAF?$AAR?$AAE?$AAE?$AA?$CF?$AAs?$AA?$CF?$AAs?$AA?3?$AA?5?$AAr?$AAe?$AAt?$AAu?$AAr?$AAn?$AAi?$AAn?$AAg@| [ DATA ] ; `string'
	EXPORT	|??_C@_1FI@PDOJBEOL@?$AAC?$AAM?$AAE?$AAM?$AAK?$AA?5?$AAE?$AAr?$AAr?$AAo?$AAr?$AA?3?$AA?5?$AAF?$AAa?$AAi?$AAl?$AAe?$AAd?$AA?5?$AAt?$AAo?$AA?5?$AAf?$AAr?$AAe?$AAe?$AA?5?$AAm?$AAe?$AAm?$AAo@| [ DATA ] ; `string'
	EXPORT	|??_C@_1IE@KFMGGDNN@?$AAC?$AAM?$AAE?$AAM?$AAK?$AA?5?$AAD?$AAe?$AAb?$AAu?$AAg?$AA?3?$AA?5?$AAF?$AAR?$AAE?$AAE?$AA?$CF?$AAs?$AA?$CF?$AAs?$AA?3?$AA?5?$AAS?$AAu?$AAc?$AAc?$AAe?$AAs?$AAs?$AAf?$AAu@| [ DATA ] ; `string'
	EXPORT	|??_C@_1JC@KNEBIOIE@?$AAC?$AAM?$AAE?$AAM?$AAK?$AA?5?$AAE?$AAr?$AAr?$AAo?$AAr?$AA?3?$AA?5?$AAF?$AAR?$AAE?$AAE?$AA?$CF?$AAs?$AA?$CF?$AAs?$AA?3?$AA?5?$AAF?$AAa?$AAi?$AAl?$AAe?$AAd?$AA?5?$AAt?$AAo@| [ DATA ] ; `string'
	EXPORT	|??_C@_1EO@LLFGGNAM@?$AAC?$AAM?$AAE?$AAM?$AAK?$AA?5?$AAD?$AAe?$AAb?$AAu?$AAg?$AA?3?$AA?5?$AAF?$AAR?$AAE?$AAE?$AA?$CF?$AAs?$AA?$CF?$AAs?$AA?5?$AAi?$AAo?$AAc?$AAt?$AAl?$AA?5?$AAr?$AAe?$AAc?$AAe@| [ DATA ] ; `string'
	EXPORT	|??_C@_04DGHHAJMG@HEAP?$AA@| [ DATA ]	; `string'
	EXPORT	|??_C@_04KNJFKMFD@PHYS?$AA@| [ DATA ]	; `string'
	EXPORT	|??_C@_1IC@NCAFIKLL@?$AAC?$AAM?$AAE?$AAM?$AAK?$AA?5?$AAD?$AAe?$AAb?$AAu?$AAg?$AA?3?$AA?5?$AAA?$AAL?$AAL?$AAO?$AAC?$AA?$CF?$AAs?$AA?3?$AA?5?$AAa?$AAl?$AAl?$AAo?$AAc?$AAa?$AAt?$AAe?$AAd?$AA?5@| [ DATA ] ; `string'
	EXPORT	|??_C@_1HE@ECHHIHNI@?$AAC?$AAM?$AAE?$AAM?$AAK?$AA?5?$AAE?$AAr?$AAr?$AAo?$AAr?$AA?3?$AA?5?$AAA?$AAL?$AAL?$AAO?$AAC?$AA?$CF?$AAs?$AA?3?$AA?5?$AAV?$AAi?$AAr?$AAt?$AAu?$AAa?$AAl?$AAC?$AAo?$AAp@| [ DATA ] ; `string'
	EXPORT	|??_C@_1HK@NMPGNINP@?$AAC?$AAM?$AAE?$AAM?$AAK?$AA?5?$AAE?$AAr?$AAr?$AAo?$AAr?$AA?3?$AA?5?$AAA?$AAL?$AAL?$AAO?$AAC?$AA?$CF?$AAs?$AA?3?$AA?5?$AAN?$AAo?$AA?5?$AAf?$AAr?$AAe?$AAe?$AA?5?$AAb?$AAu@| [ DATA ] ; `string'
	EXPORT	|??_C@_1GC@NHBEENPF@?$AAC?$AAM?$AAE?$AAM?$AAK?$AA?5?$AAE?$AAr?$AAr?$AAo?$AAr?$AA?3?$AA?5?$AAA?$AAL?$AAL?$AAO?$AAC?$AA?$CF?$AAs?$AA?3?$AA?5?$AAi?$AAn?$AAv?$AAa?$AAl?$AAi?$AAd?$AA?5?$AAp?$AAo@| [ DATA ] ; `string'
	EXPORT	|??_C@_1II@HMLBPOKD@?$AAC?$AAM?$AAE?$AAM?$AAK?$AA?5?$AAD?$AAe?$AAb?$AAu?$AAg?$AA?3?$AA?5?$AAA?$AAL?$AAL?$AAO?$AAC?$AA?$CF?$AAs?$AA?5?$AAi?$AAo?$AAc?$AAt?$AAl?$AA?5?$AAr?$AAe?$AAc?$AAe?$AAi@| [ DATA ] ; `string'
	EXPORT	|??_C@_1JI@CAAHNLGC@?$AAC?$AAM?$AAE?$AAM?$AAK?$AA?5?$AAD?$AAe?$AAb?$AAu?$AAg?$AA?3?$AA?5?$AAA?$AAL?$AAL?$AAO?$AAC?$AAH?$AAE?$AAA?$AAP?$AA?$CF?$AAs?$AA?3?$AA?5?$AAa?$AAl?$AAl?$AAo?$AAc?$AAa@| [ DATA ] ; `string'
	EXPORT	|??_C@_1IC@IKJLIPKE@?$AAC?$AAM?$AAE?$AAM?$AAK?$AA?5?$AAE?$AAr?$AAr?$AAo?$AAr?$AA?3?$AA?5?$AAi?$AAo?$AAc?$AAt?$AAl?$AA?3?$AA?5?$AAf?$AAa?$AAi?$AAl?$AAe?$AAd?$AA?5?$AAt?$AAo?$AA?5?$AAm?$AAa@| [ DATA ] ; `string'
	EXPORT	|GetCurrentProcessId|
	EXPORT	|??_C@_1IA@DGANCHDM@?$AAC?$AAM?$AAE?$AAM?$AAK?$AA?5?$AAE?$AAr?$AAr?$AAo?$AAr?$AA?3?$AA?5?$AAi?$AAo?$AAc?$AAt?$AAl?$AA?3?$AA?5?$AAf?$AAa?$AAi?$AAl?$AAe?$AAd?$AA?5?$AAt?$AAo?$AA?5?$AAa?$AAl@| [ DATA ] ; `string'
	EXPORT	|??_C@_1GO@HIHOKAPN@?$AAC?$AAM?$AAE?$AAM?$AAK?$AA?5?$AAE?$AAr?$AAr?$AAo?$AAr?$AA?3?$AA?5?$AAi?$AAo?$AAc?$AAt?$AAl?$AA?3?$AA?5?$AAi?$AAn?$AAv?$AAa?$AAl?$AAi?$AAd?$AA?5?$AAb?$AAl?$AAo?$AAc@| [ DATA ] ; `string'
	EXPORT	|??_C@_1IG@GKJGLDOM@?$AAC?$AAM?$AAE?$AAM?$AAK?$AA?5?$AAD?$AAe?$AAb?$AAu?$AAg?$AA?3?$AA?5?$AAA?$AAL?$AAL?$AAO?$AAC?$AAH?$AAE?$AAA?$AAP?$AA?$CF?$AAs?$AA?5?$AAi?$AAo?$AAc?$AAt?$AAl?$AA?5?$AAr@| [ DATA ] ; `string'
	EXPORT	|??_C@_00CNPNBAHC@?$AA@| [ DATA ]	; `string'
	EXPORT	|??_C@_06HAMDABMN@CACHED?$AA@| [ DATA ]	; `string'
	EXPORT	|CMK_IOControl|
	IMPORT	|CacheRangeFlush|
	IMPORT	|GetLastError|
	IMPORT	|VirtualFreeEx|
	IMPORT	|VirtualCopyEx|
	IMPORT	|VirtualAllocEx|
	IMPORT	|memcpy|

  00068			 AREA	 |.pdata|, PDATA
|$T41417| DCD	|$LN170@CMK_IOCont|
	DCD	0x40063e04

  00000			 AREA	 |.rdata|, DATA, READONLY
|??_C@_1EM@MJEFGDHI@?$AAC?$AAM?$AAE?$AAM?$AAK?$AA?5?$AAE?$AAr?$AAr?$AAo?$AAr?$AA?3?$AA?5?$AAU?$AAn?$AAk?$AAn?$AAo?$AAw?$AAn?$AA?5?$AAi?$AAo?$AAc?$AAt?$AAl?$AA?5?$AAr?$AAe?$AAc?$AAe?$AAi@| DCB "C"
	DCB	0x0, "M", 0x0, "E", 0x0, "M", 0x0, "K", 0x0, " ", 0x0, "E"
	DCB	0x0, "r", 0x0, "r", 0x0, "o", 0x0, "r", 0x0, ":", 0x0, " "
	DCB	0x0, "U", 0x0, "n", 0x0, "k", 0x0, "n", 0x0, "o", 0x0, "w"
	DCB	0x0, "n", 0x0, " ", 0x0, "i", 0x0, "o", 0x0, "c", 0x0, "t"
	DCB	0x0, "l", 0x0, " ", 0x0, "r", 0x0, "e", 0x0, "c", 0x0, "e"
	DCB	0x0, "i", 0x0, "v", 0x0, "e", 0x0, "d", 0x0, ".", 0x0, 0xa
	DCB	0x0, 0x0, 0x0				; `string'

  00000			 AREA	 |.rdata|, DATA, READONLY
|??_C@_1IC@BMAEIIKN@?$AAC?$AAM?$AAE?$AAM?$AAK?$AA?5?$AAE?$AAr?$AAr?$AAo?$AAr?$AA?3?$AA?5?$AAU?$AAN?$AAM?$AAA?$AAP?$AAA?$AAD?$AAD?$AAR?$AAE?$AAS?$AAS?$AA?3?$AA?5?$AAF?$AAa?$AAi?$AAl?$AAe@| DCB "C"
	DCB	0x0, "M", 0x0, "E", 0x0, "M", 0x0, "K", 0x0, " ", 0x0, "E"
	DCB	0x0, "r", 0x0, "r", 0x0, "o", 0x0, "r", 0x0, ":", 0x0, " "
	DCB	0x0, "U", 0x0, "N", 0x0, "M", 0x0, "A", 0x0, "P", 0x0, "A"
	DCB	0x0, "D", 0x0, "D", 0x0, "R", 0x0, "E", 0x0, "S", 0x0, "S"
	DCB	0x0, ":", 0x0, " ", 0x0, "F", 0x0, "a", 0x0, "i", 0x0, "l"
	DCB	0x0, "e", 0x0, "d", 0x0, " ", 0x0, "t", 0x0, "o", 0x0, " "
	DCB	0x0, "u", 0x0, "n", 0x0, "m", 0x0, "a", 0x0, "p", 0x0, " "
	DCB	0x0, "v", 0x0, "i", 0x0, "r", 0x0, "t", 0x0, "u", 0x0, "a"
	DCB	0x0, "l", 0x0, " ", 0x0, "a", 0x0, "d", 0x0, "d", 0x0, "r"
	DCB	0x0, "e", 0x0, "s", 0x0, "s", 0x0, " ", 0x0, "%", 0x0, "#"
	DCB	0x0, "l", 0x0, "x", 0x0, 0xa, 0x0, 0x0, 0x0 ; `string'

  00000			 AREA	 |.rdata|, DATA, READONLY
|??_C@_1FC@IJJFEPMD@?$AAC?$AAM?$AAE?$AAM?$AAK?$AA?5?$AAD?$AAe?$AAb?$AAu?$AAg?$AA?3?$AA?5?$AAU?$AAN?$AAM?$AAA?$AAP?$AAA?$AAD?$AAD?$AAR?$AAE?$AAS?$AAS?$AA?3?$AA?5?$AAs?$AAi?$AAz?$AAe?$AA?5@| DCB "C"
	DCB	0x0, "M", 0x0, "E", 0x0, "M", 0x0, "K", 0x0, " ", 0x0, "D"
	DCB	0x0, "e", 0x0, "b", 0x0, "u", 0x0, "g", 0x0, ":", 0x0, " "
	DCB	0x0, "U", 0x0, "N", 0x0, "M", 0x0, "A", 0x0, "P", 0x0, "A"
	DCB	0x0, "D", 0x0, "D", 0x0, "R", 0x0, "E", 0x0, "S", 0x0, "S"
	DCB	0x0, ":", 0x0, " ", 0x0, "s", 0x0, "i", 0x0, "z", 0x0, "e"
	DCB	0x0, " ", 0x0, "=", 0x0, " ", 0x0, "%", 0x0, "#", 0x0, "l"
	DCB	0x0, "x", 0x0, ".", 0x0, 0xa, 0x0, 0x0, 0x0 ; `string'

  00000			 AREA	 |.rdata|, DATA, READONLY
|??_C@_1FE@GPGJMNM@?$AAC?$AAM?$AAE?$AAM?$AAK?$AA?5?$AAD?$AAe?$AAb?$AAu?$AAg?$AA?3?$AA?5?$AAU?$AAN?$AAM?$AAA?$AAP?$AAA?$AAD?$AAD?$AAR?$AAE?$AAS?$AAS?$AA?3?$AA?5?$AAv?$AAi?$AAr?$AAt?$AAp@| DCB "C"
	DCB	0x0, "M", 0x0, "E", 0x0, "M", 0x0, "K", 0x0, " ", 0x0, "D"
	DCB	0x0, "e", 0x0, "b", 0x0, "u", 0x0, "g", 0x0, ":", 0x0, " "
	DCB	0x0, "U", 0x0, "N", 0x0, "M", 0x0, "A", 0x0, "P", 0x0, "A"
	DCB	0x0, "D", 0x0, "D", 0x0, "R", 0x0, "E", 0x0, "S", 0x0, "S"
	DCB	0x0, ":", 0x0, " ", 0x0, "v", 0x0, "i", 0x0, "r", 0x0, "t"
	DCB	0x0, "p", 0x0, " ", 0x0, "=", 0x0, " ", 0x0, "%", 0x0, "#"
	DCB	0x0, "l", 0x0, "x", 0x0, ".", 0x0, 0xa, 0x0, 0x0, 0x0 ; `string'

  00000			 AREA	 |.rdata|, DATA, READONLY
|??_C@_1FG@ICHJJAGN@?$AAC?$AAM?$AAE?$AAM?$AAK?$AA?5?$AAD?$AAe?$AAb?$AAu?$AAg?$AA?3?$AA?5?$AAU?$AAN?$AAM?$AAA?$AAP?$AAA?$AAD?$AAD?$AAR?$AAE?$AAS?$AAS?$AA?5?$AAi?$AAo?$AAc?$AAt?$AAl?$AA?5@| DCB "C"
	DCB	0x0, "M", 0x0, "E", 0x0, "M", 0x0, "K", 0x0, " ", 0x0, "D"
	DCB	0x0, "e", 0x0, "b", 0x0, "u", 0x0, "g", 0x0, ":", 0x0, " "
	DCB	0x0, "U", 0x0, "N", 0x0, "M", 0x0, "A", 0x0, "P", 0x0, "A"
	DCB	0x0, "D", 0x0, "D", 0x0, "R", 0x0, "E", 0x0, "S", 0x0, "S"
	DCB	0x0, " ", 0x0, "i", 0x0, "o", 0x0, "c", 0x0, "t", 0x0, "l"
	DCB	0x0, " ", 0x0, "r", 0x0, "e", 0x0, "c", 0x0, "e", 0x0, "i"
	DCB	0x0, "v", 0x0, "e", 0x0, "d", 0x0, ".", 0x0, 0xa, 0x0, 0x0
	DCB	0x0					; `string'

  00000			 AREA	 |.rdata|, DATA, READONLY
|??_C@_1FC@KGMCGFLP@?$AAC?$AAM?$AAE?$AAM?$AAK?$AA?5?$AAD?$AAe?$AAb?$AAu?$AAg?$AA?3?$AA?5?$AAM?$AAA?$AAP?$AAA?$AAD?$AAD?$AAR?$AAE?$AAS?$AAS?$AA?3?$AA?5?$AAr?$AAe?$AAt?$AAu?$AAr?$AAn?$AAi@| DCB "C"
	DCB	0x0, "M", 0x0, "E", 0x0, "M", 0x0, "K", 0x0, " ", 0x0, "D"
	DCB	0x0, "e", 0x0, "b", 0x0, "u", 0x0, "g", 0x0, ":", 0x0, " "
	DCB	0x0, "M", 0x0, "A", 0x0, "P", 0x0, "A", 0x0, "D", 0x0, "D"
	DCB	0x0, "R", 0x0, "E", 0x0, "S", 0x0, "S", 0x0, ":", 0x0, " "
	DCB	0x0, "r", 0x0, "e", 0x0, "t", 0x0, "u", 0x0, "r", 0x0, "n"
	DCB	0x0, "i", 0x0, "n", 0x0, "g", 0x0, " ", 0x0, "%", 0x0, "#"
	DCB	0x0, "l", 0x0, "x", 0x0, 0xa, 0x0, 0x0, 0x0 ; `string'

  00000			 AREA	 |.rdata|, DATA, READONLY
|??_C@_1HM@PINJBPBF@?$AAC?$AAM?$AAE?$AAM?$AAK?$AA?5?$AAE?$AAr?$AAr?$AAo?$AAr?$AA?3?$AA?5?$AAM?$AAA?$AAP?$AAA?$AAD?$AAD?$AAR?$AAE?$AAS?$AAS?$AA?3?$AA?5?$AAF?$AAa?$AAi?$AAl?$AAe?$AAd?$AA?5@| DCB "C"
	DCB	0x0, "M", 0x0, "E", 0x0, "M", 0x0, "K", 0x0, " ", 0x0, "E"
	DCB	0x0, "r", 0x0, "r", 0x0, "o", 0x0, "r", 0x0, ":", 0x0, " "
	DCB	0x0, "M", 0x0, "A", 0x0, "P", 0x0, "A", 0x0, "D", 0x0, "D"
	DCB	0x0, "R", 0x0, "E", 0x0, "S", 0x0, "S", 0x0, ":", 0x0, " "
	DCB	0x0, "F", 0x0, "a", 0x0, "i", 0x0, "l", 0x0, "e", 0x0, "d"
	DCB	0x0, " ", 0x0, "t", 0x0, "o", 0x0, " ", 0x0, "m", 0x0, "a"
	DCB	0x0, "p", 0x0, " ", 0x0, "p", 0x0, "h", 0x0, "y", 0x0, "s"
	DCB	0x0, "i", 0x0, "c", 0x0, "a", 0x0, "l", 0x0, " ", 0x0, "a"
	DCB	0x0, "d", 0x0, "d", 0x0, "r", 0x0, "e", 0x0, "s", 0x0, "s"
	DCB	0x0, " ", 0x0, "%", 0x0, "#", 0x0, "l", 0x0, "x", 0x0, 0xa
	DCB	0x0, 0x0, 0x0				; `string'

  00000			 AREA	 |.rdata|, DATA, READONLY
|??_C@_1GM@ONIPBDBF@?$AAC?$AAM?$AAE?$AAM?$AAK?$AA?5?$AAE?$AAr?$AAr?$AAo?$AAr?$AA?3?$AA?5?$AAM?$AAA?$AAP?$AAA?$AAD?$AAD?$AAR?$AAE?$AAS?$AAS?$AA?3?$AA?5?$AAW?$AAa?$AAi?$AAt?$AAF?$AAo?$AAr@| DCB "C"
	DCB	0x0, "M", 0x0, "E", 0x0, "M", 0x0, "K", 0x0, " ", 0x0, "E"
	DCB	0x0, "r", 0x0, "r", 0x0, "o", 0x0, "r", 0x0, ":", 0x0, " "
	DCB	0x0, "M", 0x0, "A", 0x0, "P", 0x0, "A", 0x0, "D", 0x0, "D"
	DCB	0x0, "R", 0x0, "E", 0x0, "S", 0x0, "S", 0x0, ":", 0x0, " "
	DCB	0x0, "W", 0x0, "a", 0x0, "i", 0x0, "t", 0x0, "F", 0x0, "o"
	DCB	0x0, "r", 0x0, "S", 0x0, "i", 0x0, "n", 0x0, "g", 0x0, "l"
	DCB	0x0, "e", 0x0, "O", 0x0, "b", 0x0, "j", 0x0, "e", 0x0, "c"
	DCB	0x0, "t", 0x0, " ", 0x0, "f", 0x0, "a", 0x0, "i", 0x0, "l"
	DCB	0x0, "e", 0x0, "d", 0x0, "!", 0x0, 0xa, 0x0, 0x0, 0x0 ; `string'

  00000			 AREA	 |.rdata|, DATA, READONLY
|??_C@_1EO@KLDPFPB@?$AAC?$AAM?$AAE?$AAM?$AAK?$AA?5?$AAD?$AAe?$AAb?$AAu?$AAg?$AA?3?$AA?5?$AAM?$AAA?$AAP?$AAA?$AAD?$AAD?$AAR?$AAE?$AAS?$AAS?$AA?3?$AA?5?$AAp?$AAh?$AAy?$AAs?$AAp?$AA?5?$AA?$DN@| DCB "C"
	DCB	0x0, "M", 0x0, "E", 0x0, "M", 0x0, "K", 0x0, " ", 0x0, "D"
	DCB	0x0, "e", 0x0, "b", 0x0, "u", 0x0, "g", 0x0, ":", 0x0, " "
	DCB	0x0, "M", 0x0, "A", 0x0, "P", 0x0, "A", 0x0, "D", 0x0, "D"
	DCB	0x0, "R", 0x0, "E", 0x0, "S", 0x0, "S", 0x0, ":", 0x0, " "
	DCB	0x0, "p", 0x0, "h", 0x0, "y", 0x0, "s", 0x0, "p", 0x0, " "
	DCB	0x0, "=", 0x0, " ", 0x0, "%", 0x0, "#", 0x0, "x", 0x0, "."
	DCB	0x0, 0xa, 0x0, 0x0, 0x0			; `string'

  00000			 AREA	 |.rdata|, DATA, READONLY
|??_C@_1FC@DBILBIOD@?$AAC?$AAM?$AAE?$AAM?$AAK?$AA?5?$AAD?$AAe?$AAb?$AAu?$AAg?$AA?3?$AA?5?$AAM?$AAA?$AAP?$AAA?$AAD?$AAD?$AAR?$AAE?$AAS?$AAS?$AA?5?$AAi?$AAo?$AAc?$AAt?$AAl?$AA?5?$AAr?$AAe@| DCB "C"
	DCB	0x0, "M", 0x0, "E", 0x0, "M", 0x0, "K", 0x0, " ", 0x0, "D"
	DCB	0x0, "e", 0x0, "b", 0x0, "u", 0x0, "g", 0x0, ":", 0x0, " "
	DCB	0x0, "M", 0x0, "A", 0x0, "P", 0x0, "A", 0x0, "D", 0x0, "D"
	DCB	0x0, "R", 0x0, "E", 0x0, "S", 0x0, "S", 0x0, " ", 0x0, "i"
	DCB	0x0, "o", 0x0, "c", 0x0, "t", 0x0, "l", 0x0, " ", 0x0, "r"
	DCB	0x0, "e", 0x0, "c", 0x0, "e", 0x0, "i", 0x0, "v", 0x0, "e"
	DCB	0x0, "d", 0x0, ".", 0x0, 0xa, 0x0, 0x0, 0x0 ; `string'

  00000			 AREA	 |.rdata|, DATA, READONLY
|??_C@_1JK@LJHCIMLD@?$AAC?$AAM?$AAE?$AAM?$AAK?$AA?5?$AAD?$AAe?$AAb?$AAu?$AAg?$AA?3?$AA?5?$AAG?$AAE?$AAT?$AAB?$AAL?$AAO?$AAC?$AAK?$AA?5?$AAi?$AAo?$AAc?$AAt?$AAl?$AA?5?$AAr?$AAe?$AAc?$AAe@| DCB "C"
	DCB	0x0, "M", 0x0, "E", 0x0, "M", 0x0, "K", 0x0, " ", 0x0, "D"
	DCB	0x0, "e", 0x0, "b", 0x0, "u", 0x0, "g", 0x0, ":", 0x0, " "
	DCB	0x0, "G", 0x0, "E", 0x0, "T", 0x0, "B", 0x0, "L", 0x0, "O"
	DCB	0x0, "C", 0x0, "K", 0x0, " ", 0x0, "i", 0x0, "o", 0x0, "c"
	DCB	0x0, "t", 0x0, "l", 0x0, " ", 0x0, "r", 0x0, "e", 0x0, "c"
	DCB	0x0, "e", 0x0, "i", 0x0, "v", 0x0, "e", 0x0, "d", 0x0, ","
	DCB	0x0, " ", 0x0, "r", 0x0, "e", 0x0, "t", 0x0, "u", 0x0, "r"
	DCB	0x0, "n", 0x0, "i", 0x0, "n", 0x0, "g", 0x0, " ", 0x0, "p"
	DCB	0x0, "h", 0x0, "y", 0x0, "s", 0x0, " ", 0x0, "b", 0x0, "a"
	DCB	0x0, "s", 0x0, "e", 0x0, " ", 0x0, "0", 0x0, "x", 0x0, "%"
	DCB	0x0, "l", 0x0, "x", 0x0, ",", 0x0, " ", 0x0, "s", 0x0, "i"
	DCB	0x0, "z", 0x0, "e", 0x0, " ", 0x0, "0", 0x0, "x", 0x0, "%"
	DCB	0x0, "x", 0x0, ".", 0x0, 0xa, 0x0, 0x0, 0x0 ; `string'

  00000			 AREA	 |.rdata|, DATA, READONLY
|??_C@_1HE@GOLBGKGH@?$AAC?$AAM?$AAE?$AAM?$AAK?$AA?5?$AAD?$AAe?$AAb?$AAu?$AAg?$AA?3?$AA?5?$AAG?$AAE?$AAT?$AAN?$AAU?$AAM?$AAB?$AAL?$AAO?$AAC?$AAK?$AAS?$AA?5?$AAi?$AAo?$AAc?$AAt?$AAl?$AA?5@| DCB "C"
	DCB	0x0, "M", 0x0, "E", 0x0, "M", 0x0, "K", 0x0, " ", 0x0, "D"
	DCB	0x0, "e", 0x0, "b", 0x0, "u", 0x0, "g", 0x0, ":", 0x0, " "
	DCB	0x0, "G", 0x0, "E", 0x0, "T", 0x0, "N", 0x0, "U", 0x0, "M"
	DCB	0x0, "B", 0x0, "L", 0x0, "O", 0x0, "C", 0x0, "K", 0x0, "S"
	DCB	0x0, " ", 0x0, "i", 0x0, "o", 0x0, "c", 0x0, "t", 0x0, "l"
	DCB	0x0, " ", 0x0, "r", 0x0, "e", 0x0, "c", 0x0, "e", 0x0, "i"
	DCB	0x0, "v", 0x0, "e", 0x0, "d", 0x0, ",", 0x0, " ", 0x0, "r"
	DCB	0x0, "e", 0x0, "t", 0x0, "u", 0x0, "r", 0x0, "n", 0x0, "i"
	DCB	0x0, "n", 0x0, "g", 0x0, " ", 0x0, "%", 0x0, "#", 0x0, "x"
	DCB	0x0, ".", 0x0, 0xa, 0x0, 0x0, 0x0	; `string'

  00000			 AREA	 |.rdata|, DATA, READONLY
|??_C@_1HA@ONBDBAJI@?$AAC?$AAM?$AAE?$AAM?$AAK?$AA?5?$AAD?$AAe?$AAb?$AAu?$AAg?$AA?3?$AA?5?$AAG?$AAE?$AAT?$AAV?$AAE?$AAR?$AAS?$AAI?$AAO?$AAN?$AA?5?$AAi?$AAo?$AAc?$AAt?$AAl?$AA?5?$AAr?$AAe@| DCB "C"
	DCB	0x0, "M", 0x0, "E", 0x0, "M", 0x0, "K", 0x0, " ", 0x0, "D"
	DCB	0x0, "e", 0x0, "b", 0x0, "u", 0x0, "g", 0x0, ":", 0x0, " "
	DCB	0x0, "G", 0x0, "E", 0x0, "T", 0x0, "V", 0x0, "E", 0x0, "R"
	DCB	0x0, "S", 0x0, "I", 0x0, "O", 0x0, "N", 0x0, " ", 0x0, "i"
	DCB	0x0, "o", 0x0, "c", 0x0, "t", 0x0, "l", 0x0, " ", 0x0, "r"
	DCB	0x0, "e", 0x0, "c", 0x0, "e", 0x0, "i", 0x0, "v", 0x0, "e"
	DCB	0x0, "d", 0x0, ",", 0x0, " ", 0x0, "r", 0x0, "e", 0x0, "t"
	DCB	0x0, "u", 0x0, "r", 0x0, "n", 0x0, "i", 0x0, "n", 0x0, "g"
	DCB	0x0, " ", 0x0, "%", 0x0, "#", 0x0, "x", 0x0, ".", 0x0, 0xa
	DCB	0x0, 0x0, 0x0				; `string'

  00000			 AREA	 |.rdata|, DATA, READONLY
|??_C@_1HE@HCOGAHNB@?$AAC?$AAM?$AAE?$AAM?$AAK?$AA?5?$AAD?$AAe?$AAb?$AAu?$AAg?$AA?3?$AA?5?$AAC?$AAA?$AAC?$AAH?$AAE?$AAW?$AAB?$AAI?$AAN?$AAV?$AA?3?$AA?5?$AAf?$AAl?$AAu?$AAs?$AAh?$AAe?$AAd@| DCB "C"
	DCB	0x0, "M", 0x0, "E", 0x0, "M", 0x0, "K", 0x0, " ", 0x0, "D"
	DCB	0x0, "e", 0x0, "b", 0x0, "u", 0x0, "g", 0x0, ":", 0x0, " "
	DCB	0x0, "C", 0x0, "A", 0x0, "C", 0x0, "H", 0x0, "E", 0x0, "W"
	DCB	0x0, "B", 0x0, "I", 0x0, "N", 0x0, "V", 0x0, ":", 0x0, " "
	DCB	0x0, "f", 0x0, "l", 0x0, "u", 0x0, "s", 0x0, "h", 0x0, "e"
	DCB	0x0, "d", 0x0, " ", 0x0, "u", 0x0, "s", 0x0, "e", 0x0, "r"
	DCB	0x0, " ", 0x0, "v", 0x0, "i", 0x0, "r", 0x0, "t", 0x0, "u"
	DCB	0x0, "a", 0x0, "l", 0x0, " ", 0x0, "%", 0x0, "#", 0x0, "l"
	DCB	0x0, "x", 0x0, "-", 0x0, ">", 0x0, "%", 0x0, "#", 0x0, "l"
	DCB	0x0, "x", 0x0, 0xa, 0x0, 0x0, 0x0	; `string'

  00000			 AREA	 |.rdata|, DATA, READONLY
|??_C@_1HI@HIEOILNF@?$AAC?$AAM?$AAE?$AAM?$AAK?$AA?5?$AAD?$AAe?$AAb?$AAu?$AAg?$AA?3?$AA?5?$AAC?$AAA?$AAC?$AAH?$AAE?$AAI?$AAN?$AAV?$AA?3?$AA?5?$AAi?$AAn?$AAv?$AAa?$AAl?$AAi?$AAd?$AAa?$AAt@| DCB "C"
	DCB	0x0, "M", 0x0, "E", 0x0, "M", 0x0, "K", 0x0, " ", 0x0, "D"
	DCB	0x0, "e", 0x0, "b", 0x0, "u", 0x0, "g", 0x0, ":", 0x0, " "
	DCB	0x0, "C", 0x0, "A", 0x0, "C", 0x0, "H", 0x0, "E", 0x0, "I"
	DCB	0x0, "N", 0x0, "V", 0x0, ":", 0x0, " ", 0x0, "i", 0x0, "n"
	DCB	0x0, "v", 0x0, "a", 0x0, "l", 0x0, "i", 0x0, "d", 0x0, "a"
	DCB	0x0, "t", 0x0, "e", 0x0, "d", 0x0, " ", 0x0, "u", 0x0, "s"
	DCB	0x0, "e", 0x0, "r", 0x0, " ", 0x0, "v", 0x0, "i", 0x0, "r"
	DCB	0x0, "t", 0x0, "u", 0x0, "a", 0x0, "l", 0x0, " ", 0x0, "%"
	DCB	0x0, "#", 0x0, "l", 0x0, "x", 0x0, "-", 0x0, ">", 0x0, "%"
	DCB	0x0, "#", 0x0, "l", 0x0, "x", 0x0, 0xa, 0x0, 0x0, 0x0 ; `string'

  00000			 AREA	 |.rdata|, DATA, READONLY
|??_C@_1GO@NDPACKBE@?$AAC?$AAM?$AAE?$AAM?$AAK?$AA?5?$AAD?$AAe?$AAb?$AAu?$AAg?$AA?3?$AA?5?$AAC?$AAA?$AAC?$AAH?$AAE?$AAW?$AAB?$AA?3?$AA?5?$AAc?$AAl?$AAe?$AAa?$AAn?$AAe?$AAd?$AA?5?$AAu?$AAs@| DCB "C"
	DCB	0x0, "M", 0x0, "E", 0x0, "M", 0x0, "K", 0x0, " ", 0x0, "D"
	DCB	0x0, "e", 0x0, "b", 0x0, "u", 0x0, "g", 0x0, ":", 0x0, " "
	DCB	0x0, "C", 0x0, "A", 0x0, "C", 0x0, "H", 0x0, "E", 0x0, "W"
	DCB	0x0, "B", 0x0, ":", 0x0, " ", 0x0, "c", 0x0, "l", 0x0, "e"
	DCB	0x0, "a", 0x0, "n", 0x0, "e", 0x0, "d", 0x0, " ", 0x0, "u"
	DCB	0x0, "s", 0x0, "e", 0x0, "r", 0x0, " ", 0x0, "v", 0x0, "i"
	DCB	0x0, "r", 0x0, "t", 0x0, "u", 0x0, "a", 0x0, "l", 0x0, " "
	DCB	0x0, "%", 0x0, "#", 0x0, "l", 0x0, "x", 0x0, "-", 0x0, ">"
	DCB	0x0, "%", 0x0, "#", 0x0, "l", 0x0, "x", 0x0, 0xa, 0x0, 0x0
	DCB	0x0					; `string'

  00000			 AREA	 |.rdata|, DATA, READONLY
|??_C@_1FA@OCOOAJKP@?$AAC?$AAM?$AAE?$AAM?$AAK?$AA?5?$AAD?$AAe?$AAb?$AAu?$AAg?$AA?3?$AA?5?$AAC?$AAA?$AAC?$AAH?$AAE?$AA?$CF?$AAs?$AA?$CF?$AAs?$AA?5?$AAi?$AAo?$AAc?$AAt?$AAl?$AA?5?$AAr?$AAe?$AAc@| DCB "C"
	DCB	0x0, "M", 0x0, "E", 0x0, "M", 0x0, "K", 0x0, " ", 0x0, "D"
	DCB	0x0, "e", 0x0, "b", 0x0, "u", 0x0, "g", 0x0, ":", 0x0, " "
	DCB	0x0, "C", 0x0, "A", 0x0, "C", 0x0, "H", 0x0, "E", 0x0, "%"
	DCB	0x0, "s", 0x0, "%", 0x0, "s", 0x0, " ", 0x0, "i", 0x0, "o"
	DCB	0x0, "c", 0x0, "t", 0x0, "l", 0x0, " ", 0x0, "r", 0x0, "e"
	DCB	0x0, "c", 0x0, "e", 0x0, "i", 0x0, "v", 0x0, "e", 0x0, "d"
	DCB	0x0, ".", 0x0, 0xa, 0x0, 0x0, 0x0	; `string'

  00000			 AREA	 |.rdata|, DATA, READONLY
|??_C@_02KLACDDFP@WB?$AA@| DCB "WB", 0x0		; `string'

  00000			 AREA	 |.rdata|, DATA, READONLY
|??_C@_03KOECGNEM@INV?$AA@| DCB "INV", 0x0		; `string'

  00000			 AREA	 |.rdata|, DATA, READONLY
|??_C@_1EI@BJJPPGGM@?$AAC?$AAM?$AAE?$AAM?$AAK?$AA?5?$AAD?$AAe?$AAb?$AAu?$AAg?$AA?3?$AA?5?$AAG?$AAE?$AAT?$AAP?$AAO?$AAO?$AAL?$AA?3?$AA?5?$AAr?$AAe?$AAt?$AAu?$AAr?$AAn?$AAi?$AAn?$AAg?$AA?5@| DCB "C"
	DCB	0x0, "M", 0x0, "E", 0x0, "M", 0x0, "K", 0x0, " ", 0x0, "D"
	DCB	0x0, "e", 0x0, "b", 0x0, "u", 0x0, "g", 0x0, ":", 0x0, " "
	DCB	0x0, "G", 0x0, "E", 0x0, "T", 0x0, "P", 0x0, "O", 0x0, "O"
	DCB	0x0, "L", 0x0, ":", 0x0, " ", 0x0, "r", 0x0, "e", 0x0, "t"
	DCB	0x0, "u", 0x0, "r", 0x0, "n", 0x0, "i", 0x0, "n", 0x0, "g"
	DCB	0x0, " ", 0x0, "%", 0x0, "d", 0x0, 0xa, 0x0, 0x0, 0x0 ; `string'

  00000			 AREA	 |.rdata|, DATA, READONLY
|??_C@_1GE@ODKFOIGO@?$AAC?$AAM?$AAE?$AAM?$AAK?$AA?5?$AAE?$AAr?$AAr?$AAo?$AAr?$AA?3?$AA?5?$AAF?$AAa?$AAi?$AAl?$AAe?$AAd?$AA?5?$AAt?$AAo?$AA?5?$AAf?$AAi?$AAn?$AAd?$AA?5?$AAa?$AA?5?$AAp?$AAo@| DCB "C"
	DCB	0x0, "M", 0x0, "E", 0x0, "M", 0x0, "K", 0x0, " ", 0x0, "E"
	DCB	0x0, "r", 0x0, "r", 0x0, "o", 0x0, "r", 0x0, ":", 0x0, " "
	DCB	0x0, "F", 0x0, "a", 0x0, "i", 0x0, "l", 0x0, "e", 0x0, "d"
	DCB	0x0, " ", 0x0, "t", 0x0, "o", 0x0, " ", 0x0, "f", 0x0, "i"
	DCB	0x0, "n", 0x0, "d", 0x0, " ", 0x0, "a", 0x0, " ", 0x0, "p"
	DCB	0x0, "o", 0x0, "o", 0x0, "l", 0x0, " ", 0x0, "w", 0x0, "h"
	DCB	0x0, "i", 0x0, "c", 0x0, "h", 0x0, " ", 0x0, "f", 0x0, "i"
	DCB	0x0, "t", 0x0, "s", 0x0, " ", 0x0, "%", 0x0, "d", 0x0, 0xa
	DCB	0x0, 0x0, 0x0				; `string'

  00000			 AREA	 |.rdata|, DATA, READONLY
|??_C@_1NM@MJDFBKNP@?$AAC?$AAM?$AAE?$AAM?$AAK?$AA?5?$AAD?$AAe?$AAb?$AAu?$AAg?$AA?3?$AA?5?$AAG?$AAE?$AAT?$AAP?$AAO?$AAO?$AAL?$AA?3?$AA?5?$AAn?$AAo?$AA?5?$AAp?$AAo?$AAo?$AAl?$AA?9?$AAb?$AAa@| DCB "C"
	DCB	0x0, "M", 0x0, "E", 0x0, "M", 0x0, "K", 0x0, " ", 0x0, "D"
	DCB	0x0, "e", 0x0, "b", 0x0, "u", 0x0, "g", 0x0, ":", 0x0, " "
	DCB	0x0, "G", 0x0, "E", 0x0, "T", 0x0, "P", 0x0, "O", 0x0, "O"
	DCB	0x0, "L", 0x0, ":", 0x0, " ", 0x0, "n", 0x0, "o", 0x0, " "
	DCB	0x0, "p", 0x0, "o", 0x0, "o", 0x0, "l", 0x0, "-", 0x0, "b"
	DCB	0x0, "a", 0x0, "s", 0x0, "e", 0x0, "d", 0x0, " ", 0x0, "b"
	DCB	0x0, "u", 0x0, "f", 0x0, "f", 0x0, "e", 0x0, "r", 0x0, " "
	DCB	0x0, "a", 0x0, "v", 0x0, "a", 0x0, "i", 0x0, "l", 0x0, "a"
	DCB	0x0, "b", 0x0, "l", 0x0, "e", 0x0, ",", 0x0, " ", 0x0, "r"
	DCB	0x0, "e", 0x0, "t", 0x0, "u", 0x0, "r", 0x0, "n", 0x0, "i"
	DCB	0x0, "n", 0x0, "g", 0x0, " ", 0x0, "h", 0x0, "e", 0x0, "a"
	DCB	0x0, "p", 0x0, " ", 0x0, """", 0x0, "p", 0x0, "o", 0x0, "o"
	DCB	0x0, "l", 0x0, """", 0x0, " ", 0x0, "i", 0x0, "n", 0x0, "s"
	DCB	0x0, "t", 0x0, "e", 0x0, "a", 0x0, "d", 0x0, " ", 0x0, "("
	DCB	0x0, "d", 0x0, "u", 0x0, "e", 0x0, " ", 0x0, "t", 0x0, "o"
	DCB	0x0, " ", 0x0, "c", 0x0, "o", 0x0, "n", 0x0, "f", 0x0, "i"
	DCB	0x0, "g", 0x0, " ", 0x0, "o", 0x0, "v", 0x0, "e", 0x0, "r"
	DCB	0x0, "r", 0x0, "i", 0x0, "d", 0x0, "e", 0x0, ")", 0x0, 0xa
	DCB	0x0, 0x0, 0x0				; `string'

  00000			 AREA	 |.rdata|, DATA, READONLY
|??_C@_1GC@EGDDBBFG@?$AAC?$AAM?$AAE?$AAM?$AAK?$AA?5?$AAD?$AAe?$AAb?$AAu?$AAg?$AA?3?$AA?5?$AAG?$AAE?$AAT?$AAP?$AAO?$AAO?$AAL?$AA?3?$AA?5?$AAF?$AAo?$AAu?$AAn?$AAd?$AA?5?$AAa?$AA?5?$AAb?$AAe@| DCB "C"
	DCB	0x0, "M", 0x0, "E", 0x0, "M", 0x0, "K", 0x0, " ", 0x0, "D"
	DCB	0x0, "e", 0x0, "b", 0x0, "u", 0x0, "g", 0x0, ":", 0x0, " "
	DCB	0x0, "G", 0x0, "E", 0x0, "T", 0x0, "P", 0x0, "O", 0x0, "O"
	DCB	0x0, "L", 0x0, ":", 0x0, " ", 0x0, "F", 0x0, "o", 0x0, "u"
	DCB	0x0, "n", 0x0, "d", 0x0, " ", 0x0, "a", 0x0, " ", 0x0, "b"
	DCB	0x0, "e", 0x0, "s", 0x0, "t", 0x0, " ", 0x0, "f", 0x0, "i"
	DCB	0x0, "t", 0x0, " ", 0x0, "d", 0x0, "e", 0x0, "l", 0x0, "t"
	DCB	0x0, "a", 0x0, " ", 0x0, "%", 0x0, "d", 0x0, 0xa, 0x0, 0x0
	DCB	0x0					; `string'

  00000			 AREA	 |.rdata|, DATA, READONLY
|??_C@_1GG@BEIADIOI@?$AAC?$AAM?$AAE?$AAM?$AAK?$AA?5?$AAD?$AAe?$AAb?$AAu?$AAg?$AA?3?$AA?5?$AAG?$AAE?$AAT?$AAP?$AAO?$AAO?$AAL?$AA?3?$AA?5?$AAd?$AAe?$AAl?$AAt?$AAa?$AA?5?$AA?$CI?$AA?$CF?$AAd?$AA?$CJ@| DCB "C"
	DCB	0x0, "M", 0x0, "E", 0x0, "M", 0x0, "K", 0x0, " ", 0x0, "D"
	DCB	0x0, "e", 0x0, "b", 0x0, "u", 0x0, "g", 0x0, ":", 0x0, " "
	DCB	0x0, "G", 0x0, "E", 0x0, "T", 0x0, "P", 0x0, "O", 0x0, "O"
	DCB	0x0, "L", 0x0, ":", 0x0, " ", 0x0, "d", 0x0, "e", 0x0, "l"
	DCB	0x0, "t", 0x0, "a", 0x0, " ", 0x0, "(", 0x0, "%", 0x0, "d"
	DCB	0x0, ")", 0x0, " ", 0x0, "<", 0x0, " ", 0x0, "o", 0x0, "l"
	DCB	0x0, "d", 0x0, "d", 0x0, "e", 0x0, "l", 0x0, "t", 0x0, "a"
	DCB	0x0, " ", 0x0, "(", 0x0, "%", 0x0, "d", 0x0, ")", 0x0, "?"
	DCB	0x0, 0xa, 0x0, 0x0, 0x0			; `string'

  00000			 AREA	 |.rdata|, DATA, READONLY
|??_C@_1GC@LPLINNOE@?$AAC?$AAM?$AAE?$AAM?$AAK?$AA?5?$AAD?$AAe?$AAb?$AAu?$AAg?$AA?3?$AA?5?$AAG?$AAE?$AAT?$AAP?$AAO?$AAO?$AAL?$AA?3?$AA?5?$AAs?$AAi?$AAz?$AAe?$AA?5?$AA?$CI?$AA?$CF?$AAd?$AA?$CJ?$AA?5@| DCB "C"
	DCB	0x0, "M", 0x0, "E", 0x0, "M", 0x0, "K", 0x0, " ", 0x0, "D"
	DCB	0x0, "e", 0x0, "b", 0x0, "u", 0x0, "g", 0x0, ":", 0x0, " "
	DCB	0x0, "G", 0x0, "E", 0x0, "T", 0x0, "P", 0x0, "O", 0x0, "O"
	DCB	0x0, "L", 0x0, ":", 0x0, " ", 0x0, "s", 0x0, "i", 0x0, "z"
	DCB	0x0, "e", 0x0, " ", 0x0, "(", 0x0, "%", 0x0, "d", 0x0, ")"
	DCB	0x0, " ", 0x0, ">", 0x0, " ", 0x0, "r", 0x0, "e", 0x0, "q"
	DCB	0x0, "s", 0x0, "i", 0x0, "z", 0x0, "e", 0x0, " ", 0x0, "("
	DCB	0x0, "%", 0x0, "d", 0x0, ")", 0x0, "?", 0x0, 0xa, 0x0, 0x0
	DCB	0x0					; `string'

  00000			 AREA	 |.rdata|, DATA, READONLY
|??_C@_1HI@IIFIHIPJ@?$AAC?$AAM?$AAE?$AAM?$AAK?$AA?5?$AAD?$AAe?$AAb?$AAu?$AAg?$AA?3?$AA?5?$AAG?$AAE?$AAT?$AAP?$AAO?$AAO?$AAL?$AA?3?$AA?5?$AAT?$AAr?$AAy?$AAi?$AAn?$AAg?$AA?5?$AAt?$AAo?$AA?5@| DCB "C"
	DCB	0x0, "M", 0x0, "E", 0x0, "M", 0x0, "K", 0x0, " ", 0x0, "D"
	DCB	0x0, "e", 0x0, "b", 0x0, "u", 0x0, "g", 0x0, ":", 0x0, " "
	DCB	0x0, "G", 0x0, "E", 0x0, "T", 0x0, "P", 0x0, "O", 0x0, "O"
	DCB	0x0, "L", 0x0, ":", 0x0, " ", 0x0, "T", 0x0, "r", 0x0, "y"
	DCB	0x0, "i", 0x0, "n", 0x0, "g", 0x0, " ", 0x0, "t", 0x0, "o"
	DCB	0x0, " ", 0x0, "f", 0x0, "i", 0x0, "n", 0x0, "d", 0x0, " "
	DCB	0x0, "a", 0x0, " ", 0x0, "p", 0x0, "o", 0x0, "o", 0x0, "l"
	DCB	0x0, " ", 0x0, "t", 0x0, "o", 0x0, " ", 0x0, "f", 0x0, "i"
	DCB	0x0, "t", 0x0, " ", 0x0, "s", 0x0, "i", 0x0, "z", 0x0, "e"
	DCB	0x0, " ", 0x0, "%", 0x0, "d", 0x0, 0xa, 0x0, 0x0, 0x0 ; `string'

  00000			 AREA	 |.rdata|, DATA, READONLY
|??_C@_1EM@CHGMNOLN@?$AAC?$AAM?$AAE?$AAM?$AAK?$AA?5?$AAD?$AAe?$AAb?$AAu?$AAg?$AA?3?$AA?5?$AAG?$AAE?$AAT?$AAP?$AAO?$AAO?$AAL?$AA?5?$AAi?$AAo?$AAc?$AAt?$AAl?$AA?5?$AAr?$AAe?$AAc?$AAe?$AAi@| DCB "C"
	DCB	0x0, "M", 0x0, "E", 0x0, "M", 0x0, "K", 0x0, " ", 0x0, "D"
	DCB	0x0, "e", 0x0, "b", 0x0, "u", 0x0, "g", 0x0, ":", 0x0, " "
	DCB	0x0, "G", 0x0, "E", 0x0, "T", 0x0, "P", 0x0, "O", 0x0, "O"
	DCB	0x0, "L", 0x0, " ", 0x0, "i", 0x0, "o", 0x0, "c", 0x0, "t"
	DCB	0x0, "l", 0x0, " ", 0x0, "r", 0x0, "e", 0x0, "c", 0x0, "e"
	DCB	0x0, "i", 0x0, "v", 0x0, "e", 0x0, "d", 0x0, ".", 0x0, 0xa
	DCB	0x0, 0x0, 0x0				; `string'

  00000			 AREA	 |.rdata|, DATA, READONLY
|??_C@_1EG@KFEHIKGM@?$AAC?$AAM?$AAE?$AAM?$AAK?$AA?5?$AAD?$AAe?$AAb?$AAu?$AAg?$AA?3?$AA?5?$AAG?$AAE?$AAT?$AAS?$AAI?$AAZ?$AAE?$AA?5?$AAr?$AAe?$AAt?$AAu?$AAr?$AAn?$AAi?$AAn?$AAg?$AA?5?$AA?$CF@| DCB "C"
	DCB	0x0, "M", 0x0, "E", 0x0, "M", 0x0, "K", 0x0, " ", 0x0, "D"
	DCB	0x0, "e", 0x0, "b", 0x0, "u", 0x0, "g", 0x0, ":", 0x0, " "
	DCB	0x0, "G", 0x0, "E", 0x0, "T", 0x0, "S", 0x0, "I", 0x0, "Z"
	DCB	0x0, "E", 0x0, " ", 0x0, "r", 0x0, "e", 0x0, "t", 0x0, "u"
	DCB	0x0, "r", 0x0, "n", 0x0, "i", 0x0, "n", 0x0, "g", 0x0, " "
	DCB	0x0, "%", 0x0, "d", 0x0, 0xa, 0x0, 0x0, 0x0 ; `string'

  00000			 AREA	 |.rdata|, DATA, READONLY
|??_C@_1GC@JHLICFOL@?$AAC?$AAM?$AAE?$AAM?$AAK?$AA?5?$AAE?$AAr?$AAr?$AAo?$AAr?$AA?3?$AA?5?$AAG?$AAE?$AAT?$AAS?$AAI?$AAZ?$AAE?$AA?3?$AA?5?$AAi?$AAn?$AAv?$AAa?$AAl?$AAi?$AAd?$AA?5?$AAp?$AAo@| DCB "C"
	DCB	0x0, "M", 0x0, "E", 0x0, "M", 0x0, "K", 0x0, " ", 0x0, "E"
	DCB	0x0, "r", 0x0, "r", 0x0, "o", 0x0, "r", 0x0, ":", 0x0, " "
	DCB	0x0, "G", 0x0, "E", 0x0, "T", 0x0, "S", 0x0, "I", 0x0, "Z"
	DCB	0x0, "E", 0x0, ":", 0x0, " ", 0x0, "i", 0x0, "n", 0x0, "v"
	DCB	0x0, "a", 0x0, "l", 0x0, "i", 0x0, "d", 0x0, " ", 0x0, "p"
	DCB	0x0, "o", 0x0, "o", 0x0, "l", 0x0, " ", 0x0, "(", 0x0, "%"
	DCB	0x0, "d", 0x0, ")", 0x0, " ", 0x0, "p", 0x0, "a", 0x0, "s"
	DCB	0x0, "s", 0x0, "e", 0x0, "d", 0x0, ".", 0x0, 0xa, 0x0, 0x0
	DCB	0x0					; `string'

  00000			 AREA	 |.rdata|, DATA, READONLY
|??_C@_1EK@MKLGDKGI@?$AAC?$AAM?$AAE?$AAM?$AAK?$AA?5?$AAD?$AAe?$AAb?$AAu?$AAg?$AA?3?$AA?5?$AAG?$AAE?$AAT?$AAS?$AAI?$AAZ?$AAE?$AA?5?$AAi?$AAo?$AAc?$AAt?$AAl?$AA?5?$AAr?$AAe?$AAc?$AAe?$AAi@| DCB "C"
	DCB	0x0, "M", 0x0, "E", 0x0, "M", 0x0, "K", 0x0, " ", 0x0, "D"
	DCB	0x0, "e", 0x0, "b", 0x0, "u", 0x0, "g", 0x0, ":", 0x0, " "
	DCB	0x0, "G", 0x0, "E", 0x0, "T", 0x0, "S", 0x0, "I", 0x0, "Z"
	DCB	0x0, "E", 0x0, " ", 0x0, "i", 0x0, "o", 0x0, "c", 0x0, "t"
	DCB	0x0, "l", 0x0, " ", 0x0, "r", 0x0, "e", 0x0, "c", 0x0, "e"
	DCB	0x0, "i", 0x0, "v", 0x0, "e", 0x0, "d", 0x0, 0xa, 0x0, 0x0
	DCB	0x0					; `string'

  00000			 AREA	 |.rdata|, DATA, READONLY
|??_C@_1EM@NEHOKHNA@?$AAC?$AAM?$AAE?$AAM?$AAK?$AA?5?$AAD?$AAe?$AAb?$AAu?$AAg?$AA?3?$AA?5?$AAG?$AAE?$AAT?$AAP?$AAH?$AAY?$AAS?$AA?3?$AA?5?$AAr?$AAe?$AAt?$AAu?$AAr?$AAn?$AAi?$AAn?$AAg?$AA?5@| DCB "C"
	DCB	0x0, "M", 0x0, "E", 0x0, "M", 0x0, "K", 0x0, " ", 0x0, "D"
	DCB	0x0, "e", 0x0, "b", 0x0, "u", 0x0, "g", 0x0, ":", 0x0, " "
	DCB	0x0, "G", 0x0, "E", 0x0, "T", 0x0, "P", 0x0, "H", 0x0, "Y"
	DCB	0x0, "S", 0x0, ":", 0x0, " ", 0x0, "r", 0x0, "e", 0x0, "t"
	DCB	0x0, "u", 0x0, "r", 0x0, "n", 0x0, "i", 0x0, "n", 0x0, "g"
	DCB	0x0, " ", 0x0, "%", 0x0, "#", 0x0, "l", 0x0, "x", 0x0, 0xa
	DCB	0x0, 0x0, 0x0				; `string'

  00000			 AREA	 |.rdata|, DATA, READONLY
|??_C@_1IG@EKDDKMDK@?$AAC?$AAM?$AAE?$AAM?$AAK?$AA?5?$AAE?$AAr?$AAr?$AAo?$AAr?$AA?3?$AA?5?$AAG?$AAE?$AAT?$AAP?$AAH?$AAY?$AAS?$AA?3?$AA?5?$AAF?$AAa?$AAi?$AAl?$AAe?$AAd?$AA?5?$AAt?$AAo?$AA?5@| DCB "C"
	DCB	0x0, "M", 0x0, "E", 0x0, "M", 0x0, "K", 0x0, " ", 0x0, "E"
	DCB	0x0, "r", 0x0, "r", 0x0, "o", 0x0, "r", 0x0, ":", 0x0, " "
	DCB	0x0, "G", 0x0, "E", 0x0, "T", 0x0, "P", 0x0, "H", 0x0, "Y"
	DCB	0x0, "S", 0x0, ":", 0x0, " ", 0x0, "F", 0x0, "a", 0x0, "i"
	DCB	0x0, "l", 0x0, "e", 0x0, "d", 0x0, " ", 0x0, "t", 0x0, "o"
	DCB	0x0, " ", 0x0, "c", 0x0, "o", 0x0, "n", 0x0, "v", 0x0, "e"
	DCB	0x0, "r", 0x0, "t", 0x0, " ", 0x0, "v", 0x0, "i", 0x0, "r"
	DCB	0x0, "t", 0x0, "u", 0x0, "a", 0x0, "l", 0x0, " ", 0x0, "%"
	DCB	0x0, "#", 0x0, "l", 0x0, "x", 0x0, " ", 0x0, "t", 0x0, "o"
	DCB	0x0, " ", 0x0, "p", 0x0, "h", 0x0, "y", 0x0, "s", 0x0, "i"
	DCB	0x0, "c", 0x0, "a", 0x0, "l", 0x0, ".", 0x0, 0xa, 0x0, 0x0
	DCB	0x0					; `string'

  00000			 AREA	 |.rdata|, DATA, READONLY
|??_C@_1IA@PMKIHOPJ@?$AAC?$AAM?$AAE?$AAM?$AAK?$AA?5?$AAD?$AAe?$AAb?$AAu?$AAg?$AA?3?$AA?5?$AAC?$AAM?$AAK?$AA_?$AAI?$AAO?$AAC?$AAo?$AAn?$AAt?$AAr?$AAo?$AAl?$AA?5?$AAc?$AAa?$AAs?$AAe?$AA?5@| DCB "C"
	DCB	0x0, "M", 0x0, "E", 0x0, "M", 0x0, "K", 0x0, " ", 0x0, "D"
	DCB	0x0, "e", 0x0, "b", 0x0, "u", 0x0, "g", 0x0, ":", 0x0, " "
	DCB	0x0, "C", 0x0, "M", 0x0, "K", 0x0, "_", 0x0, "I", 0x0, "O"
	DCB	0x0, "C", 0x0, "o", 0x0, "n", 0x0, "t", 0x0, "r", 0x0, "o"
	DCB	0x0, "l", 0x0, " ", 0x0, "c", 0x0, "a", 0x0, "s", 0x0, "e"
	DCB	0x0, " ", 0x0, "C", 0x0, "M", 0x0, "E", 0x0, "M", 0x0, "_"
	DCB	0x0, "I", 0x0, "O", 0x0, "C", 0x0, "G", 0x0, "E", 0x0, "T"
	DCB	0x0, "P", 0x0, "H", 0x0, "Y", 0x0, "S", 0x0, ":", 0x0, " "
	DCB	0x0, "v", 0x0, "i", 0x0, "r", 0x0, "t", 0x0, "p", 0x0, " "
	DCB	0x0, "=", 0x0, " ", 0x0, "%", 0x0, "#", 0x0, "l", 0x0, "x"
	DCB	0x0, ".", 0x0, 0xa, 0x0, 0x0, 0x0	; `string'

  00000			 AREA	 |.rdata|, DATA, READONLY
|??_C@_1EM@EDDHNKIM@?$AAC?$AAM?$AAE?$AAM?$AAK?$AA?5?$AAD?$AAe?$AAb?$AAu?$AAg?$AA?3?$AA?5?$AAG?$AAE?$AAT?$AAP?$AAH?$AAY?$AAS?$AA?5?$AAi?$AAo?$AAc?$AAt?$AAl?$AA?5?$AAr?$AAe?$AAc?$AAe?$AAi@| DCB "C"
	DCB	0x0, "M", 0x0, "E", 0x0, "M", 0x0, "K", 0x0, " ", 0x0, "D"
	DCB	0x0, "e", 0x0, "b", 0x0, "u", 0x0, "g", 0x0, ":", 0x0, " "
	DCB	0x0, "G", 0x0, "E", 0x0, "T", 0x0, "P", 0x0, "H", 0x0, "Y"
	DCB	0x0, "S", 0x0, " ", 0x0, "i", 0x0, "o", 0x0, "c", 0x0, "t"
	DCB	0x0, "l", 0x0, " ", 0x0, "r", 0x0, "e", 0x0, "c", 0x0, "e"
	DCB	0x0, "i", 0x0, "v", 0x0, "e", 0x0, "d", 0x0, ".", 0x0, 0xa
	DCB	0x0, 0x0, 0x0				; `string'

  00000			 AREA	 |.rdata|, DATA, READONLY
|??_C@_1GK@IGEFKKAD@?$AAC?$AAM?$AAE?$AAM?$AAK?$AA?5?$AAD?$AAe?$AAb?$AAu?$AAg?$AA?3?$AA?5?$AAF?$AAR?$AAE?$AAE?$AA?$CF?$AAs?$AA?$CF?$AAs?$AA?3?$AA?5?$AAr?$AAe?$AAt?$AAu?$AAr?$AAn?$AAi?$AAn?$AAg@| DCB "C"
	DCB	0x0, "M", 0x0, "E", 0x0, "M", 0x0, "K", 0x0, " ", 0x0, "D"
	DCB	0x0, "e", 0x0, "b", 0x0, "u", 0x0, "g", 0x0, ":", 0x0, " "
	DCB	0x0, "F", 0x0, "R", 0x0, "E", 0x0, "E", 0x0, "%", 0x0, "s"
	DCB	0x0, "%", 0x0, "s", 0x0, ":", 0x0, " ", 0x0, "r", 0x0, "e"
	DCB	0x0, "t", 0x0, "u", 0x0, "r", 0x0, "n", 0x0, "i", 0x0, "n"
	DCB	0x0, "g", 0x0, " ", 0x0, "s", 0x0, "i", 0x0, "z", 0x0, "e"
	DCB	0x0, " ", 0x0, "%", 0x0, "d", 0x0, ",", 0x0, " ", 0x0, "p"
	DCB	0x0, "o", 0x0, "o", 0x0, "l", 0x0, "i", 0x0, "d", 0x0, " "
	DCB	0x0, "%", 0x0, "d", 0x0, 0xa, 0x0, 0x0, 0x0 ; `string'

  00000			 AREA	 |.rdata|, DATA, READONLY
|??_C@_1FI@PDOJBEOL@?$AAC?$AAM?$AAE?$AAM?$AAK?$AA?5?$AAE?$AAr?$AAr?$AAo?$AAr?$AA?3?$AA?5?$AAF?$AAa?$AAi?$AAl?$AAe?$AAd?$AA?5?$AAt?$AAo?$AA?5?$AAf?$AAr?$AAe?$AAe?$AA?5?$AAm?$AAe?$AAm?$AAo@| DCB "C"
	DCB	0x0, "M", 0x0, "E", 0x0, "M", 0x0, "K", 0x0, " ", 0x0, "E"
	DCB	0x0, "r", 0x0, "r", 0x0, "o", 0x0, "r", 0x0, ":", 0x0, " "
	DCB	0x0, "F", 0x0, "a", 0x0, "i", 0x0, "l", 0x0, "e", 0x0, "d"
	DCB	0x0, " ", 0x0, "t", 0x0, "o", 0x0, " ", 0x0, "f", 0x0, "r"
	DCB	0x0, "e", 0x0, "e", 0x0, " ", 0x0, "m", 0x0, "e", 0x0, "m"
	DCB	0x0, "o", 0x0, "r", 0x0, "y", 0x0, " ", 0x0, "a", 0x0, "t"
	DCB	0x0, " ", 0x0, "%", 0x0, "#", 0x0, "l", 0x0, "x", 0x0, 0xa
	DCB	0x0, 0x0, 0x0				; `string'

  00000			 AREA	 |.rdata|, DATA, READONLY
|??_C@_1IE@KFMGGDNN@?$AAC?$AAM?$AAE?$AAM?$AAK?$AA?5?$AAD?$AAe?$AAb?$AAu?$AAg?$AA?3?$AA?5?$AAF?$AAR?$AAE?$AAE?$AA?$CF?$AAs?$AA?$CF?$AAs?$AA?3?$AA?5?$AAS?$AAu?$AAc?$AAc?$AAe?$AAs?$AAs?$AAf?$AAu@| DCB "C"
	DCB	0x0, "M", 0x0, "E", 0x0, "M", 0x0, "K", 0x0, " ", 0x0, "D"
	DCB	0x0, "e", 0x0, "b", 0x0, "u", 0x0, "g", 0x0, ":", 0x0, " "
	DCB	0x0, "F", 0x0, "R", 0x0, "E", 0x0, "E", 0x0, "%", 0x0, "s"
	DCB	0x0, "%", 0x0, "s", 0x0, ":", 0x0, " ", 0x0, "S", 0x0, "u"
	DCB	0x0, "c", 0x0, "c", 0x0, "e", 0x0, "s", 0x0, "s", 0x0, "f"
	DCB	0x0, "u", 0x0, "l", 0x0, "l", 0x0, "y", 0x0, " ", 0x0, "f"
	DCB	0x0, "r", 0x0, "e", 0x0, "e", 0x0, "d", 0x0, " ", 0x0, "b"
	DCB	0x0, "u", 0x0, "f", 0x0, "f", 0x0, "e", 0x0, "r", 0x0, " "
	DCB	0x0, "%", 0x0, "d", 0x0, " ", 0x0, "f", 0x0, "r", 0x0, "o"
	DCB	0x0, "m", 0x0, " ", 0x0, "p", 0x0, "o", 0x0, "o", 0x0, "l"
	DCB	0x0, " ", 0x0, "%", 0x0, "d", 0x0, 0xa, 0x0, 0x0, 0x0 ; `string'

  00000			 AREA	 |.rdata|, DATA, READONLY
|??_C@_1JC@KNEBIOIE@?$AAC?$AAM?$AAE?$AAM?$AAK?$AA?5?$AAE?$AAr?$AAr?$AAo?$AAr?$AA?3?$AA?5?$AAF?$AAR?$AAE?$AAE?$AA?$CF?$AAs?$AA?$CF?$AAs?$AA?3?$AA?5?$AAF?$AAa?$AAi?$AAl?$AAe?$AAd?$AA?5?$AAt?$AAo@| DCB "C"
	DCB	0x0, "M", 0x0, "E", 0x0, "M", 0x0, "K", 0x0, " ", 0x0, "E"
	DCB	0x0, "r", 0x0, "r", 0x0, "o", 0x0, "r", 0x0, ":", 0x0, " "
	DCB	0x0, "F", 0x0, "R", 0x0, "E", 0x0, "E", 0x0, "%", 0x0, "s"
	DCB	0x0, "%", 0x0, "s", 0x0, ":", 0x0, " ", 0x0, "F", 0x0, "a"
	DCB	0x0, "i", 0x0, "l", 0x0, "e", 0x0, "d", 0x0, " ", 0x0, "t"
	DCB	0x0, "o", 0x0, " ", 0x0, "f", 0x0, "r", 0x0, "e", 0x0, "e"
	DCB	0x0, " ", 0x0, "b", 0x0, "u", 0x0, "f", 0x0, "f", 0x0, "e"
	DCB	0x0, "r", 0x0, " ", 0x0, "%", 0x0, "d", 0x0, " ", 0x0, "f"
	DCB	0x0, "r", 0x0, "o", 0x0, "m", 0x0, " ", 0x0, "p", 0x0, "o"
	DCB	0x0, "o", 0x0, "l", 0x0, " ", 0x0, "%", 0x0, "d", 0x0, " "
	DCB	0x0, "-", 0x0, " ", 0x0, "e", 0x0, "r", 0x0, "r", 0x0, "o"
	DCB	0x0, "r", 0x0, ":", 0x0, "%", 0x0, "d", 0x0, 0xa, 0x0, 0x0
	DCB	0x0					; `string'

  00000			 AREA	 |.rdata|, DATA, READONLY
|??_C@_1EO@LLFGGNAM@?$AAC?$AAM?$AAE?$AAM?$AAK?$AA?5?$AAD?$AAe?$AAb?$AAu?$AAg?$AA?3?$AA?5?$AAF?$AAR?$AAE?$AAE?$AA?$CF?$AAs?$AA?$CF?$AAs?$AA?5?$AAi?$AAo?$AAc?$AAt?$AAl?$AA?5?$AAr?$AAe?$AAc?$AAe@| DCB "C"
	DCB	0x0, "M", 0x0, "E", 0x0, "M", 0x0, "K", 0x0, " ", 0x0, "D"
	DCB	0x0, "e", 0x0, "b", 0x0, "u", 0x0, "g", 0x0, ":", 0x0, " "
	DCB	0x0, "F", 0x0, "R", 0x0, "E", 0x0, "E", 0x0, "%", 0x0, "s"
	DCB	0x0, "%", 0x0, "s", 0x0, " ", 0x0, "i", 0x0, "o", 0x0, "c"
	DCB	0x0, "t", 0x0, "l", 0x0, " ", 0x0, "r", 0x0, "e", 0x0, "c"
	DCB	0x0, "e", 0x0, "i", 0x0, "v", 0x0, "e", 0x0, "d", 0x0, "."
	DCB	0x0, 0xa, 0x0, 0x0, 0x0			; `string'

  00000			 AREA	 |.rdata|, DATA, READONLY
|??_C@_04DGHHAJMG@HEAP?$AA@| DCB "HEAP", 0x0		; `string'

  00000			 AREA	 |.rdata|, DATA, READONLY
|??_C@_04KNJFKMFD@PHYS?$AA@| DCB "PHYS", 0x0		; `string'

  00000			 AREA	 |.rdata|, DATA, READONLY
|??_C@_1IC@NCAFIKLL@?$AAC?$AAM?$AAE?$AAM?$AAK?$AA?5?$AAD?$AAe?$AAb?$AAu?$AAg?$AA?3?$AA?5?$AAA?$AAL?$AAL?$AAO?$AAC?$AA?$CF?$AAs?$AA?3?$AA?5?$AAa?$AAl?$AAl?$AAo?$AAc?$AAa?$AAt?$AAe?$AAd?$AA?5@| DCB "C"
	DCB	0x0, "M", 0x0, "E", 0x0, "M", 0x0, "K", 0x0, " ", 0x0, "D"
	DCB	0x0, "e", 0x0, "b", 0x0, "u", 0x0, "g", 0x0, ":", 0x0, " "
	DCB	0x0, "A", 0x0, "L", 0x0, "L", 0x0, "O", 0x0, "C", 0x0, "%"
	DCB	0x0, "s", 0x0, ":", 0x0, " ", 0x0, "a", 0x0, "l", 0x0, "l"
	DCB	0x0, "o", 0x0, "c", 0x0, "a", 0x0, "t", 0x0, "e", 0x0, "d"
	DCB	0x0, " ", 0x0, "a", 0x0, " ", 0x0, "b", 0x0, "u", 0x0, "f"
	DCB	0x0, "f", 0x0, "e", 0x0, "r", 0x0, " ", 0x0, "a", 0x0, "t"
	DCB	0x0, " ", 0x0, "%", 0x0, "#", 0x0, "l", 0x0, "x", 0x0, " "
	DCB	0x0, "(", 0x0, "p", 0x0, "h", 0x0, "y", 0x0, "s", 0x0, " "
	DCB	0x0, "a", 0x0, "d", 0x0, "d", 0x0, "r", 0x0, "e", 0x0, "s"
	DCB	0x0, "s", 0x0, ")", 0x0, 0xa, 0x0, 0x0, 0x0 ; `string'

  00000			 AREA	 |.rdata|, DATA, READONLY
|??_C@_1HE@ECHHIHNI@?$AAC?$AAM?$AAE?$AAM?$AAK?$AA?5?$AAE?$AAr?$AAr?$AAo?$AAr?$AA?3?$AA?5?$AAA?$AAL?$AAL?$AAO?$AAC?$AA?$CF?$AAs?$AA?3?$AA?5?$AAV?$AAi?$AAr?$AAt?$AAu?$AAa?$AAl?$AAC?$AAo?$AAp@| DCB "C"
	DCB	0x0, "M", 0x0, "E", 0x0, "M", 0x0, "K", 0x0, " ", 0x0, "E"
	DCB	0x0, "r", 0x0, "r", 0x0, "o", 0x0, "r", 0x0, ":", 0x0, " "
	DCB	0x0, "A", 0x0, "L", 0x0, "L", 0x0, "O", 0x0, "C", 0x0, "%"
	DCB	0x0, "s", 0x0, ":", 0x0, " ", 0x0, "V", 0x0, "i", 0x0, "r"
	DCB	0x0, "t", 0x0, "u", 0x0, "a", 0x0, "l", 0x0, "C", 0x0, "o"
	DCB	0x0, "p", 0x0, "y", 0x0, "E", 0x0, "x", 0x0, "(", 0x0, ")"
	DCB	0x0, " ", 0x0, "f", 0x0, "a", 0x0, "i", 0x0, "l", 0x0, "e"
	DCB	0x0, "d", 0x0, " ", 0x0, "f", 0x0, "o", 0x0, "r", 0x0, " "
	DCB	0x0, "p", 0x0, "o", 0x0, "o", 0x0, "l", 0x0, " ", 0x0, "%"
	DCB	0x0, "d", 0x0, 0xa, 0x0, 0x0, 0x0	; `string'

  00000			 AREA	 |.rdata|, DATA, READONLY
|??_C@_1HK@NMPGNINP@?$AAC?$AAM?$AAE?$AAM?$AAK?$AA?5?$AAE?$AAr?$AAr?$AAo?$AAr?$AA?3?$AA?5?$AAA?$AAL?$AAL?$AAO?$AAC?$AA?$CF?$AAs?$AA?3?$AA?5?$AAN?$AAo?$AA?5?$AAf?$AAr?$AAe?$AAe?$AA?5?$AAb?$AAu@| DCB "C"
	DCB	0x0, "M", 0x0, "E", 0x0, "M", 0x0, "K", 0x0, " ", 0x0, "E"
	DCB	0x0, "r", 0x0, "r", 0x0, "o", 0x0, "r", 0x0, ":", 0x0, " "
	DCB	0x0, "A", 0x0, "L", 0x0, "L", 0x0, "O", 0x0, "C", 0x0, "%"
	DCB	0x0, "s", 0x0, ":", 0x0, " ", 0x0, "N", 0x0, "o", 0x0, " "
	DCB	0x0, "f", 0x0, "r", 0x0, "e", 0x0, "e", 0x0, " ", 0x0, "b"
	DCB	0x0, "u", 0x0, "f", 0x0, "f", 0x0, "e", 0x0, "r", 0x0, "s"
	DCB	0x0, " ", 0x0, "a", 0x0, "v", 0x0, "a", 0x0, "i", 0x0, "l"
	DCB	0x0, "a", 0x0, "b", 0x0, "l", 0x0, "e", 0x0, " ", 0x0, "f"
	DCB	0x0, "o", 0x0, "r", 0x0, " ", 0x0, "p", 0x0, "o", 0x0, "o"
	DCB	0x0, "l", 0x0, " ", 0x0, "%", 0x0, "d", 0x0, 0xa, 0x0, 0x0
	DCB	0x0					; `string'

  00000			 AREA	 |.rdata|, DATA, READONLY
|??_C@_1GC@NHBEENPF@?$AAC?$AAM?$AAE?$AAM?$AAK?$AA?5?$AAE?$AAr?$AAr?$AAo?$AAr?$AA?3?$AA?5?$AAA?$AAL?$AAL?$AAO?$AAC?$AA?$CF?$AAs?$AA?3?$AA?5?$AAi?$AAn?$AAv?$AAa?$AAl?$AAi?$AAd?$AA?5?$AAp?$AAo@| DCB "C"
	DCB	0x0, "M", 0x0, "E", 0x0, "M", 0x0, "K", 0x0, " ", 0x0, "E"
	DCB	0x0, "r", 0x0, "r", 0x0, "o", 0x0, "r", 0x0, ":", 0x0, " "
	DCB	0x0, "A", 0x0, "L", 0x0, "L", 0x0, "O", 0x0, "C", 0x0, "%"
	DCB	0x0, "s", 0x0, ":", 0x0, " ", 0x0, "i", 0x0, "n", 0x0, "v"
	DCB	0x0, "a", 0x0, "l", 0x0, "i", 0x0, "d", 0x0, " ", 0x0, "p"
	DCB	0x0, "o", 0x0, "o", 0x0, "l", 0x0, " ", 0x0, "(", 0x0, "%"
	DCB	0x0, "d", 0x0, ")", 0x0, " ", 0x0, "p", 0x0, "a", 0x0, "s"
	DCB	0x0, "s", 0x0, "e", 0x0, "d", 0x0, ".", 0x0, 0xa, 0x0, 0x0
	DCB	0x0					; `string'

  00000			 AREA	 |.rdata|, DATA, READONLY
|??_C@_1II@HMLBPOKD@?$AAC?$AAM?$AAE?$AAM?$AAK?$AA?5?$AAD?$AAe?$AAb?$AAu?$AAg?$AA?3?$AA?5?$AAA?$AAL?$AAL?$AAO?$AAC?$AA?$CF?$AAs?$AA?5?$AAi?$AAo?$AAc?$AAt?$AAl?$AA?5?$AAr?$AAe?$AAc?$AAe?$AAi@| DCB "C"
	DCB	0x0, "M", 0x0, "E", 0x0, "M", 0x0, "K", 0x0, " ", 0x0, "D"
	DCB	0x0, "e", 0x0, "b", 0x0, "u", 0x0, "g", 0x0, ":", 0x0, " "
	DCB	0x0, "A", 0x0, "L", 0x0, "L", 0x0, "O", 0x0, "C", 0x0, "%"
	DCB	0x0, "s", 0x0, " ", 0x0, "i", 0x0, "o", 0x0, "c", 0x0, "t"
	DCB	0x0, "l", 0x0, " ", 0x0, "r", 0x0, "e", 0x0, "c", 0x0, "e"
	DCB	0x0, "i", 0x0, "v", 0x0, "e", 0x0, "d", 0x0, " ", 0x0, "o"
	DCB	0x0, "n", 0x0, " ", 0x0, "p", 0x0, "o", 0x0, "o", 0x0, "l"
	DCB	0x0, " ", 0x0, "%", 0x0, "d", 0x0, " ", 0x0, "f", 0x0, "o"
	DCB	0x0, "r", 0x0, " ", 0x0, "m", 0x0, "e", 0x0, "m", 0x0, "o"
	DCB	0x0, "r", 0x0, "y", 0x0, " ", 0x0, "b", 0x0, "l", 0x0, "o"
	DCB	0x0, "c", 0x0, "k", 0x0, " ", 0x0, "%", 0x0, "d", 0x0, 0xa
	DCB	0x0, 0x0, 0x0				; `string'

  00000			 AREA	 |.rdata|, DATA, READONLY
|??_C@_1JI@CAAHNLGC@?$AAC?$AAM?$AAE?$AAM?$AAK?$AA?5?$AAD?$AAe?$AAb?$AAu?$AAg?$AA?3?$AA?5?$AAA?$AAL?$AAL?$AAO?$AAC?$AAH?$AAE?$AAA?$AAP?$AA?$CF?$AAs?$AA?3?$AA?5?$AAa?$AAl?$AAl?$AAo?$AAc?$AAa@| DCB "C"
	DCB	0x0, "M", 0x0, "E", 0x0, "M", 0x0, "K", 0x0, " ", 0x0, "D"
	DCB	0x0, "e", 0x0, "b", 0x0, "u", 0x0, "g", 0x0, ":", 0x0, " "
	DCB	0x0, "A", 0x0, "L", 0x0, "L", 0x0, "O", 0x0, "C", 0x0, "H"
	DCB	0x0, "E", 0x0, "A", 0x0, "P", 0x0, "%", 0x0, "s", 0x0, ":"
	DCB	0x0, " ", 0x0, "a", 0x0, "l", 0x0, "l", 0x0, "o", 0x0, "c"
	DCB	0x0, "a", 0x0, "t", 0x0, "e", 0x0, "d", 0x0, " ", 0x0, "%"
	DCB	0x0, "#", 0x0, "x", 0x0, " ", 0x0, "s", 0x0, "i", 0x0, "z"
	DCB	0x0, "e", 0x0, " ", 0x0, "b", 0x0, "u", 0x0, "f", 0x0, "f"
	DCB	0x0, "e", 0x0, "r", 0x0, " ", 0x0, "a", 0x0, "t", 0x0, " "
	DCB	0x0, "%", 0x0, "#", 0x0, "l", 0x0, "x", 0x0, " ", 0x0, "("
	DCB	0x0, "p", 0x0, "h", 0x0, "y", 0x0, "s", 0x0, " ", 0x0, "a"
	DCB	0x0, "d", 0x0, "d", 0x0, "r", 0x0, "e", 0x0, "s", 0x0, "s"
	DCB	0x0, ")", 0x0, 0xa, 0x0, 0x0, 0x0	; `string'

  00000			 AREA	 |.rdata|, DATA, READONLY
|??_C@_1IC@IKJLIPKE@?$AAC?$AAM?$AAE?$AAM?$AAK?$AA?5?$AAE?$AAr?$AAr?$AAo?$AAr?$AA?3?$AA?5?$AAi?$AAo?$AAc?$AAt?$AAl?$AA?3?$AA?5?$AAf?$AAa?$AAi?$AAl?$AAe?$AAd?$AA?5?$AAt?$AAo?$AA?5?$AAm?$AAa@| DCB "C"
	DCB	0x0, "M", 0x0, "E", 0x0, "M", 0x0, "K", 0x0, " ", 0x0, "E"
	DCB	0x0, "r", 0x0, "r", 0x0, "o", 0x0, "r", 0x0, ":", 0x0, " "
	DCB	0x0, "i", 0x0, "o", 0x0, "c", 0x0, "t", 0x0, "l", 0x0, ":"
	DCB	0x0, " ", 0x0, "f", 0x0, "a", 0x0, "i", 0x0, "l", 0x0, "e"
	DCB	0x0, "d", 0x0, " ", 0x0, "t", 0x0, "o", 0x0, " ", 0x0, "m"
	DCB	0x0, "a", 0x0, "l", 0x0, "l", 0x0, "o", 0x0, "c", 0x0, " "
	DCB	0x0, "p", 0x0, "o", 0x0, "o", 0x0, "l", 0x0, "_", 0x0, "b"
	DCB	0x0, "u", 0x0, "f", 0x0, "f", 0x0, "e", 0x0, "r", 0x0, " "
	DCB	0x0, "s", 0x0, "t", 0x0, "r", 0x0, "u", 0x0, "c", 0x0, "t"
	DCB	0x0, " ", 0x0, "f", 0x0, "o", 0x0, "r", 0x0, " ", 0x0, "h"
	DCB	0x0, "e", 0x0, "a", 0x0, "p", 0x0, 0x0, 0x0 ; `string'

  00000			 AREA	 |.rdata|, DATA, READONLY
|??_C@_1IA@DGANCHDM@?$AAC?$AAM?$AAE?$AAM?$AAK?$AA?5?$AAE?$AAr?$AAr?$AAo?$AAr?$AA?3?$AA?5?$AAi?$AAo?$AAc?$AAt?$AAl?$AA?3?$AA?5?$AAf?$AAa?$AAi?$AAl?$AAe?$AAd?$AA?5?$AAt?$AAo?$AA?5?$AAa?$AAl@| DCB "C"
	DCB	0x0, "M", 0x0, "E", 0x0, "M", 0x0, "K", 0x0, " ", 0x0, "E"
	DCB	0x0, "r", 0x0, "r", 0x0, "o", 0x0, "r", 0x0, ":", 0x0, " "
	DCB	0x0, "i", 0x0, "o", 0x0, "c", 0x0, "t", 0x0, "l", 0x0, ":"
	DCB	0x0, " ", 0x0, "f", 0x0, "a", 0x0, "i", 0x0, "l", 0x0, "e"
	DCB	0x0, "d", 0x0, " ", 0x0, "t", 0x0, "o", 0x0, " ", 0x0, "a"
	DCB	0x0, "l", 0x0, "l", 0x0, "o", 0x0, "c", 0x0, "a", 0x0, "t"
	DCB	0x0, "e", 0x0, " ", 0x0, "h", 0x0, "e", 0x0, "a", 0x0, "p"
	DCB	0x0, " ", 0x0, "b", 0x0, "u", 0x0, "f", 0x0, "f", 0x0, "e"
	DCB	0x0, "r", 0x0, " ", 0x0, "o", 0x0, "f", 0x0, " ", 0x0, "s"
	DCB	0x0, "i", 0x0, "z", 0x0, "e", 0x0, " ", 0x0, "%", 0x0, "#"
	DCB	0x0, "x", 0x0, 0xa, 0x0, 0x0, 0x0	; `string'

  00000			 AREA	 |.rdata|, DATA, READONLY
|??_C@_1GO@HIHOKAPN@?$AAC?$AAM?$AAE?$AAM?$AAK?$AA?5?$AAE?$AAr?$AAr?$AAo?$AAr?$AA?3?$AA?5?$AAi?$AAo?$AAc?$AAt?$AAl?$AA?3?$AA?5?$AAi?$AAn?$AAv?$AAa?$AAl?$AAi?$AAd?$AA?5?$AAb?$AAl?$AAo?$AAc@| DCB "C"
	DCB	0x0, "M", 0x0, "E", 0x0, "M", 0x0, "K", 0x0, " ", 0x0, "E"
	DCB	0x0, "r", 0x0, "r", 0x0, "o", 0x0, "r", 0x0, ":", 0x0, " "
	DCB	0x0, "i", 0x0, "o", 0x0, "c", 0x0, "t", 0x0, "l", 0x0, ":"
	DCB	0x0, " ", 0x0, "i", 0x0, "n", 0x0, "v", 0x0, "a", 0x0, "l"
	DCB	0x0, "i", 0x0, "d", 0x0, " ", 0x0, "b", 0x0, "l", 0x0, "o"
	DCB	0x0, "c", 0x0, "k", 0x0, " ", 0x0, "i", 0x0, "d", 0x0, " "
	DCB	0x0, "%", 0x0, "d", 0x0, ",", 0x0, " ", 0x0, "m", 0x0, "u"
	DCB	0x0, "s", 0x0, "t", 0x0, " ", 0x0, "b", 0x0, "e", 0x0, " "
	DCB	0x0, "<", 0x0, " ", 0x0, "%", 0x0, "d", 0x0, 0xa, 0x0, 0x0
	DCB	0x0					; `string'

  00000			 AREA	 |.rdata|, DATA, READONLY
|??_C@_1IG@GKJGLDOM@?$AAC?$AAM?$AAE?$AAM?$AAK?$AA?5?$AAD?$AAe?$AAb?$AAu?$AAg?$AA?3?$AA?5?$AAA?$AAL?$AAL?$AAO?$AAC?$AAH?$AAE?$AAA?$AAP?$AA?$CF?$AAs?$AA?5?$AAi?$AAo?$AAc?$AAt?$AAl?$AA?5?$AAr@| DCB "C"
	DCB	0x0, "M", 0x0, "E", 0x0, "M", 0x0, "K", 0x0, " ", 0x0, "D"
	DCB	0x0, "e", 0x0, "b", 0x0, "u", 0x0, "g", 0x0, ":", 0x0, " "
	DCB	0x0, "A", 0x0, "L", 0x0, "L", 0x0, "O", 0x0, "C", 0x0, "H"
	DCB	0x0, "E", 0x0, "A", 0x0, "P", 0x0, "%", 0x0, "s", 0x0, " "
	DCB	0x0, "i", 0x0, "o", 0x0, "c", 0x0, "t", 0x0, "l", 0x0, " "
	DCB	0x0, "r", 0x0, "e", 0x0, "c", 0x0, "e", 0x0, "i", 0x0, "v"
	DCB	0x0, "e", 0x0, "d", 0x0, " ", 0x0, "o", 0x0, "n", 0x0, " "
	DCB	0x0, "h", 0x0, "e", 0x0, "a", 0x0, "p", 0x0, " ", 0x0, "p"
	DCB	0x0, "o", 0x0, "o", 0x0, "l", 0x0, " ", 0x0, "f", 0x0, "o"
	DCB	0x0, "r", 0x0, " ", 0x0, "b", 0x0, "l", 0x0, "o", 0x0, "c"
	DCB	0x0, "k", 0x0, " ", 0x0, "%", 0x0, "d", 0x0, 0xa, 0x0, 0x0
	DCB	0x0					; `string'

  00000			 AREA	 |.rdata|, DATA, READONLY
|??_C@_00CNPNBAHC@?$AA@| DCB 0x0			; `string'

  00000			 AREA	 |.rdata|, DATA, READONLY
|??_C@_06HAMDABMN@CACHED?$AA@| DCB "CACHED", 0x0	; `string'
; Function compile flags: /Odtp

  01e88			 AREA	 |.text|, CODE, ARM

  01e88		 |CMK_IOControl| PROC

; 1231 : {

  01e88		 |$LN170@CMK_IOCont|
  01e88	e1a0c00d	 mov         r12, sp
  01e8c	e92d000f	 stmdb       sp!, {r0 - r3}
  01e90	e92d5000	 stmdb       sp!, {r12, lr}
  01e94	e24ddf61	 sub         sp, sp, #0x61, 30
  01e98		 |$M41414|

; 1232 : 
; 1233 :     LIST_ENTRY *freelistp = NULL;

  01e98	e3a03000	 mov         r3, #0
  01e9c	e58d3010	 str         r3, [sp, #0x10]

; 1234 :     LIST_ENTRY *busylistp = NULL;

  01ea0	e3a03000	 mov         r3, #0
  01ea4	e58d300c	 str         r3, [sp, #0xC]

; 1235 :     LIST_ENTRY *e = NULL;

  01ea8	e3a03000	 mov         r3, #0
  01eac	e58d3058	 str         r3, [sp, #0x58]

; 1236 :     struct pool_buffer *entry;
; 1237 :     unsigned long physp;
; 1238 :     unsigned long virtp, virtp_end;
; 1239 :     size_t reqsize, size, align;
; 1240 :     int delta = MAXTYPE(int);

  01eb0	e3e03102	 mvn         r3, #2, 2
  01eb4	e58d3050	 str         r3, [sp, #0x50]

; 1241 :     int pool = -1;

  01eb8	e3e03000	 mvn         r3, #0
  01ebc	e58d3064	 str         r3, [sp, #0x64]

; 1242 :     int i;
; 1243 :     int bi;
; 1244 :     struct block_struct block;
; 1245 :     struct block_struct *pBlock;
; 1246 :     union CMEM_AllocUnion allocDesc;
; 1247 :     //PUCHAR pInBufSafe = NULL;
; 1248 :     union CMEM_AllocUnion *pAllocDesc;
; 1249 :     PVOID pUsrVA;
; 1250 :     DWORD dwCallerProcId;
; 1251 :     DWORD cacheFlag;
; 1252 : 
; 1253 :     switch (Ioctl & CMEM_IOCCMDMASK) {

  01ec0	e59d3190	 ldr         r3, [sp, #0x190]
  01ec4	e20330ff	 and         r3, r3, #0xFF
  01ec8	e58d30c8	 str         r3, [sp, #0xC8]
  01ecc	e59d30c8	 ldr         r3, [sp, #0xC8]
  01ed0	e2433001	 sub         r3, r3, #1
  01ed4	e58d30c8	 str         r3, [sp, #0xC8]
  01ed8	e59d30c8	 ldr         r3, [sp, #0xC8]
  01edc	e353000c	 cmp         r3, #0xC
  01ee0	8a0005e4	 bhi         |$LN1@CMK_IOCont|
  01ee4	e59d20c8	 ldr         r2, [sp, #0xC8]
  01ee8	e1a03102	 mov         r3, r2, lsl #2
  01eec	e083300f	 add         r3, r3, pc
  01ef0	e5933004	 ldr         r3, [r3, #4]
  01ef4	e08ff003	 add         pc, pc, r3
  01ef8		 |$LN154@CMK_IOCont|
  01ef8		 |$LN153@CMK_IOCont|
  01ef8		 |$LN155@CMK_IOCont|
  01ef8	000003f8	 DCD         0x3f8
  01efc		 |$LN156@CMK_IOCont|
  01efc	00000030	 DCD         0x30
  01f00		 |$LN157@CMK_IOCont|
  01f00	0000090c	 DCD         0x90c
  01f04		 |$LN158@CMK_IOCont|
  01f04	00000d88	 DCD         0xd88
  01f08		 |$LN159@CMK_IOCont|
  01f08	00000eac	 DCD         0xeac
  01f0c		 |$LN160@CMK_IOCont|
  01f0c	00000ff0	 DCD         0xff0
  01f10		 |$LN161@CMK_IOCont|
  01f10	000012c0	 DCD         0x12c0
  01f14		 |$LN162@CMK_IOCont|
  01f14	0000142c	 DCD         0x142c
  01f18		 |$LN163@CMK_IOCont|
  01f18	000014bc	 DCD         0x14bc
  01f1c		 |$LN164@CMK_IOCont|
  01f1c	0000177c	 DCD         0x177c
  01f20		 |$LN165@CMK_IOCont|
  01f20	00001474	 DCD         0x1474
  01f24		 |$LN166@CMK_IOCont|
  01f24	00001574	 DCD         0x1574
  01f28		 |$LN167@CMK_IOCont|
  01f28	0000167c	 DCD         0x167c
  01f2c		 |$LN108@CMK_IOCont|

; 1254 :         case CMEM_IOCALLOCHEAP:
; 1255 :             if (!pInBuf || InBufLen < sizeof(union CMEM_AllocUnion)) {

  01f2c	e59d3194	 ldr         r3, [sp, #0x194]
  01f30	e3530000	 cmp         r3, #0
  01f34	0a000002	 beq         |$LN106@CMK_IOCont|
  01f38	e59d3198	 ldr         r3, [sp, #0x198]
  01f3c	e3530010	 cmp         r3, #0x10
  01f40	2a000002	 bcs         |$LN107@CMK_IOCont|
  01f44		 |$LN106@CMK_IOCont|

; 1256 :                 return FALSE;

  01f44	e3a03000	 mov         r3, #0
  01f48	e58d3090	 str         r3, [sp, #0x90]
  01f4c	ea0005d0	 b           |$LN111@CMK_IOCont|
  01f50		 |$LN107@CMK_IOCont|

; 1257 :             }
; 1258 :             pAllocDesc = (union CMEM_AllocUnion*)pInBuf;

  01f50	e59d3194	 ldr         r3, [sp, #0x194]
  01f54	e58d3008	 str         r3, [sp, #8]

; 1259 : 
; 1260 :             size = pAllocDesc->alloc_heap_inparams.size;

  01f58	e59d3008	 ldr         r3, [sp, #8]
  01f5c	e5933000	 ldr         r3, [r3]
  01f60	e58d3024	 str         r3, [sp, #0x24]

; 1261 :             align = pAllocDesc->alloc_heap_inparams.align;

  01f64	e59d3008	 ldr         r3, [sp, #8]
  01f68	e2833004	 add         r3, r3, #4
  01f6c	e5933000	 ldr         r3, [r3]
  01f70	e58d3020	 str         r3, [sp, #0x20]

; 1262 :             bi = pAllocDesc->alloc_heap_inparams.blockid;

  01f74	e59d3008	 ldr         r3, [sp, #8]
  01f78	e2833008	 add         r3, r3, #8
  01f7c	e5933000	 ldr         r3, [r3]
  01f80	e58d304c	 str         r3, [sp, #0x4C]

; 1263 :             dwCallerProcId = pAllocDesc->alloc_heap_inparams.dwProcId;

  01f84	e59d3008	 ldr         r3, [sp, #8]
  01f88	e283300c	 add         r3, r3, #0xC
  01f8c	e5933000	 ldr         r3, [r3]
  01f90	e58d3038	 str         r3, [sp, #0x38]

; 1264 : 
; 1265 :             __D("ALLOCHEAP%s ioctl received on heap pool for block %d\n",
; 1266 :                     Ioctl & CMEM_CACHED ? "CACHED" : "", bi);

  01f94	e59d3190	 ldr         r3, [sp, #0x190]
  01f98	e3130b02	 tst         r3, #2, 22
  01f9c	0a000002	 beq         |$LN113@CMK_IOCont|
  01fa0	e59f36f0	 ldr         r3, [pc, #0x6F0]
  01fa4	e58d30cc	 str         r3, [sp, #0xCC]
  01fa8	ea000001	 b           |$LN114@CMK_IOCont|
  01fac		 |$LN113@CMK_IOCont|
  01fac	e59f36e0	 ldr         r3, [pc, #0x6E0]
  01fb0	e58d30cc	 str         r3, [sp, #0xCC]
  01fb4		 |$LN114@CMK_IOCont|
  01fb4	e59d204c	 ldr         r2, [sp, #0x4C]
  01fb8	e59d10cc	 ldr         r1, [sp, #0xCC]
  01fbc	e59f0700	 ldr         r0, [pc, #0x700]
  01fc0	eb000000	 bl          NKDbgPrintfW

; 1267 : 
; 1268 :             if (bi >= NBLOCKS) {

  01fc4	e59d304c	 ldr         r3, [sp, #0x4C]
  01fc8	e3530002	 cmp         r3, #2
  01fcc	ba000006	 blt         |$LN105@CMK_IOCont|

; 1269 :                 __E("ioctl: invalid block id %d, must be < %d\n",
; 1270 :                         bi, NBLOCKS);

  01fd0	e3a02002	 mov         r2, #2
  01fd4	e59d104c	 ldr         r1, [sp, #0x4C]
  01fd8	e59f06cc	 ldr         r0, [pc, #0x6CC]
  01fdc	eb000000	 bl          NKDbgPrintfW

; 1271 :                 return FALSE;

  01fe0	e3a03000	 mov         r3, #0
  01fe4	e58d3090	 str         r3, [sp, #0x90]
  01fe8	ea0005a9	 b           |$LN111@CMK_IOCont|
  01fec		 |$LN105@CMK_IOCont|

; 1272 :             }
; 1273 : 
; 1274 :             if (WaitForSingleObject(cmem_mutex, INFINITE) != WAIT_OBJECT_0) {

  01fec	e3e01000	 mvn         r1, #0
  01ff0	e59f3694	 ldr         r3, [pc, #0x694]
  01ff4	e5930000	 ldr         r0, [r3]
  01ff8	eb000000	 bl          WaitForSingleObject
  01ffc	e58d00d0	 str         r0, [sp, #0xD0]
  02000	e59d30d0	 ldr         r3, [sp, #0xD0]
  02004	e3530000	 cmp         r3, #0
  02008	0a000002	 beq         |$LN104@CMK_IOCont|

; 1275 :                 return FALSE;

  0200c	e3a03000	 mov         r3, #0
  02010	e58d3090	 str         r3, [sp, #0x90]
  02014	ea00059e	 b           |$LN111@CMK_IOCont|
  02018		 |$LN104@CMK_IOCont|

; 1276 :             }
; 1277 : 
; 1278 :             virtp = (unsigned long)HeapMem_alloc(bi, size, align, ALLOCRUN);

  02018	e3a03000	 mov         r3, #0
  0201c	e59d2020	 ldr         r2, [sp, #0x20]
  02020	e59d1024	 ldr         r1, [sp, #0x24]
  02024	e59d004c	 ldr         r0, [sp, #0x4C]
  02028	eb000000	 bl          HeapMem_alloc
  0202c	e58d00d4	 str         r0, [sp, #0xD4]
  02030	e59d30d4	 ldr         r3, [sp, #0xD4]
  02034	e58d301c	 str         r3, [sp, #0x1C]

; 1279 :             if (virtp == (unsigned long)NULL) {

  02038	e59d301c	 ldr         r3, [sp, #0x1C]
  0203c	e3530000	 cmp         r3, #0
  02040	1a000008	 bne         |$LN103@CMK_IOCont|

; 1280 :                 __E("ioctl: failed to allocate heap buffer of size %#x\n",
; 1281 :                         size);

  02044	e59d1024	 ldr         r1, [sp, #0x24]
  02048	e59f0670	 ldr         r0, [pc, #0x670]
  0204c	eb000000	 bl          NKDbgPrintfW

; 1282 :                 ReleaseMutex(cmem_mutex);

  02050	e59f3634	 ldr         r3, [pc, #0x634]
  02054	e5930000	 ldr         r0, [r3]
  02058	eb000000	 bl          ReleaseMutex

; 1283 :                 return FALSE;

  0205c	e3a03000	 mov         r3, #0
  02060	e58d3090	 str         r3, [sp, #0x90]
  02064	ea00058a	 b           |$LN111@CMK_IOCont|
  02068		 |$LN103@CMK_IOCont|

; 1284 :             }
; 1285 : 
; 1286 :             entry = (pool_buffer*)malloc(sizeof(struct pool_buffer));

  02068	e3a00024	 mov         r0, #0x24
  0206c	eb000000	 bl          malloc
  02070	e58d00d8	 str         r0, [sp, #0xD8]
  02074	e59d30d8	 ldr         r3, [sp, #0xD8]
  02078	e58d3054	 str         r3, [sp, #0x54]

; 1287 : 
; 1288 :             cacheFlag = (Ioctl & CMEM_CACHED) ? 0 : PAGE_NOCACHE;

  0207c	e59d3190	 ldr         r3, [sp, #0x190]
  02080	e3130b02	 tst         r3, #2, 22
  02084	0a000002	 beq         |$LN115@CMK_IOCont|
  02088	e3a03000	 mov         r3, #0
  0208c	e58d30dc	 str         r3, [sp, #0xDC]
  02090	ea000001	 b           |$LN116@CMK_IOCont|
  02094		 |$LN115@CMK_IOCont|
  02094	e3a03c02	 mov         r3, #2, 24
  02098	e58d30dc	 str         r3, [sp, #0xDC]
  0209c		 |$LN116@CMK_IOCont|
  0209c	e59d30dc	 ldr         r3, [sp, #0xDC]
  020a0	e58d3018	 str         r3, [sp, #0x18]

; 1289 : 
; 1290 :             pUsrVA = VirtualAllocEx((HANDLE)dwCallerProcId, NULL, size,
; 1291 :                     MEM_RESERVE, PAGE_READWRITE | cacheFlag);

  020a4	e59d3018	 ldr         r3, [sp, #0x18]
  020a8	e3833004	 orr         r3, r3, #4
  020ac	e58d3000	 str         r3, [sp]
  020b0	e3a03a02	 mov         r3, #2, 20
  020b4	e59d2024	 ldr         r2, [sp, #0x24]
  020b8	e3a01000	 mov         r1, #0
  020bc	e59d0038	 ldr         r0, [sp, #0x38]
  020c0	eb000000	 bl          VirtualAllocEx
  020c4	e58d00e0	 str         r0, [sp, #0xE0]
  020c8	e59d30e0	 ldr         r3, [sp, #0xE0]
  020cc	e58d3028	 str         r3, [sp, #0x28]

; 1292 : 
; 1293 :             if (!entry || !pUsrVA ||
; 1294 :                     !VirtualCopyEx((HANDLE)dwCallerProcId, pUsrVA,
; 1295 :                             (HANDLE)GetCurrentProcessId(), (PVOID)virtp, size,
; 1296 :                             PAGE_READWRITE | cacheFlag)) {

  020d0	e59d3054	 ldr         r3, [sp, #0x54]
  020d4	e3530000	 cmp         r3, #0
  020d8	0a000012	 beq         |$LN101@CMK_IOCont|
  020dc	e59d3028	 ldr         r3, [sp, #0x28]
  020e0	e3530000	 cmp         r3, #0
  020e4	0a00000f	 beq         |$LN101@CMK_IOCont|
  020e8	eb000000	 bl          GetCurrentProcessId
  020ec	e58d00e4	 str         r0, [sp, #0xE4]
  020f0	e59d3018	 ldr         r3, [sp, #0x18]
  020f4	e3833004	 orr         r3, r3, #4
