; Listing generated by Microsoft (R) Optimizing Compiler Version 14.01.60511.01 

	TTL	I:\library\trees\winceutils\winceutils-b01x\src\ti\sdo\winceutils\cmem\test\cmem_test.c
	CODE32

  00000			 AREA	 |.drectve|, DRECTVE
	DCB	"-defaultlib:LIBCMT "
	DCB	"-defaultlib:OLDNAMES "

	EXPORT	|main|
	EXPORT	|??_C@_1FI@PEIJMOMA@?$AAC?$AAM?$AAE?$AAM?$AA?5?$AAT?$AAE?$AAS?$AAT?$AA?5?$AAD?$AAe?$AAb?$AAu?$AAg?$AA?3?$AA?5?$AAP?$AAo?$AAo?$AAl?$AA?5?$AAb?$AAu?$AAf?$AAf?$AAe?$AAr?$AA?5?$AAa?$AAd?$AAd@| [ DATA ] ; `string'
	EXPORT	|??_C@_1FI@DBMNJMNJ@?$AAC?$AAM?$AAE?$AAM?$AA?5?$AAT?$AAE?$AAS?$AAT?$AA?5?$AAD?$AAe?$AAb?$AAu?$AAg?$AA?3?$AA?5?$AAH?$AAe?$AAa?$AAp?$AA?5?$AAb?$AAu?$AAf?$AAf?$AAe?$AAr?$AA?5?$AAa?$AAd?$AAd@| [ DATA ] ; `string'
	EXPORT	|??_C@_1DM@PJFIEGKK@?$AAC?$AAM?$AAE?$AAM?$AA?5?$AAT?$AAE?$AAS?$AAT?$AA?5?$AAD?$AAe?$AAb?$AAu?$AAg?$AA?3?$AA?5?$AAp?$AAt?$AAr?$AAP?$AAA?$AA?3?$AA?5?$AA0?$AAx?$AA?$CF?$AAx?$AA?6?$AA?$AA@| [ DATA ] ; `string'
	EXPORT	|??_C@_1FE@DDOEIEME@?$AAC?$AAM?$AAE?$AAM?$AA?5?$AAT?$AAE?$AAS?$AAT?$AA?5?$AAD?$AAe?$AAb?$AAu?$AAg?$AA?3?$AA?5?$AAB?$AAl?$AAo?$AAc?$AAk?$AA?5?$AA?$CF?$AA?$CD?$AAd?$AA?5?$AAa?$AAd?$AAd?$AAr?$AAe@| [ DATA ] ; `string'
	EXPORT	|??_C@_1FC@KGFIBCCA@?$AAC?$AAM?$AAE?$AAM?$AA?5?$AAT?$AAE?$AAS?$AAT?$AA?5?$AAD?$AAe?$AAb?$AAu?$AAg?$AA?3?$AA?5?$AAB?$AAl?$AAo?$AAc?$AAk?$AA?5?$AA?$CF?$AA?$CD?$AAd?$AA?5?$AAl?$AAe?$AAn?$AAg?$AAt@| [ DATA ] ; `string'
	EXPORT	|??_C@_1HG@IOKNHDEI@?$AAC?$AAM?$AAE?$AAM?$AA?5?$AAT?$AAE?$AAS?$AAT?$AA?5?$AAD?$AAe?$AAb?$AAu?$AAg?$AA?3?$AA?5?$AAC?$AAM?$AAE?$AAM?$AA_?$AAg?$AAe?$AAt?$AAB?$AAl?$AAo?$AAc?$AAk?$AAA?$AAt@| [ DATA ] ; `string'
	EXPORT	|??_C@_1FM@PDONIDOI@?$AAC?$AAM?$AAE?$AAM?$AA?5?$AAT?$AAE?$AAS?$AAT?$AA?5?$AAD?$AAe?$AAb?$AAu?$AAg?$AA?3?$AA?5?$AAN?$AAu?$AAm?$AAb?$AAe?$AAr?$AA?5?$AAo?$AAf?$AA?5?$AAC?$AAM?$AAE?$AAM?$AA?5@| [ DATA ] ; `string'
	EXPORT	|??_C@_1FI@PMBMPJAC@?$AAC?$AAM?$AAE?$AAM?$AA?5?$AAT?$AAE?$AAS?$AAT?$AA?5?$AAD?$AAe?$AAb?$AAu?$AAg?$AA?3?$AA?5?$AAC?$AAM?$AAE?$AAM?$AA_?$AAg?$AAe?$AAt?$AAN?$AAu?$AAm?$AAB?$AAl?$AAo?$AAc@| [ DATA ] ; `string'
	IMPORT	|CMEM_exit|
	IMPORT	|CMEM_getPhys|
	IMPORT	|CMEM_alloc|
	IMPORT	|CMEM_allocPool|
	IMPORT	|CMEM_getBlockAttrs|
	IMPORT	|NKDbgPrintfW|
	IMPORT	|CMEM_getNumBlocks|
	IMPORT	|CMEM_init|
; File i:\library\trees\winceutils\winceutils-b01x\src\ti\sdo\winceutils\cmem\test\cmem_test.c

  00000			 AREA	 |.pdata|, PDATA
|$T36658| DCD	|$LN14@main|
	DCD	0x40004d02

  00000			 AREA	 |.rdata|, DATA, READONLY
|??_C@_1FI@PEIJMOMA@?$AAC?$AAM?$AAE?$AAM?$AA?5?$AAT?$AAE?$AAS?$AAT?$AA?5?$AAD?$AAe?$AAb?$AAu?$AAg?$AA?3?$AA?5?$AAP?$AAo?$AAo?$AAl?$AA?5?$AAb?$AAu?$AAf?$AAf?$AAe?$AAr?$AA?5?$AAa?$AAd?$AAd@| DCB "C"
	DCB	0x0, "M", 0x0, "E", 0x0, "M", 0x0, " ", 0x0, "T", 0x0, "E"
	DCB	0x0, "S", 0x0, "T", 0x0, " ", 0x0, "D", 0x0, "e", 0x0, "b"
	DCB	0x0, "u", 0x0, "g", 0x0, ":", 0x0, " ", 0x0, "P", 0x0, "o"
	DCB	0x0, "o", 0x0, "l", 0x0, " ", 0x0, "b", 0x0, "u", 0x0, "f"
	DCB	0x0, "f", 0x0, "e", 0x0, "r", 0x0, " ", 0x0, "a", 0x0, "d"
	DCB	0x0, "d", 0x0, "r", 0x0, "e", 0x0, "s", 0x0, "s", 0x0, ":"
	DCB	0x0, " ", 0x0, "%", 0x0, "#", 0x0, "x", 0x0, ".", 0x0, 0xa
	DCB	0x0, 0x0, 0x0				; `string'

  00000			 AREA	 |.rdata|, DATA, READONLY
|??_C@_1FI@DBMNJMNJ@?$AAC?$AAM?$AAE?$AAM?$AA?5?$AAT?$AAE?$AAS?$AAT?$AA?5?$AAD?$AAe?$AAb?$AAu?$AAg?$AA?3?$AA?5?$AAH?$AAe?$AAa?$AAp?$AA?5?$AAb?$AAu?$AAf?$AAf?$AAe?$AAr?$AA?5?$AAa?$AAd?$AAd@| DCB "C"
	DCB	0x0, "M", 0x0, "E", 0x0, "M", 0x0, " ", 0x0, "T", 0x0, "E"
	DCB	0x0, "S", 0x0, "T", 0x0, " ", 0x0, "D", 0x0, "e", 0x0, "b"
	DCB	0x0, "u", 0x0, "g", 0x0, ":", 0x0, " ", 0x0, "H", 0x0, "e"
	DCB	0x0, "a", 0x0, "p", 0x0, " ", 0x0, "b", 0x0, "u", 0x0, "f"
	DCB	0x0, "f", 0x0, "e", 0x0, "r", 0x0, " ", 0x0, "a", 0x0, "d"
	DCB	0x0, "d", 0x0, "r", 0x0, "e", 0x0, "s", 0x0, "s", 0x0, ":"
	DCB	0x0, " ", 0x0, "%", 0x0, "#", 0x0, "x", 0x0, ".", 0x0, 0xa
	DCB	0x0, 0x0, 0x0				; `string'

  00000			 AREA	 |.rdata|, DATA, READONLY
|??_C@_1DM@PJFIEGKK@?$AAC?$AAM?$AAE?$AAM?$AA?5?$AAT?$AAE?$AAS?$AAT?$AA?5?$AAD?$AAe?$AAb?$AAu?$AAg?$AA?3?$AA?5?$AAp?$AAt?$AAr?$AAP?$AAA?$AA?3?$AA?5?$AA0?$AAx?$AA?$CF?$AAx?$AA?6?$AA?$AA@| DCB "C"
	DCB	0x0, "M", 0x0, "E", 0x0, "M", 0x0, " ", 0x0, "T", 0x0, "E"
	DCB	0x0, "S", 0x0, "T", 0x0, " ", 0x0, "D", 0x0, "e", 0x0, "b"
	DCB	0x0, "u", 0x0, "g", 0x0, ":", 0x0, " ", 0x0, "p", 0x0, "t"
	DCB	0x0, "r", 0x0, "P", 0x0, "A", 0x0, ":", 0x0, " ", 0x0, "0"
	DCB	0x0, "x", 0x0, "%", 0x0, "x", 0x0, 0xa, 0x0, 0x0, 0x0 ; `string'

  00000			 AREA	 |.rdata|, DATA, READONLY
|??_C@_1FE@DDOEIEME@?$AAC?$AAM?$AAE?$AAM?$AA?5?$AAT?$AAE?$AAS?$AAT?$AA?5?$AAD?$AAe?$AAb?$AAu?$AAg?$AA?3?$AA?5?$AAB?$AAl?$AAo?$AAc?$AAk?$AA?5?$AA?$CF?$AA?$CD?$AAd?$AA?5?$AAa?$AAd?$AAd?$AAr?$AAe@| DCB "C"
	DCB	0x0, "M", 0x0, "E", 0x0, "M", 0x0, " ", 0x0, "T", 0x0, "E"
	DCB	0x0, "S", 0x0, "T", 0x0, " ", 0x0, "D", 0x0, "e", 0x0, "b"
	DCB	0x0, "u", 0x0, "g", 0x0, ":", 0x0, " ", 0x0, "B", 0x0, "l"
	DCB	0x0, "o", 0x0, "c", 0x0, "k", 0x0, " ", 0x0, "%", 0x0, "#"
	DCB	0x0, "d", 0x0, " ", 0x0, "a", 0x0, "d", 0x0, "d", 0x0, "r"
	DCB	0x0, "e", 0x0, "s", 0x0, "s", 0x0, ":", 0x0, " ", 0x0, "%"
	DCB	0x0, "#", 0x0, "x", 0x0, ".", 0x0, 0xa, 0x0, 0x0, 0x0 ; `string'

  00000			 AREA	 |.rdata|, DATA, READONLY
|??_C@_1FC@KGFIBCCA@?$AAC?$AAM?$AAE?$AAM?$AA?5?$AAT?$AAE?$AAS?$AAT?$AA?5?$AAD?$AAe?$AAb?$AAu?$AAg?$AA?3?$AA?5?$AAB?$AAl?$AAo?$AAc?$AAk?$AA?5?$AA?$CF?$AA?$CD?$AAd?$AA?5?$AAl?$AAe?$AAn?$AAg?$AAt@| DCB "C"
	DCB	0x0, "M", 0x0, "E", 0x0, "M", 0x0, " ", 0x0, "T", 0x0, "E"
	DCB	0x0, "S", 0x0, "T", 0x0, " ", 0x0, "D", 0x0, "e", 0x0, "b"
	DCB	0x0, "u", 0x0, "g", 0x0, ":", 0x0, " ", 0x0, "B", 0x0, "l"
	DCB	0x0, "o", 0x0, "c", 0x0, "k", 0x0, " ", 0x0, "%", 0x0, "#"
	DCB	0x0, "d", 0x0, " ", 0x0, "l", 0x0, "e", 0x0, "n", 0x0, "g"
	DCB	0x0, "t", 0x0, "h", 0x0, ":", 0x0, " ", 0x0, "%", 0x0, "#"
	DCB	0x0, "x", 0x0, ".", 0x0, 0xa, 0x0, 0x0, 0x0 ; `string'

  00000			 AREA	 |.rdata|, DATA, READONLY
|??_C@_1HG@IOKNHDEI@?$AAC?$AAM?$AAE?$AAM?$AA?5?$AAT?$AAE?$AAS?$AAT?$AA?5?$AAD?$AAe?$AAb?$AAu?$AAg?$AA?3?$AA?5?$AAC?$AAM?$AAE?$AAM?$AA_?$AAg?$AAe?$AAt?$AAB?$AAl?$AAo?$AAc?$AAk?$AAA?$AAt@| DCB "C"
	DCB	0x0, "M", 0x0, "E", 0x0, "M", 0x0, " ", 0x0, "T", 0x0, "E"
	DCB	0x0, "S", 0x0, "T", 0x0, " ", 0x0, "D", 0x0, "e", 0x0, "b"
	DCB	0x0, "u", 0x0, "g", 0x0, ":", 0x0, " ", 0x0, "C", 0x0, "M"
	DCB	0x0, "E", 0x0, "M", 0x0, "_", 0x0, "g", 0x0, "e", 0x0, "t"
	DCB	0x0, "B", 0x0, "l", 0x0, "o", 0x0, "c", 0x0, "k", 0x0, "A"
	DCB	0x0, "t", 0x0, "t", 0x0, "r", 0x0, "s", 0x0, " ", 0x0, "f"
	DCB	0x0, "o", 0x0, "r", 0x0, " ", 0x0, "b", 0x0, "l", 0x0, "o"
	DCB	0x0, "c", 0x0, "k", 0x0, " ", 0x0, "%", 0x0, "#", 0x0, "x"
	DCB	0x0, " ", 0x0, "f", 0x0, "a", 0x0, "i", 0x0, "l", 0x0, "e"
	DCB	0x0, "d", 0x0, "!", 0x0, 0xa, 0x0, 0x0, 0x0 ; `string'

  00000			 AREA	 |.rdata|, DATA, READONLY
|??_C@_1FM@PDONIDOI@?$AAC?$AAM?$AAE?$AAM?$AA?5?$AAT?$AAE?$AAS?$AAT?$AA?5?$AAD?$AAe?$AAb?$AAu?$AAg?$AA?3?$AA?5?$AAN?$AAu?$AAm?$AAb?$AAe?$AAr?$AA?5?$AAo?$AAf?$AA?5?$AAC?$AAM?$AAE?$AAM?$AA?5@| DCB "C"
	DCB	0x0, "M", 0x0, "E", 0x0, "M", 0x0, " ", 0x0, "T", 0x0, "E"
	DCB	0x0, "S", 0x0, "T", 0x0, " ", 0x0, "D", 0x0, "e", 0x0, "b"
	DCB	0x0, "u", 0x0, "g", 0x0, ":", 0x0, " ", 0x0, "N", 0x0, "u"
	DCB	0x0, "m", 0x0, "b", 0x0, "e", 0x0, "r", 0x0, " ", 0x0, "o"
	DCB	0x0, "f", 0x0, " ", 0x0, "C", 0x0, "M", 0x0, "E", 0x0, "M"
	DCB	0x0, " ", 0x0, "b", 0x0, "l", 0x0, "o", 0x0, "c", 0x0, "k"
	DCB	0x0, "s", 0x0, ":", 0x0, " ", 0x0, "%", 0x0, "#", 0x0, "x"
	DCB	0x0, ".", 0x0, 0xa, 0x0, 0x0, 0x0	; `string'

  00000			 AREA	 |.rdata|, DATA, READONLY
|??_C@_1FI@PMBMPJAC@?$AAC?$AAM?$AAE?$AAM?$AA?5?$AAT?$AAE?$AAS?$AAT?$AA?5?$AAD?$AAe?$AAb?$AAu?$AAg?$AA?3?$AA?5?$AAC?$AAM?$AAE?$AAM?$AA_?$AAg?$AAe?$AAt?$AAN?$AAu?$AAm?$AAB?$AAl?$AAo?$AAc@| DCB "C"
	DCB	0x0, "M", 0x0, "E", 0x0, "M", 0x0, " ", 0x0, "T", 0x0, "E"
	DCB	0x0, "S", 0x0, "T", 0x0, " ", 0x0, "D", 0x0, "e", 0x0, "b"
	DCB	0x0, "u", 0x0, "g", 0x0, ":", 0x0, " ", 0x0, "C", 0x0, "M"
	DCB	0x0, "E", 0x0, "M", 0x0, "_", 0x0, "g", 0x0, "e", 0x0, "t"
	DCB	0x0, "N", 0x0, "u", 0x0, "m", 0x0, "B", 0x0, "l", 0x0, "o"
	DCB	0x0, "c", 0x0, "k", 0x0, "s", 0x0, " ", 0x0, "f", 0x0, "a"
	DCB	0x0, "i", 0x0, "l", 0x0, "e", 0x0, "d", 0x0, "!", 0x0, 0xa
	DCB	0x0, 0x0, 0x0				; `string'
; Function compile flags: /Ogspy

  00000			 AREA	 |.text|, CODE, ARM

  00000		 |main|	 PROC

; 49   : {

  00000		 |$LN14@main|
  00000	e92d4010	 stmdb       sp!, {r4, lr}
  00004	e24dd018	 sub         sp, sp, #0x18
  00008		 |$M36655|

; 50   :     CMEM_BlockAttrs   blockAttrs;
; 51   :     CMEM_AllocParams  allocParams;
; 52   :     PVOID             heapPtr;
; 53   :     PVOID             ptrPA;
; 54   :     PVOID             poolBuf;
; 55   :     int               numBlocks = 0;

  00008	e3a03000	 mov         r3, #0
  0000c	e58d3000	 str         r3, [sp]

; 56   :     int               i;
; 57   :     int               status;
; 58   : 
; 59   :     DebugBreak();

  00010	e6000010	 __debugbreak_ce

; 60   : 
; 61   :     /* Initialize CMEM driver */
; 62   :     CMEM_init();

  00014	eb000000	 bl          CMEM_init

; 63   : 
; 64   :     /* Get the number of CMEM blocks */
; 65   :     status = CMEM_getNumBlocks(&numBlocks);

  00018	e28d0000	 add         r0, sp, #0
  0001c	eb000000	 bl          CMEM_getNumBlocks
  00020	e3500000	 cmp         r0, #0

; 66   :     if (status != 0) {

  00024	0a000002	 beq         |$LN7@main|

; 67   :         __D("CMEM_getNumBlocks failed!\n");

  00028	e59f0100	 ldr         r0, [pc, #0x100]
  0002c	eb000000	 bl          NKDbgPrintfW

; 68   :     }
; 69   :     else {

  00030	ea000002	 b           |$LN6@main|
  00034		 |$LN7@main|

; 70   :         __D("Number of CMEM blocks: %#x.\n", (unsigned int)numBlocks);

  00034	e59d1000	 ldr         r1, [sp]
  00038	e59f00ec	 ldr         r0, [pc, #0xEC]
  0003c	eb000000	 bl          NKDbgPrintfW
  00040		 |$LN6@main|

; 71   :     }
; 72   : 
; 73   :     for (i = 0; i < numBlocks; i++) {

  00040	e59d3000	 ldr         r3, [sp]
  00044	e3a04000	 mov         r4, #0
  00048	e3530000	 cmp         r3, #0
  0004c	da000013	 ble         |$LN3@main|
  00050		 |$LL5@main|

; 74   :         status = CMEM_getBlockAttrs(i, &blockAttrs);

  00050	e28d1004	 add         r1, sp, #4
  00054	e1a00004	 mov         r0, r4
  00058	eb000000	 bl          CMEM_getBlockAttrs
  0005c	e3500000	 cmp         r0, #0

; 75   :         if (status != 0) {
; 76   :             __D("CMEM_getBlockAttrs for block %#x failed!\n", (unsigned int)i);

  00060	e1a01004	 mov         r1, r4
  00064	0a000002	 beq         |$LN2@main|
  00068	e59f00b8	 ldr         r0, [pc, #0xB8]
  0006c	eb000000	 bl          NKDbgPrintfW

; 77   :         }
; 78   :         else {

  00070	ea000006	 b           |$LN4@main|
  00074		 |$LN2@main|

; 79   :             __D("Block %#d address: %#x.\n", i,
; 80   :                     (unsigned int)blockAttrs.phys_base);

  00074	e59d2004	 ldr         r2, [sp, #4]
  00078	e59f00a4	 ldr         r0, [pc, #0xA4]
  0007c	eb000000	 bl          NKDbgPrintfW

; 81   :             __D("Block %#d length: %#x.\n", i,
; 82   :                     (unsigned int)blockAttrs.size);

  00080	e59d2008	 ldr         r2, [sp, #8]
  00084	e59f0094	 ldr         r0, [pc, #0x94]
  00088	e1a01004	 mov         r1, r4
  0008c	eb000000	 bl          NKDbgPrintfW
  00090		 |$LN4@main|
  00090	e59d3000	 ldr         r3, [sp]
  00094	e2844001	 add         r4, r4, #1
  00098	e1540003	 cmp         r4, r3
  0009c	baffffeb	 blt         |$LL5@main|
  000a0		 |$LN3@main|

; 83   :         }
; 84   :     }
; 85   : 
; 86   :     /* Allocate a buffer from CMEM pool */
; 87   :     allocParams.type = CMEM_POOL;

  000a0	e3a03000	 mov         r3, #0

; 88   :     allocParams.flags = CMEM_NONCACHED;

  000a4	e3a02000	 mov         r2, #0

; 89   :     poolBuf = CMEM_allocPool(0, &allocParams);

  000a8	e28d100c	 add         r1, sp, #0xC
  000ac	e3a00000	 mov         r0, #0
  000b0	e58d300c	 str         r3, [sp, #0xC]
  000b4	e58d2010	 str         r2, [sp, #0x10]
  000b8	eb000000	 bl          CMEM_allocPool
  000bc	e1a01000	 mov         r1, r0

; 90   : 
; 91   :     __D("Pool buffer address: %#x.\n", (unsigned int)poolBuf);

  000c0	e59f0054	 ldr         r0, [pc, #0x54]
  000c4	eb000000	 bl          NKDbgPrintfW

; 92   : 
; 93   :     /* Allocate buffer from CMEM heap */
; 94   :     allocParams.type = CMEM_HEAP;

  000c8	e3a03b01	 mov         r3, #1, 22

; 95   :     heapPtr = CMEM_alloc(1024, &allocParams);

  000cc	e28d100c	 add         r1, sp, #0xC
  000d0	e3a00b01	 mov         r0, #1, 22
  000d4	e58d300c	 str         r3, [sp, #0xC]
  000d8	eb000000	 bl          CMEM_alloc
  000dc	e1a04000	 mov         r4, r0

; 96   : 
; 97   :     __D("Heap buffer address: %#x.\n", (unsigned int)heapPtr);

  000e0	e59f0030	 ldr         r0, [pc, #0x30]
  000e4	e1a01004	 mov         r1, r4
  000e8	eb000000	 bl          NKDbgPrintfW

; 98   : 
; 99   :     /*
; 100  :      *  Determine physical addresses of buffer.
; 101  :      */
; 102  :     ptrPA = (PVOID)CMEM_getPhys(heapPtr);

  000ec	e1a00004	 mov         r0, r4
  000f0	eb000000	 bl          CMEM_getPhys
  000f4	e1a01000	 mov         r1, r0

; 103  : 
; 104  :     __D("ptrPA: 0x%x\n", ptrPA);

  000f8	e59f0014	 ldr         r0, [pc, #0x14]
  000fc	eb000000	 bl          NKDbgPrintfW

; 105  : 
; 106  :     CMEM_exit();

  00100	eb000000	 bl          CMEM_exit

; 107  : }

  00104	e3a00000	 mov         r0, #0
  00108	e28dd018	 add         sp, sp, #0x18
  0010c	e8bd4010	 ldmia       sp!, {r4, lr}
  00110	e12fff1e	 bx          lr
  00114		 |$LN15@main|
  00114		 |$LN16@main|
  00114	00000000	 DCD         |??_C@_1DM@PJFIEGKK@?$AAC?$AAM?$AAE?$AAM?$AA?5?$AAT?$AAE?$AAS?$AAT?$AA?5?$AAD?$AAe?$AAb?$AAu?$AAg?$AA?3?$AA?5?$AAp?$AAt?$AAr?$AAP?$AAA?$AA?3?$AA?5?$AA0?$AAx?$AA?$CF?$AAx?$AA?6?$AA?$AA@|
  00118		 |$LN17@main|
  00118	00000000	 DCD         |??_C@_1FI@DBMNJMNJ@?$AAC?$AAM?$AAE?$AAM?$AA?5?$AAT?$AAE?$AAS?$AAT?$AA?5?$AAD?$AAe?$AAb?$AAu?$AAg?$AA?3?$AA?5?$AAH?$AAe?$AAa?$AAp?$AA?5?$AAb?$AAu?$AAf?$AAf?$AAe?$AAr?$AA?5?$AAa?$AAd?$AAd@|
  0011c		 |$LN18@main|
  0011c	00000000	 DCD         |??_C@_1FI@PEIJMOMA@?$AAC?$AAM?$AAE?$AAM?$AA?5?$AAT?$AAE?$AAS?$AAT?$AA?5?$AAD?$AAe?$AAb?$AAu?$AAg?$AA?3?$AA?5?$AAP?$AAo?$AAo?$AAl?$AA?5?$AAb?$AAu?$AAf?$AAf?$AAe?$AAr?$AA?5?$AAa?$AAd?$AAd@|
  00120		 |$LN19@main|
  00120	00000000	 DCD         |??_C@_1FC@KGFIBCCA@?$AAC?$AAM?$AAE?$AAM?$AA?5?$AAT?$AAE?$AAS?$AAT?$AA?5?$AAD?$AAe?$AAb?$AAu?$AAg?$AA?3?$AA?5?$AAB?$AAl?$AAo?$AAc?$AAk?$AA?5?$AA?$CF?$AA?$CD?$AAd?$AA?5?$AAl?$AAe?$AAn?$AAg?$AAt@|
  00124		 |$LN20@main|
  00124	00000000	 DCD         |??_C@_1FE@DDOEIEME@?$AAC?$AAM?$AAE?$AAM?$AA?5?$AAT?$AAE?$AAS?$AAT?$AA?5?$AAD?$AAe?$AAb?$AAu?$AAg?$AA?3?$AA?5?$AAB?$AAl?$AAo?$AAc?$AAk?$AA?5?$AA?$CF?$AA?$CD?$AAd?$AA?5?$AAa?$AAd?$AAd?$AAr?$AAe@|
  00128		 |$LN21@main|
  00128	00000000	 DCD         |??_C@_1HG@IOKNHDEI@?$AAC?$AAM?$AAE?$AAM?$AA?5?$AAT?$AAE?$AAS?$AAT?$AA?5?$AAD?$AAe?$AAb?$AAu?$AAg?$AA?3?$AA?5?$AAC?$AAM?$AAE?$AAM?$AA_?$AAg?$AAe?$AAt?$AAB?$AAl?$AAo?$AAc?$AAk?$AAA?$AAt@|
  0012c		 |$LN22@main|
  0012c	00000000	 DCD         |??_C@_1FM@PDONIDOI@?$AAC?$AAM?$AAE?$AAM?$AA?5?$AAT?$AAE?$AAS?$AAT?$AA?5?$AAD?$AAe?$AAb?$AAu?$AAg?$AA?3?$AA?5?$AAN?$AAu?$AAm?$AAb?$AAe?$AAr?$AA?5?$AAo?$AAf?$AA?5?$AAC?$AAM?$AAE?$AAM?$AA?5@|
  00130		 |$LN23@main|
  00130	00000000	 DCD         |??_C@_1FI@PMBMPJAC@?$AAC?$AAM?$AAE?$AAM?$AA?5?$AAT?$AAE?$AAS?$AAT?$AA?5?$AAD?$AAe?$AAb?$AAu?$AAg?$AA?3?$AA?5?$AAC?$AAM?$AAE?$AAM?$AA_?$AAg?$AAe?$AAt?$AAN?$AAu?$AAm?$AAB?$AAl?$AAo?$AAc@|
  00134		 |$M36656|

			 ENDP  ; |main|

	END
