 cmem_test

 Timestamp is 4cd9a8d6 (Tue Nov 09 12:02:30 2010)

 Preferred load address is 00010000

 Start         Length     Name                   Class
 0001:00000000 00002112H .rdata                  CODE
 0001:00002114 00000026H .rdata$debug            CODE
 0001:0000213c 0000178cH .text                   CODE
 0001:000038c8 00000014H .idata$2                CODE
 0001:000038dc 00000014H .idata$3                CODE
 0001:000038f0 00000020H .idata$4                CODE
 0001:00003910 0000000cH .idata$6                CODE
 0001:0000391c 00000000H .edata                  CODE
 0002:00000000 00000020H .idata$5                DATA
 0002:00000020 0000000cH .data                   DATA
 0002:0000002c 0000000cH .bss                    DATA
 0003:00000000 000000e8H .pdata                  DATA

  Address         Publics by Value              Rva+Base       Lib:Object

 0000:00000000       ___safe_se_handler_count   00000000     <absolute>
 0000:00000000       ___safe_se_handler_table   00000000     <absolute>
 0001:0000001c       ??_C@_1DM@PJFIEGKK@?$AAC?$AAM?$AAE?$AAM?$AA?5?$AAT?$AAE?$AAS?$AAT?$AA?5?$AAD?$AAe?$AAb?$AAu?$AAg?$AA?3?$AA?5?$AAp?$AAt?$AAr?$AAP?$AAA?$AA?3?$AA?5?$AA0?$AAx?$AA?$CF?$AAx?$AA?6?$AA?$AA@ 0001101c     cmem_test.obj
 0001:00000058       ??_C@_1FI@DBMNJMNJ@?$AAC?$AAM?$AAE?$AAM?$AA?5?$AAT?$AAE?$AAS?$AAT?$AA?5?$AAD?$AAe?$AAb?$AAu?$AAg?$AA?3?$AA?5?$AAH?$AAe?$AAa?$AAp?$AA?5?$AAb?$AAu?$AAf?$AAf?$AAe?$AAr?$AA?5?$AAa?$AAd?$AAd@ 00011058     cmem_test.obj
 0001:000000b0       ??_C@_1FI@PEIJMOMA@?$AAC?$AAM?$AAE?$AAM?$AA?5?$AAT?$AAE?$AAS?$AAT?$AA?5?$AAD?$AAe?$AAb?$AAu?$AAg?$AA?3?$AA?5?$AAP?$AAo?$AAo?$AAl?$AA?5?$AAb?$AAu?$AAf?$AAf?$AAe?$AAr?$AA?5?$AAa?$AAd?$AAd@ 000110b0     cmem_test.obj
 0001:00000108       ??_C@_1FC@KGFIBCCA@?$AAC?$AAM?$AAE?$AAM?$AA?5?$AAT?$AAE?$AAS?$AAT?$AA?5?$AAD?$AAe?$AAb?$AAu?$AAg?$AA?3?$AA?5?$AAB?$AAl?$AAo?$AAc?$AAk?$AA?5?$AA?$CF?$AA?$CD?$AAd?$AA?5?$AAl?$AAe?$AAn?$AAg?$AAt@ 00011108     cmem_test.obj
 0001:00000160       ??_C@_1FE@DDOEIEME@?$AAC?$AAM?$AAE?$AAM?$AA?5?$AAT?$AAE?$AAS?$AAT?$AA?5?$AAD?$AAe?$AAb?$AAu?$AAg?$AA?3?$AA?5?$AAB?$AAl?$AAo?$AAc?$AAk?$AA?5?$AA?$CF?$AA?$CD?$AAd?$AA?5?$AAa?$AAd?$AAd?$AAr?$AAe@ 00011160     cmem_test.obj
 0001:000001b8       ??_C@_1HG@IOKNHDEI@?$AAC?$AAM?$AAE?$AAM?$AA?5?$AAT?$AAE?$AAS?$AAT?$AA?5?$AAD?$AAe?$AAb?$AAu?$AAg?$AA?3?$AA?5?$AAC?$AAM?$AAE?$AAM?$AA_?$AAg?$AAe?$AAt?$AAB?$AAl?$AAo?$AAc?$AAk?$AAA?$AAt@ 000111b8     cmem_test.obj
 0001:00000230       ??_C@_1FM@PDONIDOI@?$AAC?$AAM?$AAE?$AAM?$AA?5?$AAT?$AAE?$AAS?$AAT?$AA?5?$AAD?$AAe?$AAb?$AAu?$AAg?$AA?3?$AA?5?$AAN?$AAu?$AAm?$AAb?$AAe?$AAr?$AA?5?$AAo?$AAf?$AA?5?$AAC?$AAM?$AAE?$AAM?$AA?5@ 00011230     cmem_test.obj
 0001:00000290       ??_C@_1FI@PMBMPJAC@?$AAC?$AAM?$AAE?$AAM?$AA?5?$AAT?$AAE?$AAS?$AAT?$AA?5?$AAD?$AAe?$AAb?$AAu?$AAg?$AA?3?$AA?5?$AAC?$AAM?$AAE?$AAM?$AA_?$AAg?$AAe?$AAt?$AAN?$AAu?$AAm?$AAB?$AAl?$AAo?$AAc@ 00011290     cmem_test.obj
 0001:000002e8       ??_C@_1FM@NMIHGKJ@?$AAC?$AAM?$AAE?$AAM?$AA?5?$AAD?$AAe?$AAb?$AAu?$AAg?$AA?3?$AA?5?$AAi?$AAn?$AAi?$AAt?$AA?3?$AA?5?$AAe?$AAx?$AAi?$AAt?$AAi?$AAn?$AAg?$AA?0?$AA?5?$AAr?$AAe?$AAt?$AAu?$AAr@ 000112e8     cmem:cmem.obj
 0001:00000348       ??_C@_1FA@NJLNJHHI@?$AAC?$AAM?$AAE?$AAM?$AA?5?$AAD?$AAe?$AAb?$AAu?$AAg?$AA?3?$AA?5?$AAi?$AAn?$AAi?$AAt?$AA?3?$AA?5?$AA?4?$AA?4?$AA?4?$AA?5?$AAm?$AAa?$AAt?$AAc?$AAh?$AA?5?$AAg?$AAo?$AAo?$AAd@ 00011348     cmem:cmem.obj
 0001:00000398       ??_C@_1HE@ODCHBFDB@?$AAC?$AAM?$AAE?$AAM?$AA?5?$AAE?$AAr?$AAr?$AAo?$AAr?$AA?3?$AA?5?$AA?5?$AA?5?$AA?5?$AA?5?$AAg?$AAo?$AAt?$AA?5?$AAm?$AAi?$AAn?$AAo?$AAr?$AA?5?$AAv?$AAe?$AAr?$AAs?$AAi?$AAo@ 00011398     cmem:cmem.obj
 0001:00000410       ??_C@_1HI@IPLHLEIN@?$AAC?$AAM?$AAE?$AAM?$AA?5?$AAE?$AAr?$AAr?$AAo?$AAr?$AA?3?$AA?5?$AA?5?$AA?5?$AA?5?$AA?5?$AAn?$AAe?$AAe?$AAd?$AAs?$AA?5?$AAd?$AAr?$AAi?$AAv?$AAe?$AAr?$AA?5?$AAm?$AAi?$AAn@ 00011410     cmem:cmem.obj
 0001:00000488       ??_C@_1JA@JFMBJBAB@?$AAC?$AAM?$AAE?$AAM?$AA?5?$AAE?$AAr?$AAr?$AAo?$AAr?$AA?3?$AA?5?$AAi?$AAn?$AAi?$AAt?$AA?3?$AA?5?$AAm?$AAi?$AAn?$AAo?$AAr?$AA?5?$AAv?$AAe?$AAr?$AAs?$AAi?$AAo?$AAn?$AA?5@ 00011488     cmem:cmem.obj
 0001:00000518       ??_C@_1GG@INBHPGOM@?$AAC?$AAM?$AAE?$AAM?$AA?5?$AAE?$AAr?$AAr?$AAo?$AAr?$AA?3?$AA?5?$AA?5?$AA?5?$AA?5?$AA?5?$AAn?$AAe?$AAe?$AAd?$AAs?$AA?5?$AAd?$AAr?$AAi?$AAv?$AAe?$AAr?$AA?5?$AAv?$AAe?$AAr@ 00011518     cmem:cmem.obj
 0001:00000580       ??_C@_1JA@JEHKIDEP@?$AAC?$AAM?$AAE?$AAM?$AA?5?$AAE?$AAr?$AAr?$AAo?$AAr?$AA?3?$AA?5?$AAi?$AAn?$AAi?$AAt?$AA?3?$AA?5?$AAm?$AAa?$AAj?$AAo?$AAr?$AA?5?$AAv?$AAe?$AAr?$AAs?$AAi?$AAo?$AAn?$AA?5@ 00011580     cmem:cmem.obj
 0001:00000610       ??_C@_1JC@DJKOBHAE@?$AAC?$AAM?$AAE?$AAM?$AA?5?$AAD?$AAe?$AAb?$AAu?$AAg?$AA?3?$AA?5?$AAi?$AAn?$AAi?$AAt?$AA?3?$AA?5?$AAs?$AAu?$AAc?$AAc?$AAe?$AAs?$AAs?$AAf?$AAu?$AAl?$AAl?$AAy?$AA?5?$AAo@ 00011610     cmem:cmem.obj
 0001:000006a8       ??_C@_1FK@JLEDBNPH@?$AAC?$AAM?$AAE?$AAM?$AA?5?$AAE?$AAr?$AAr?$AAo?$AAr?$AA?3?$AA?5?$AAi?$AAn?$AAi?$AAt?$AA?3?$AA?5?$AAF?$AAa?$AAi?$AAl?$AAe?$AAd?$AA?5?$AAt?$AAo?$AA?5?$AAo?$AAp?$AAe?$AAn@ 000116a8     cmem:cmem.obj
 0001:00000704       ??_C@_1M@IMNEMCPG@?$AAC?$AAM?$AAK?$AA1?$AA?3?$AA?$AA@ 00011704     cmem:cmem.obj
 0001:00000710       ??_C@_1IE@PDBOJMOO@?$AAC?$AAM?$AAE?$AAM?$AA?5?$AAD?$AAe?$AAb?$AAu?$AAg?$AA?3?$AA?5?$AAi?$AAn?$AAi?$AAt?$AA?3?$AA?5?$AAC?$AAM?$AAK?$AA1?$AA?3?$AA?5?$AAa?$AAl?$AAr?$AAe?$AAa?$AAd?$AAy?$AA?5@ 00011710     cmem:cmem.obj
 0001:00000798       ??_C@_1GI@CCDMEMBC@?$AAC?$AAM?$AAE?$AAM?$AA?5?$AAD?$AAe?$AAb?$AAu?$AAg?$AA?3?$AA?5?$AAi?$AAn?$AAi?$AAt?$AA?3?$AA?5?$AAe?$AAn?$AAt?$AAe?$AAr?$AAe?$AAd?$AA?5?$AA?9?$AA?5?$AAr?$AAe?$AAf?$AA_@ 00011798     cmem:cmem.obj
 0001:00000800       ??_C@_1KE@CJGOLPKN@?$AAC?$AAM?$AAE?$AAM?$AA?5?$AAD?$AAe?$AAb?$AAu?$AAg?$AA?3?$AA?5?$AAa?$AAl?$AAl?$AAo?$AAc?$AA?3?$AA?5?$AAe?$AAn?$AAt?$AAe?$AAr?$AAe?$AAd?$AA?5?$AAw?$AA?1?$AA?5?$AAs?$AAi@ 00011800     cmem:cmem.obj
 0001:000008a4       ??_C@_19PPGMMKDP@?$AAH?$AAE?$AAA?$AAP?$AA?$AA@ 000118a4     cmem:cmem.obj
 0001:000008b0       ??_C@_19HKBAJOLM@?$AAP?$AAO?$AAO?$AAL?$AA?$AA@ 000118b0     cmem:cmem.obj
 0001:000008bc       ??_C@_1BE@MMCMEDKB@?$AAN?$AAO?$AAN?$AAC?$AAA?$AAC?$AAH?$AAE?$AAD?$AA?$AA@ 000118bc     cmem:cmem.obj
 0001:000008d0       ??_C@_1O@HMEMJOMD@?$AAC?$AAA?$AAC?$AAH?$AAE?$AAD?$AA?$AA@ 000118d0     cmem:cmem.obj
 0001:000008e0       ??_C@_11LOCGONAA@?$AA?$AA@ 000118e0     cmem:cmem.obj
 0001:000008e4       ??_C@_1BG@OKFAKFBB@?$AA?5?$AA?$CI?$AAd?$AAe?$AAf?$AAa?$AAu?$AAl?$AAt?$AA?$CJ?$AA?$AA@ 000118e4     cmem:cmem.obj
 0001:00000900       ??_C@_1EG@GEKPGGFC@?$AAC?$AAM?$AAE?$AAM?$AA?5?$AAE?$AAr?$AAr?$AAo?$AAr?$AA?3?$AA?5?$AA?5?$AA?5?$AA?5?$AA?5?$AAf?$AAa?$AAi?$AAl?$AAu?$AAr?$AAe?$AA?5?$AAm?$AAe?$AAs?$AAs?$AAa?$AAg?$AAe?$AAs@ 00011900     cmem:cmem.obj
 0001:00000948       ??_C@_1IG@JBDDMLC@?$AAC?$AAM?$AAE?$AAM?$AA?5?$AAE?$AAr?$AAr?$AAo?$AAr?$AA?3?$AA?5?$AA?5?$AA?5?$AA?5?$AA?5?$AAI?$AAf?$AA?5?$AAC?$AAM?$AAE?$AAM?$AA_?$AAi?$AAn?$AAi?$AAt?$AA?$CI?$AA?$CJ?$AA?5?$AAw@ 00011948     cmem:cmem.obj
 0001:000009d0       ??_C@_1HO@NKGOPDHM@?$AAC?$AAM?$AAE?$AAM?$AA?5?$AAE?$AAr?$AAr?$AAo?$AAr?$AA?3?$AA?5?$AA?5?$AA?5?$AA?5?$AA?5?$AAi?$AAn?$AAi?$AAt?$AAi?$AAa?$AAl?$AAi?$AAz?$AAe?$AA?5?$AAC?$AAM?$AAE?$AAM?$AA?5@ 000119d0     cmem:cmem.obj
 0001:00000a50       ??_C@_1II@BDPOLLKM@?$AAC?$AAM?$AAE?$AAM?$AA?5?$AAE?$AAr?$AAr?$AAo?$AAr?$AA?3?$AA?5?$AAE?$AAi?$AAt?$AAh?$AAe?$AAr?$AA?5?$AAC?$AAM?$AAE?$AAM?$AA_?$AAi?$AAn?$AAi?$AAt?$AA?$CI?$AA?$CJ?$AA?5?$AAw@ 00011a50     cmem:cmem.obj
 0001:00000ad8       ??_C@_1IC@KCLBHEIA@?$AAC?$AAM?$AAE?$AAM?$AA?5?$AAD?$AAe?$AAb?$AAu?$AAg?$AA?3?$AA?5?$AAa?$AAl?$AAl?$AAo?$AAc?$AAP?$AAo?$AAo?$AAl?$AA?3?$AA?5?$AAm?$AAm?$AAa?$AAp?$AA?5?$AAs?$AAu?$AAc?$AAc@ 00011ad8     cmem:cmem.obj
 0001:00000b60       ??_C@_1HC@IJMDCIDN@?$AAC?$AAM?$AAE?$AAM?$AA?5?$AAE?$AAr?$AAr?$AAo?$AAr?$AA?3?$AA?5?$AAa?$AAl?$AAl?$AAo?$AAc?$AAP?$AAo?$AAo?$AAl?$AA?3?$AA?5?$AAi?$AAo?$AAc?$AAt?$AAl?$AA?5?$AA?$CF?$AAs?$AA?5@ 00011b60     cmem:cmem.obj
 0001:00000bd4       ??_C@_0BE@KLPMOAPL@CMEM_IOCALLOCCACHED?$AA@ 00011bd4     cmem:cmem.obj
 0001:00000be8       ??_C@_0O@MLAGLLMM@CMEM_IOCALLOC?$AA@ 00011be8     cmem:cmem.obj
 0001:00000bf8       ??_C@_1IC@GKACPFMN@?$AAC?$AAM?$AAE?$AAM?$AA?5?$AAD?$AAe?$AAb?$AAu?$AAg?$AA?3?$AA?5?$AAa?$AAl?$AAl?$AAo?$AAc?$AAH?$AAe?$AAa?$AAp?$AA?3?$AA?5?$AAm?$AAm?$AAa?$AAp?$AA?5?$AAs?$AAu?$AAc?$AAc@ 00011bf8     cmem:cmem.obj
 0001:00000c80       ??_C@_1FI@PDJNAMOK@?$AAC?$AAM?$AAE?$AAM?$AA?5?$AAE?$AAr?$AAr?$AAo?$AAr?$AA?3?$AA?5?$AAa?$AAl?$AAl?$AAo?$AAc?$AAH?$AAe?$AAa?$AAp?$AA?3?$AA?5?$AAi?$AAo?$AAc?$AAt?$AAl?$AA?5?$AA?$CF?$AAs?$AA?5@ 00011c80     cmem:cmem.obj
 0001:00000cd8       ??_C@_0BI@DKEAIDBJ@CMEM_IOCALLOCHEAPCACHED?$AA@ 00011cd8     cmem:cmem.obj
 0001:00000cf0       ??_C@_0BC@KANGPNNF@CMEM_IOCALLOCHEAP?$AA@ 00011cf0     cmem:cmem.obj
 0001:00000d08       ??_C@_1IE@CPIFFGMG@?$AAC?$AAM?$AAE?$AAM?$AA?5?$AAD?$AAe?$AAb?$AAu?$AAg?$AA?3?$AA?5?$AAa?$AAl?$AAl?$AAo?$AAc?$AAP?$AAo?$AAo?$AAl?$AA?3?$AA?5?$AAe?$AAn?$AAt?$AAe?$AAr?$AAe?$AAd?$AA?5?$AAw@ 00011d08     cmem:cmem.obj
 0001:00000d90       ??_C@_1GC@JLKOFGPM@?$AAC?$AAM?$AAE?$AAM?$AA?5?$AAD?$AAe?$AAb?$AAu?$AAg?$AA?3?$AA?5?$AAf?$AAr?$AAe?$AAe?$AA?3?$AA?5?$AAm?$AAu?$AAn?$AAm?$AAa?$AAp?$AA?5?$AAs?$AAu?$AAc?$AAc?$AAe?$AAe?$AAd@ 00011d90     cmem:cmem.obj
 0001:00000df8       ??_C@_1HI@OHHOKKM@?$AAC?$AAM?$AAE?$AAM?$AA?5?$AAD?$AAe?$AAb?$AAu?$AAg?$AA?3?$AA?5?$AAf?$AAr?$AAe?$AAe?$AA?3?$AA?5?$AAi?$AAo?$AAc?$AAt?$AAl?$AA?5?$AAC?$AAM?$AAE?$AAM?$AA_?$AAI?$AAO?$AAC@ 00011df8     cmem:cmem.obj
 0001:00000e70       ??_C@_04DGHHAJMG@HEAP?$AA@ 00011e70     cmem:cmem.obj
 0001:00000e78       ??_C@_04OFLDEFLG@POOL?$AA@ 00011e78     cmem:cmem.obj
 0001:00000e80       ??_C@_1EM@BJEPMKEE@?$AAC?$AAM?$AAE?$AAM?$AA?5?$AAE?$AAr?$AAr?$AAo?$AAr?$AA?3?$AA?5?$AAf?$AAr?$AAe?$AAe?$AA?3?$AA?5?$AAf?$AAa?$AAi?$AAl?$AAe?$AAd?$AA?5?$AAt?$AAo?$AA?5?$AAf?$AAr?$AAe?$AAe@ 00011e80     cmem:cmem.obj
 0001:00000ed0       ??_C@_1HC@PLPAKFLC@?$AAC?$AAM?$AAE?$AAM?$AA?5?$AAD?$AAe?$AAb?$AAu?$AAg?$AA?3?$AA?5?$AAf?$AAr?$AAe?$AAe?$AA?3?$AA?5?$AAe?$AAn?$AAt?$AAe?$AAr?$AAe?$AAd?$AA?5?$AAw?$AA?1?$AA?5?$AAp?$AAt?$AAr@ 00011ed0     cmem:cmem.obj
 0001:00000f48       ??_C@_1FE@LIJFHPGF@?$AAC?$AAM?$AAE?$AAM?$AA?5?$AAD?$AAe?$AAb?$AAu?$AAg?$AA?3?$AA?5?$AAg?$AAe?$AAt?$AAP?$AAo?$AAo?$AAl?$AA?3?$AA?5?$AAe?$AAn?$AAt?$AAe?$AAr?$AAe?$AAd?$AA?5?$AAw?$AA?1?$AA?5@ 00011f48     cmem:cmem.obj
 0001:00000fa0       ??_C@_1JK@LLCINNI@?$AAC?$AAM?$AAE?$AAM?$AA?5?$AAD?$AAe?$AAb?$AAu?$AAg?$AA?3?$AA?5?$AAg?$AAe?$AAt?$AAP?$AAo?$AAo?$AAl?$AA?3?$AA?5?$AAe?$AAx?$AAi?$AAt?$AAi?$AAn?$AAg?$AA?0?$AA?5?$AAi?$AAo@ 00011fa0     cmem:cmem.obj
 0001:00001040       ??_C@_1HK@PAIBBAAG@?$AAC?$AAM?$AAE?$AAM?$AA?5?$AAE?$AAr?$AAr?$AAo?$AAr?$AA?3?$AA?5?$AAg?$AAe?$AAt?$AAP?$AAo?$AAo?$AAl?$AA?3?$AA?5?$AAF?$AAa?$AAi?$AAl?$AAe?$AAd?$AA?5?$AAt?$AAo?$AA?5?$AAg@ 00012040     cmem:cmem.obj
 0001:000010c0       ??_C@_1FG@CHPLFONO@?$AAC?$AAM?$AAE?$AAM?$AA?5?$AAD?$AAe?$AAb?$AAu?$AAg?$AA?3?$AA?5?$AAg?$AAe?$AAt?$AAP?$AAo?$AAo?$AAl?$AA2?$AA?3?$AA?5?$AAe?$AAn?$AAt?$AAe?$AAr?$AAe?$AAd?$AA?5?$AAw?$AA?1@ 000120c0     cmem:cmem.obj
 0001:00001118       ??_C@_1JO@NLJALCKO@?$AAC?$AAM?$AAE?$AAM?$AA?5?$AAD?$AAe?$AAb?$AAu?$AAg?$AA?3?$AA?5?$AAg?$AAe?$AAt?$AAP?$AAh?$AAy?$AAs?$AA?3?$AA?5?$AAe?$AAx?$AAi?$AAt?$AAi?$AAn?$AAg?$AA?0?$AA?5?$AAi?$AAo@ 00012118     cmem:cmem.obj
 0001:000011b8       ??_C@_1HI@OPGJOMO@?$AAC?$AAM?$AAE?$AAM?$AA?5?$AAE?$AAr?$AAr?$AAo?$AAr?$AA?3?$AA?5?$AAg?$AAe?$AAt?$AAP?$AAh?$AAy?$AAs?$AA?3?$AA?5?$AAF?$AAa?$AAi?$AAl?$AAe?$AAd?$AA?5?$AAt?$AAo?$AA?5?$AAg@ 000121b8     cmem:cmem.obj
 0001:00001230       ??_C@_1FC@CJFGBFOI@?$AAC?$AAM?$AAE?$AAM?$AA?5?$AAD?$AAe?$AAb?$AAu?$AAg?$AA?3?$AA?5?$AAg?$AAe?$AAt?$AAP?$AAh?$AAy?$AAs?$AA?3?$AA?5?$AAe?$AAn?$AAt?$AAe?$AAr?$AAe?$AAd?$AA?5?$AAw?$AA?1?$AA?5@ 00012230     cmem:cmem.obj
 0001:00001288       ??_C@_1JI@PNLPBHDB@?$AAC?$AAM?$AAE?$AAM?$AA?5?$AAD?$AAe?$AAb?$AAu?$AAg?$AA?3?$AA?5?$AAc?$AAa?$AAc?$AAh?$AAe?$AAW?$AAb?$AA?3?$AA?5?$AAe?$AAx?$AAi?$AAt?$AAi?$AAn?$AAg?$AA?0?$AA?5?$AAi?$AAo@ 00012288     cmem:cmem.obj
 0001:00001320       ??_C@_1FM@CCMAPMKD@?$AAC?$AAM?$AAE?$AAM?$AA?5?$AAE?$AAr?$AAr?$AAo?$AAr?$AA?3?$AA?5?$AAc?$AAa?$AAc?$AAh?$AAe?$AAW?$AAb?$AA?3?$AA?5?$AAF?$AAa?$AAi?$AAl?$AAe?$AAd?$AA?5?$AAt?$AAo?$AA?5?$AAw@ 00012320     cmem:cmem.obj
 0001:00001380       ??_C@_1GG@FKCDJMGM@?$AAC?$AAM?$AAE?$AAM?$AA?5?$AAD?$AAe?$AAb?$AAu?$AAg?$AA?3?$AA?5?$AAc?$AAa?$AAc?$AAh?$AAe?$AAW?$AAb?$AA?3?$AA?5?$AAe?$AAn?$AAt?$AAe?$AAr?$AAe?$AAd?$AA?5?$AAw?$AA?1?$AA?5@ 00012380     cmem:cmem.obj
 0001:000013e8       ??_C@_1KE@GLMPMHFH@?$AAC?$AAM?$AAE?$AAM?$AA?5?$AAD?$AAe?$AAb?$AAu?$AAg?$AA?3?$AA?5?$AAc?$AAa?$AAc?$AAh?$AAe?$AAW?$AAb?$AAI?$AAn?$AAv?$AA?3?$AA?5?$AAe?$AAx?$AAi?$AAt?$AAi?$AAn?$AAg?$AA?0@ 000123e8     cmem:cmem.obj
 0001:00001490       ??_C@_1HM@PFJPPOEN@?$AAC?$AAM?$AAE?$AAM?$AA?5?$AAE?$AAr?$AAr?$AAo?$AAr?$AA?3?$AA?5?$AAc?$AAa?$AAc?$AAh?$AAe?$AAW?$AAb?$AAI?$AAn?$AAv?$AA?3?$AA?5?$AAF?$AAa?$AAi?$AAl?$AAe?$AAd?$AA?5?$AAt@ 00012490     cmem:cmem.obj
 0001:00001510       ??_C@_1GM@MECOEFMO@?$AAC?$AAM?$AAE?$AAM?$AA?5?$AAD?$AAe?$AAb?$AAu?$AAg?$AA?3?$AA?5?$AAc?$AAa?$AAc?$AAh?$AAe?$AAW?$AAb?$AAI?$AAn?$AAv?$AA?3?$AA?5?$AAe?$AAn?$AAt?$AAe?$AAr?$AAe?$AAd?$AA?5@ 00012510     cmem:cmem.obj
 0001:00001580       ??_C@_1JM@GDFLOFEM@?$AAC?$AAM?$AAE?$AAM?$AA?5?$AAD?$AAe?$AAb?$AAu?$AAg?$AA?3?$AA?5?$AAc?$AAa?$AAc?$AAh?$AAe?$AAI?$AAn?$AAv?$AA?3?$AA?5?$AAe?$AAx?$AAi?$AAt?$AAi?$AAn?$AAg?$AA?0?$AA?5?$AAi@ 00012580     cmem:cmem.obj
 0001:00001620       ??_C@_1GA@FIBMONO@?$AAC?$AAM?$AAE?$AAM?$AA?5?$AAE?$AAr?$AAr?$AAo?$AAr?$AA?3?$AA?5?$AAc?$AAa?$AAc?$AAh?$AAe?$AAI?$AAn?$AAv?$AA?3?$AA?5?$AAF?$AAa?$AAi?$AAl?$AAe?$AAd?$AA?5?$AAt?$AAo?$AA?5@ 00012620     cmem:cmem.obj
 0001:00001680       ??_C@_1GI@GBODELAF@?$AAC?$AAM?$AAE?$AAM?$AA?5?$AAD?$AAe?$AAb?$AAu?$AAg?$AA?3?$AA?5?$AAc?$AAa?$AAc?$AAh?$AAe?$AAI?$AAn?$AAv?$AA?3?$AA?5?$AAe?$AAn?$AAt?$AAe?$AAr?$AAe?$AAd?$AA?5?$AAw?$AA?1@ 00012680     cmem:cmem.obj
 0001:000016e8       ??_C@_1JA@CNIJNJKB@?$AAC?$AAM?$AAE?$AAM?$AA?5?$AAD?$AAe?$AAb?$AAu?$AAg?$AA?3?$AA?5?$AAg?$AAe?$AAt?$AAV?$AAe?$AAr?$AAs?$AAi?$AAo?$AAn?$AA?3?$AA?5?$AAe?$AAx?$AAi?$AAt?$AAi?$AAn?$AAg?$AA?0@ 000126e8     cmem:cmem.obj
 0001:00001778       ??_C@_1IA@CHBIPLAM@?$AAC?$AAM?$AAE?$AAM?$AA?5?$AAE?$AAr?$AAr?$AAo?$AAr?$AA?3?$AA?5?$AAg?$AAe?$AAt?$AAV?$AAe?$AAr?$AAs?$AAi?$AAo?$AAn?$AA?3?$AA?5?$AAF?$AAa?$AAi?$AAl?$AAe?$AAd?$AA?5?$AAt@ 00012778     cmem:cmem.obj
 0001:000017f8       ??_C@_1EC@GDDMOEBJ@?$AAC?$AAM?$AAE?$AAM?$AA?5?$AAD?$AAe?$AAb?$AAu?$AAg?$AA?3?$AA?5?$AAg?$AAe?$AAt?$AAV?$AAe?$AAr?$AAs?$AAi?$AAo?$AAn?$AA?3?$AA?5?$AAe?$AAn?$AAt?$AAe?$AAr?$AAe?$AAd?$AA?6@ 000127f8     cmem:cmem.obj
 0001:00001840       ??_C@_1HA@CAPACFLF@?$AAC?$AAM?$AAE?$AAM?$AA?5?$AAD?$AAe?$AAb?$AAu?$AAg?$AA?3?$AA?5?$AA?5?$AA?5?$AAr?$AAe?$AAt?$AAu?$AAr?$AAn?$AAi?$AAn?$AAg?$AA?5?$AA?$CK?$AAp?$AAp?$AAh?$AAy?$AAs?$AA_?$AAb@ 00012840     cmem:cmem.obj
 0001:000018b0       ??_C@_1II@OBAGDEJF@?$AAC?$AAM?$AAE?$AAM?$AA?5?$AAD?$AAe?$AAb?$AAu?$AAg?$AA?3?$AA?5?$AAg?$AAe?$AAt?$AAV?$AAe?$AAr?$AAs?$AAi?$AAo?$AAn?$AA?3?$AA?5?$AAe?$AAx?$AAi?$AAt?$AAi?$AAn?$AAg?$AA?0@ 000128b0     cmem:cmem.obj
 0001:00001938       ??_C@_1EI@EKMONBBA@?$AAC?$AAM?$AAE?$AAM?$AA?5?$AAE?$AAr?$AAr?$AAo?$AAr?$AA?3?$AA?5?$AA?5?$AA?5?$AAb?$AAl?$AAo?$AAc?$AAk?$AA?5?$AA?$CF?$AAd?$AA?5?$AAf?$AAr?$AAo?$AAm?$AA?5?$AAd?$AAr?$AAi?$AAv@ 00012938     cmem:cmem.obj
 0001:00001980       ??_C@_1IE@PAKGNLMK@?$AAC?$AAM?$AAE?$AAM?$AA?5?$AAE?$AAr?$AAr?$AAo?$AAr?$AA?3?$AA?5?$AAg?$AAe?$AAt?$AAB?$AAl?$AAo?$AAc?$AAk?$AA?3?$AA?5?$AAF?$AAa?$AAi?$AAl?$AAe?$AAd?$AA?5?$AAt?$AAo?$AA?5@ 00012980     cmem:cmem.obj
 0001:00001a04       ??_C@_1DO@HNDIFKFF@?$AAC?$AAM?$AAE?$AAM?$AA?5?$AAD?$AAe?$AAb?$AAu?$AAg?$AA?3?$AA?5?$AAg?$AAe?$AAt?$AAB?$AAl?$AAo?$AAc?$AAk?$AA?3?$AA?5?$AAe?$AAn?$AAt?$AAe?$AAr?$AAe?$AAd?$AA?6?$AA?$AA@ 00012a04     cmem:cmem.obj
 0001:00001a48       ??_C@_1JA@FENNEN@?$AAC?$AAM?$AAE?$AAM?$AA?5?$AAD?$AAe?$AAb?$AAu?$AAg?$AA?3?$AA?5?$AAC?$AAM?$AAE?$AAM?$AA_?$AAg?$AAe?$AAt?$AAN?$AAu?$AAm?$AAB?$AAl?$AAo?$AAc?$AAk?$AAs?$AA?3?$AA?5?$AAi@ 00012a48     cmem:cmem.obj
 0001:00001ad8       ??_C@_1IO@HPDOGHBG@?$AAC?$AAM?$AAE?$AAM?$AA?5?$AAE?$AAr?$AAr?$AAo?$AAr?$AA?3?$AA?5?$AAC?$AAM?$AAE?$AAM?$AA_?$AAg?$AAe?$AAt?$AAN?$AAu?$AAm?$AAB?$AAl?$AAo?$AAc?$AAk?$AAs?$AA?3?$AA?5?$AAF@ 00012ad8     cmem:cmem.obj
 0001:00001b68       ??_C@_1FA@PKLEKDPF@?$AAC?$AAM?$AAE?$AAM?$AA?5?$AAD?$AAe?$AAb?$AAu?$AAg?$AA?3?$AA?5?$AAC?$AAM?$AAE?$AAM?$AA_?$AAg?$AAe?$AAt?$AAN?$AAu?$AAm?$AAB?$AAl?$AAo?$AAc?$AAk?$AAs?$AA?3?$AA?5?$AAe@ 00012b68     cmem:cmem.obj
 0001:00001bb8       ??_C@_1FC@MIANCHOM@?$AAC?$AAM?$AAE?$AAM?$AA?5?$AAD?$AAe?$AAb?$AAu?$AAg?$AA?3?$AA?5?$AAe?$AAx?$AAi?$AAt?$AA?3?$AA?5?$AAe?$AAx?$AAi?$AAt?$AAi?$AAn?$AAg?$AA?0?$AA?5?$AAr?$AAe?$AAt?$AAu?$AAr@ 00012bb8     cmem:cmem.obj
 0001:00001c10       ??_C@_1GI@BILHCHHC@?$AAC?$AAM?$AAE?$AAM?$AA?5?$AAD?$AAe?$AAb?$AAu?$AAg?$AA?3?$AA?5?$AAe?$AAx?$AAi?$AAt?$AA?3?$AA?5?$AAr?$AAe?$AAf?$AA_?$AAc?$AAo?$AAu?$AAn?$AAt?$AA?5?$AA?$DN?$AA?$DN?$AA?5?$AA0@ 00012c10     cmem:cmem.obj
 0001:00001c78       ??_C@_09KNCHHPEA@succeeded?$AA@ 00012c78     cmem:cmem.obj
 0001:00001c84       ??_C@_06ODACHPEO@failed?$AA@ 00012c84     cmem:cmem.obj
 0001:00001c90       ??_C@_1FE@MKFGBBDL@?$AAC?$AAM?$AAE?$AAM?$AA?5?$AAD?$AAe?$AAb?$AAu?$AAg?$AA?3?$AA?5?$AAe?$AAx?$AAi?$AAt?$AA?3?$AA?5?$AAd?$AAe?$AAc?$AAr?$AAe?$AAm?$AAe?$AAn?$AAt?$AAi?$AAn?$AAg?$AA?5?$AAr@ 00012c90     cmem:cmem.obj
 0001:00001ce8       ??_C@_1GI@JAPMEOK@?$AAC?$AAM?$AAE?$AAM?$AA?5?$AAD?$AAe?$AAb?$AAu?$AAg?$AA?3?$AA?5?$AAe?$AAx?$AAi?$AAt?$AA?3?$AA?5?$AAe?$AAn?$AAt?$AAe?$AAr?$AAe?$AAd?$AA?5?$AA?9?$AA?5?$AAr?$AAe?$AAf?$AA_@ 00012ce8     cmem:cmem.obj
 0001:00001d50       ??_C@_1KA@GENNPKBP@?$AAC?$AAM?$AAE?$AAM?$AA?5?$AAD?$AAe?$AAb?$AAu?$AAg?$AA?3?$AA?5?$AAC?$AAM?$AAE?$AAM?$AA_?$AAm?$AAa?$AAp?$AAA?$AAd?$AAd?$AAr?$AAe?$AAs?$AAs?$AA?3?$AA?5?$AAi?$AAo?$AAc@ 00012d50     cmem:cmem.obj
 0001:00001df0       ??_C@_1IC@LHPHMHFL@?$AAC?$AAM?$AAE?$AAM?$AA?5?$AAE?$AAr?$AAr?$AAo?$AAr?$AA?3?$AA?5?$AAC?$AAM?$AAE?$AAM?$AA_?$AAm?$AAa?$AAp?$AAA?$AAd?$AAd?$AAr?$AAe?$AAs?$AAs?$AA?3?$AA?5?$AAF?$AAa?$AAi@ 00012df0     cmem:cmem.obj
 0001:00001e78       ??_C@_1IA@HIPOJOLM@?$AAC?$AAM?$AAE?$AAM?$AA?5?$AAE?$AAr?$AAr?$AAo?$AAr?$AA?3?$AA?5?$AAC?$AAM?$AAE?$AAM?$AA_?$AAm?$AAa?$AAp?$AAA?$AAd?$AAd?$AAr?$AAe?$AAs?$AAs?$AA?3?$AA?5?$AAI?$AAn?$AAp@ 00012e78     cmem:cmem.obj
 0001:00001ef8       ??_C@_1IC@JCADCFLC@?$AAC?$AAM?$AAE?$AAM?$AA?5?$AAE?$AAr?$AAr?$AAo?$AAr?$AA?3?$AA?5?$AAC?$AAM?$AAE?$AAM?$AA_?$AAm?$AAa?$AAp?$AAA?$AAd?$AAd?$AAr?$AAe?$AAs?$AAs?$AA?3?$AA?5?$AAI?$AAn?$AAp@ 00012ef8     cmem:cmem.obj
 0001:00001f80       ??_C@_1IM@JJKMGICE@?$AAC?$AAM?$AAE?$AAM?$AA?5?$AAD?$AAe?$AAb?$AAu?$AAg?$AA?3?$AA?5?$AAC?$AAM?$AAE?$AAM?$AA_?$AAm?$AAa?$AAp?$AAA?$AAd?$AAd?$AAr?$AAe?$AAs?$AAs?$AA?3?$AA?5?$AAe?$AAn?$AAt@ 00012f80     cmem:cmem.obj
 0001:00002010       ??_C@_1II@HDMFEDCC@?$AAC?$AAM?$AAE?$AAM?$AA?5?$AAE?$AAr?$AAr?$AAo?$AAr?$AA?3?$AA?5?$AAC?$AAM?$AAE?$AAM?$AA_?$AAu?$AAn?$AAm?$AAa?$AAp?$AAA?$AAd?$AAd?$AAr?$AAe?$AAs?$AAs?$AA?3?$AA?5?$AAF@ 00013010     cmem:cmem.obj
 0001:00002098       ??_C@_1HK@PJAFBNNF@?$AAC?$AAM?$AAE?$AAM?$AA?5?$AAD?$AAe?$AAb?$AAu?$AAg?$AA?3?$AA?5?$AAC?$AAM?$AAE?$AAM?$AA_?$AAu?$AAn?$AAm?$AAa?$AAp?$AAA?$AAd?$AAd?$AAr?$AAe?$AAs?$AAs?$AA?3?$AA?5?$AAe@ 00013098     cmem:cmem.obj
 0001:0000213c       main                       0001313c f   cmem_test.obj
 0001:000022c8       NKDbgPrintfW               000132c8 f   coredll:COREDLL.dll
 0001:000022d8       CMEM_init                  000132d8 f   cmem:cmem.obj
 0001:000024e0       alloc                      000134e0 f   cmem:cmem.obj
 0001:00002998       CMEM_alloc                 00013998 f   cmem:cmem.obj
 0001:000029d4       CMEM_alloc2                000139d4 f   cmem:cmem.obj
 0001:00002a10       CMEM_allocPool             00013a10 f   cmem:cmem.obj
 0001:00002b34       CMEM_allocPool2            00013b34 f   cmem:cmem.obj
 0001:00002b70       CMEM_free                  00013b70 f   cmem:cmem.obj
 0001:00002d14       CMEM_getPool               00013d14 f   cmem:cmem.obj
 0001:00002e2c       CMEM_getPool2              00013e2c f   cmem:cmem.obj
 0001:00002e74       CMEM_getPhys               00013e74 f   cmem:cmem.obj
 0001:00002f4c       CMEM_cacheWb               00013f4c f   cmem:cmem.obj
 0001:00003030       CMEM_cacheWbInv            00014030 f   cmem:cmem.obj
 0001:00003114       CMEM_cacheInv              00014114 f   cmem:cmem.obj
 0001:000031f8       CMEM_getVersion            000141f8 f   cmem:cmem.obj
 0001:000032b8       CMEM_getBlock              000142b8 f   cmem:cmem.obj
 0001:00003404       CMEM_getBlockAttrs         00014404 f   cmem:cmem.obj
 0001:00003444       CMEM_getNumBlocks          00014444 f   cmem:cmem.obj
 0001:00003520       CMEM_exit                  00014520 f   cmem:cmem.obj
 0001:00003608       CMEM_mapAddress            00014608 f   cmem:cmem.obj
 0001:00003778       CMEM_unmapAddress          00014778 f   cmem:cmem.obj
 0001:0000383c       GetCurrentProcessId        0001483c f i cmem:cmem.obj
 0001:00003868       GetSystemInfo              00014868 f   coredll:COREDLL.dll
 0001:00003878       GetLastError               00014878 f   coredll:COREDLL.dll
 0001:00003888       CreateFileW                00014888 f   coredll:COREDLL.dll
 0001:00003898       DeviceIoControl            00014898 f   coredll:COREDLL.dll
 0001:000038a8       __GetUserKData             000148a8 f   coredll:COREDLL.dll
 0001:000038b8       CloseHandle                000148b8 f   coredll:COREDLL.dll
 0001:000038c8       __IMPORT_DESCRIPTOR_COREDLL 000148c8     coredll:COREDLL.dll
 0001:000038dc       __NULL_IMPORT_DESCRIPTOR   000148dc     coredll:COREDLL.dll
 0002:00000000       __imp_GetSystemInfo        00015000     coredll:COREDLL.dll
 0002:00000004       __imp_GetLastError         00015004     coredll:COREDLL.dll
 0002:00000008       __imp_CreateFileW          00015008     coredll:COREDLL.dll
 0002:0000000c       __imp_DeviceIoControl      0001500c     coredll:COREDLL.dll
 0002:00000010       __imp___GetUserKData       00015010     coredll:COREDLL.dll
 0002:00000014       __imp_CloseHandle          00015014     coredll:COREDLL.dll
 0002:00000018       __imp_NKDbgPrintfW         00015018     coredll:COREDLL.dll
 0002:0000001c       \177COREDLL_NULL_THUNK_DATA 0001501c     coredll:COREDLL.dll
 0002:00000020       CMEM_DEFAULTPARAMS         00015020     cmem:cmem.obj

 entry point at        0001:0000213c

 Static symbols

 0001:00002640       validate_init              00013640 f   cmem:cmem.obj
 0001:000026b0       getAndAllocFromPool        000136b0 f   cmem:cmem.obj
 0001:0000274c       allocFromPool              0001374c f   cmem:cmem.obj
 0001:00002858       allocFromHeap              00013858 f   cmem:cmem.obj
 0001:00002a4c       allocPool                  00013a4c f   cmem:cmem.obj
 0001:00002d5c       getPoolFromBlock           00013d5c f   cmem:cmem.obj
 0001:000032f4       getBlock                   000142f4 f   cmem:cmem.obj
