; Listing generated by Microsoft (R) Optimizing Compiler Version 14.01.60511.01 

	TTL	I:\library\trees\winceutils\winceutils-b01x\src\ti\sdo\winceutils\cmem\test\cmem_test.c
	CODE32

  00000			 AREA	 |.drectve|, DRECTVE
	DCB	"-defaultlib:LIBCMT "
	DCB	"-defaultlib:OLDNAMES "

	EXPORT	|??_C@_1DM@PJFIEGKK@?$AAC?$AAM?$AAE?$AAM?$AA?5?$AAT?$AAE?$AAS?$AAT?$AA?5?$AAD?$AAe?$AAb?$AAu?$AAg?$AA?3?$AA?5?$AAp?$AAt?$AAr?$AAP?$AAA?$AA?3?$AA?5?$AA0?$AAx?$AA?$CF?$AAx?$AA?6?$AA?$AA@| [ DATA ] ; `string'
	EXPORT	|??_C@_1FI@DBMNJMNJ@?$AAC?$AAM?$AAE?$AAM?$AA?5?$AAT?$AAE?$AAS?$AAT?$AA?5?$AAD?$AAe?$AAb?$AAu?$AAg?$AA?3?$AA?5?$AAH?$AAe?$AAa?$AAp?$AA?5?$AAb?$AAu?$AAf?$AAf?$AAe?$AAr?$AA?5?$AAa?$AAd?$AAd@| [ DATA ] ; `string'
	EXPORT	|??_C@_1FI@PEIJMOMA@?$AAC?$AAM?$AAE?$AAM?$AA?5?$AAT?$AAE?$AAS?$AAT?$AA?5?$AAD?$AAe?$AAb?$AAu?$AAg?$AA?3?$AA?5?$AAP?$AAo?$AAo?$AAl?$AA?5?$AAb?$AAu?$AAf?$AAf?$AAe?$AAr?$AA?5?$AAa?$AAd?$AAd@| [ DATA ] ; `string'
	EXPORT	|??_C@_1FC@KGFIBCCA@?$AAC?$AAM?$AAE?$AAM?$AA?5?$AAT?$AAE?$AAS?$AAT?$AA?5?$AAD?$AAe?$AAb?$AAu?$AAg?$AA?3?$AA?5?$AAB?$AAl?$AAo?$AAc?$AAk?$AA?5?$AA?$CF?$AA?$CD?$AAd?$AA?5?$AAl?$AAe?$AAn?$AAg?$AAt@| [ DATA ] ; `string'
	EXPORT	|??_C@_1FE@DDOEIEME@?$AAC?$AAM?$AAE?$AAM?$AA?5?$AAT?$AAE?$AAS?$AAT?$AA?5?$AAD?$AAe?$AAb?$AAu?$AAg?$AA?3?$AA?5?$AAB?$AAl?$AAo?$AAc?$AAk?$AA?5?$AA?$CF?$AA?$CD?$AAd?$AA?5?$AAa?$AAd?$AAd?$AAr?$AAe@| [ DATA ] ; `string'
	EXPORT	|??_C@_1HG@IOKNHDEI@?$AAC?$AAM?$AAE?$AAM?$AA?5?$AAT?$AAE?$AAS?$AAT?$AA?5?$AAD?$AAe?$AAb?$AAu?$AAg?$AA?3?$AA?5?$AAC?$AAM?$AAE?$AAM?$AA_?$AAg?$AAe?$AAt?$AAB?$AAl?$AAo?$AAc?$AAk?$AAA?$AAt@| [ DATA ] ; `string'
	EXPORT	|??_C@_1FM@PDONIDOI@?$AAC?$AAM?$AAE?$AAM?$AA?5?$AAT?$AAE?$AAS?$AAT?$AA?5?$AAD?$AAe?$AAb?$AAu?$AAg?$AA?3?$AA?5?$AAN?$AAu?$AAm?$AAb?$AAe?$AAr?$AA?5?$AAo?$AAf?$AA?5?$AAC?$AAM?$AAE?$AAM?$AA?5@| [ DATA ] ; `string'
	EXPORT	|??_C@_1FI@PMBMPJAC@?$AAC?$AAM?$AAE?$AAM?$AA?5?$AAT?$AAE?$AAS?$AAT?$AA?5?$AAD?$AAe?$AAb?$AAu?$AAg?$AA?3?$AA?5?$AAC?$AAM?$AAE?$AAM?$AA_?$AAg?$AAe?$AAt?$AAN?$AAu?$AAm?$AAB?$AAl?$AAo?$AAc@| [ DATA ] ; `string'
	EXPORT	|main|
	IMPORT	|CMEM_exit|
	IMPORT	|CMEM_getPhys|
	IMPORT	|CMEM_alloc|
	IMPORT	|CMEM_allocPool|
	IMPORT	|CMEM_getBlockAttrs|
	IMPORT	|NKDbgPrintfW|
	IMPORT	|CMEM_getNumBlocks|
	IMPORT	|CMEM_init|

  00000			 AREA	 |.pdata|, PDATA
|$T36623| DCD	|$LN12@main|
	DCD	0x40006302
; File i:\library\trees\winceutils\winceutils-b01x\src\ti\sdo\winceutils\cmem\test\cmem_test.c

  00000			 AREA	 |.rdata|, DATA, READONLY
|??_C@_1DM@PJFIEGKK@?$AAC?$AAM?$AAE?$AAM?$AA?5?$AAT?$AAE?$AAS?$AAT?$AA?5?$AAD?$AAe?$AAb?$AAu?$AAg?$AA?3?$AA?5?$AAp?$AAt?$AAr?$AAP?$AAA?$AA?3?$AA?5?$AA0?$AAx?$AA?$CF?$AAx?$AA?6?$AA?$AA@| DCB "C"
	DCB	0x0, "M", 0x0, "E", 0x0, "M", 0x0, " ", 0x0, "T", 0x0, "E"
	DCB	0x0, "S", 0x0, "T", 0x0, " ", 0x0, "D", 0x0, "e", 0x0, "b"
	DCB	0x0, "u", 0x0, "g", 0x0, ":", 0x0, " ", 0x0, "p", 0x0, "t"
	DCB	0x0, "r", 0x0, "P", 0x0, "A", 0x0, ":", 0x0, " ", 0x0, "0"
	DCB	0x0, "x", 0x0, "%", 0x0, "x", 0x0, 0xa, 0x0, 0x0, 0x0 ; `string'

  00000			 AREA	 |.rdata|, DATA, READONLY
|??_C@_1FI@DBMNJMNJ@?$AAC?$AAM?$AAE?$AAM?$AA?5?$AAT?$AAE?$AAS?$AAT?$AA?5?$AAD?$AAe?$AAb?$AAu?$AAg?$AA?3?$AA?5?$AAH?$AAe?$AAa?$AAp?$AA?5?$AAb?$AAu?$AAf?$AAf?$AAe?$AAr?$AA?5?$AAa?$AAd?$AAd@| DCB "C"
	DCB	0x0, "M", 0x0, "E", 0x0, "M", 0x0, " ", 0x0, "T", 0x0, "E"
	DCB	0x0, "S", 0x0, "T", 0x0, " ", 0x0, "D", 0x0, "e", 0x0, "b"
	DCB	0x0, "u", 0x0, "g", 0x0, ":", 0x0, " ", 0x0, "H", 0x0, "e"
	DCB	0x0, "a", 0x0, "p", 0x0, " ", 0x0, "b", 0x0, "u", 0x0, "f"
	DCB	0x0, "f", 0x0, "e", 0x0, "r", 0x0, " ", 0x0, "a", 0x0, "d"
	DCB	0x0, "d", 0x0, "r", 0x0, "e", 0x0, "s", 0x0, "s", 0x0, ":"
	DCB	0x0, " ", 0x0, "%", 0x0, "#", 0x0, "x", 0x0, ".", 0x0, 0xa
	DCB	0x0, 0x0, 0x0				; `string'

  00000			 AREA	 |.rdata|, DATA, READONLY
|??_C@_1FI@PEIJMOMA@?$AAC?$AAM?$AAE?$AAM?$AA?5?$AAT?$AAE?$AAS?$AAT?$AA?5?$AAD?$AAe?$AAb?$AAu?$AAg?$AA?3?$AA?5?$AAP?$AAo?$AAo?$AAl?$AA?5?$AAb?$AAu?$AAf?$AAf?$AAe?$AAr?$AA?5?$AAa?$AAd?$AAd@| DCB "C"
	DCB	0x0, "M", 0x0, "E", 0x0, "M", 0x0, " ", 0x0, "T", 0x0, "E"
	DCB	0x0, "S", 0x0, "T", 0x0, " ", 0x0, "D", 0x0, "e", 0x0, "b"
	DCB	0x0, "u", 0x0, "g", 0x0, ":", 0x0, " ", 0x0, "P", 0x0, "o"
	DCB	0x0, "o", 0x0, "l", 0x0, " ", 0x0, "b", 0x0, "u", 0x0, "f"
	DCB	0x0, "f", 0x0, "e", 0x0, "r", 0x0, " ", 0x0, "a", 0x0, "d"
	DCB	0x0, "d", 0x0, "r", 0x0, "e", 0x0, "s", 0x0, "s", 0x0, ":"
	DCB	0x0, " ", 0x0, "%", 0x0, "#", 0x0, "x", 0x0, ".", 0x0, 0xa
	DCB	0x0, 0x0, 0x0				; `string'

  00000			 AREA	 |.rdata|, DATA, READONLY
|??_C@_1FC@KGFIBCCA@?$AAC?$AAM?$AAE?$AAM?$AA?5?$AAT?$AAE?$AAS?$AAT?$AA?5?$AAD?$AAe?$AAb?$AAu?$AAg?$AA?3?$AA?5?$AAB?$AAl?$AAo?$AAc?$AAk?$AA?5?$AA?$CF?$AA?$CD?$AAd?$AA?5?$AAl?$AAe?$AAn?$AAg?$AAt@| DCB "C"
	DCB	0x0, "M", 0x0, "E", 0x0, "M", 0x0, " ", 0x0, "T", 0x0, "E"
	DCB	0x0, "S", 0x0, "T", 0x0, " ", 0x0, "D", 0x0, "e", 0x0, "b"
	DCB	0x0, "u", 0x0, "g", 0x0, ":", 0x0, " ", 0x0, "B", 0x0, "l"
	DCB	0x0, "o", 0x0, "c", 0x0, "k", 0x0, " ", 0x0, "%", 0x0, "#"
	DCB	0x0, "d", 0x0, " ", 0x0, "l", 0x0, "e", 0x0, "n", 0x0, "g"
	DCB	0x0, "t", 0x0, "h", 0x0, ":", 0x0, " ", 0x0, "%", 0x0, "#"
	DCB	0x0, "x", 0x0, ".", 0x0, 0xa, 0x0, 0x0, 0x0 ; `string'

  00000			 AREA	 |.rdata|, DATA, READONLY
|??_C@_1FE@DDOEIEME@?$AAC?$AAM?$AAE?$AAM?$AA?5?$AAT?$AAE?$AAS?$AAT?$AA?5?$AAD?$AAe?$AAb?$AAu?$AAg?$AA?3?$AA?5?$AAB?$AAl?$AAo?$AAc?$AAk?$AA?5?$AA?$CF?$AA?$CD?$AAd?$AA?5?$AAa?$AAd?$AAd?$AAr?$AAe@| DCB "C"
	DCB	0x0, "M", 0x0, "E", 0x0, "M", 0x0, " ", 0x0, "T", 0x0, "E"
	DCB	0x0, "S", 0x0, "T", 0x0, " ", 0x0, "D", 0x0, "e", 0x0, "b"
	DCB	0x0, "u", 0x0, "g", 0x0, ":", 0x0, " ", 0x0, "B", 0x0, "l"
	DCB	0x0, "o", 0x0, "c", 0x0, "k", 0x0, " ", 0x0, "%", 0x0, "#"
	DCB	0x0, "d", 0x0, " ", 0x0, "a", 0x0, "d", 0x0, "d", 0x0, "r"
	DCB	0x0, "e", 0x0, "s", 0x0, "s", 0x0, ":", 0x0, " ", 0x0, "%"
	DCB	0x0, "#", 0x0, "x", 0x0, ".", 0x0, 0xa, 0x0, 0x0, 0x0 ; `string'

  00000			 AREA	 |.rdata|, DATA, READONLY
|??_C@_1HG@IOKNHDEI@?$AAC?$AAM?$AAE?$AAM?$AA?5?$AAT?$AAE?$AAS?$AAT?$AA?5?$AAD?$AAe?$AAb?$AAu?$AAg?$AA?3?$AA?5?$AAC?$AAM?$AAE?$AAM?$AA_?$AAg?$AAe?$AAt?$AAB?$AAl?$AAo?$AAc?$AAk?$AAA?$AAt@| DCB "C"
	DCB	0x0, "M", 0x0, "E", 0x0, "M", 0x0, " ", 0x0, "T", 0x0, "E"
	DCB	0x0, "S", 0x0, "T", 0x0, " ", 0x0, "D", 0x0, "e", 0x0, "b"
	DCB	0x0, "u", 0x0, "g", 0x0, ":", 0x0, " ", 0x0, "C", 0x0, "M"
	DCB	0x0, "E", 0x0, "M", 0x0, "_", 0x0, "g", 0x0, "e", 0x0, "t"
	DCB	0x0, "B", 0x0, "l", 0x0, "o", 0x0, "c", 0x0, "k", 0x0, "A"
	DCB	0x0, "t", 0x0, "t", 0x0, "r", 0x0, "s", 0x0, " ", 0x0, "f"
	DCB	0x0, "o", 0x0, "r", 0x0, " ", 0x0, "b", 0x0, "l", 0x0, "o"
	DCB	0x0, "c", 0x0, "k", 0x0, " ", 0x0, "%", 0x0, "#", 0x0, "x"
	DCB	0x0, " ", 0x0, "f", 0x0, "a", 0x0, "i", 0x0, "l", 0x0, "e"
	DCB	0x0, "d", 0x0, "!", 0x0, 0xa, 0x0, 0x0, 0x0 ; `string'

  00000			 AREA	 |.rdata|, DATA, READONLY
|??_C@_1FM@PDONIDOI@?$AAC?$AAM?$AAE?$AAM?$AA?5?$AAT?$AAE?$AAS?$AAT?$AA?5?$AAD?$AAe?$AAb?$AAu?$AAg?$AA?3?$AA?5?$AAN?$AAu?$AAm?$AAb?$AAe?$AAr?$AA?5?$AAo?$AAf?$AA?5?$AAC?$AAM?$AAE?$AAM?$AA?5@| DCB "C"
	DCB	0x0, "M", 0x0, "E", 0x0, "M", 0x0, " ", 0x0, "T", 0x0, "E"
	DCB	0x0, "S", 0x0, "T", 0x0, " ", 0x0, "D", 0x0, "e", 0x0, "b"
	DCB	0x0, "u", 0x0, "g", 0x0, ":", 0x0, " ", 0x0, "N", 0x0, "u"
	DCB	0x0, "m", 0x0, "b", 0x0, "e", 0x0, "r", 0x0, " ", 0x0, "o"
	DCB	0x0, "f", 0x0, " ", 0x0, "C", 0x0, "M", 0x0, "E", 0x0, "M"
	DCB	0x0, " ", 0x0, "b", 0x0, "l", 0x0, "o", 0x0, "c", 0x0, "k"
	DCB	0x0, "s", 0x0, ":", 0x0, " ", 0x0, "%", 0x0, "#", 0x0, "x"
	DCB	0x0, ".", 0x0, 0xa, 0x0, 0x0, 0x0	; `string'

  00000			 AREA	 |.rdata|, DATA, READONLY
|??_C@_1FI@PMBMPJAC@?$AAC?$AAM?$AAE?$AAM?$AA?5?$AAT?$AAE?$AAS?$AAT?$AA?5?$AAD?$AAe?$AAb?$AAu?$AAg?$AA?3?$AA?5?$AAC?$AAM?$AAE?$AAM?$AA_?$AAg?$AAe?$AAt?$AAN?$AAu?$AAm?$AAB?$AAl?$AAo?$AAc@| DCB "C"
	DCB	0x0, "M", 0x0, "E", 0x0, "M", 0x0, " ", 0x0, "T", 0x0, "E"
	DCB	0x0, "S", 0x0, "T", 0x0, " ", 0x0, "D", 0x0, "e", 0x0, "b"
	DCB	0x0, "u", 0x0, "g", 0x0, ":", 0x0, " ", 0x0, "C", 0x0, "M"
	DCB	0x0, "E", 0x0, "M", 0x0, "_", 0x0, "g", 0x0, "e", 0x0, "t"
	DCB	0x0, "N", 0x0, "u", 0x0, "m", 0x0, "B", 0x0, "l", 0x0, "o"
	DCB	0x0, "c", 0x0, "k", 0x0, "s", 0x0, " ", 0x0, "f", 0x0, "a"
	DCB	0x0, "i", 0x0, "l", 0x0, "e", 0x0, "d", 0x0, "!", 0x0, 0xa
	DCB	0x0, 0x0, 0x0				; `string'
; Function compile flags: /Odtp

  00000			 AREA	 |.text|, CODE, ARM

  00000		 |main|	 PROC

; 49   : {

  00000		 |$LN12@main|
  00000	e52de004	 str         lr, [sp, #-4]!
  00004	e24dd044	 sub         sp, sp, #0x44
  00008		 |$M36620|

; 50   :     CMEM_BlockAttrs   blockAttrs;
; 51   :     CMEM_AllocParams  allocParams;
; 52   :     PVOID             heapPtr;
; 53   :     PVOID             ptrPA;
; 54   :     PVOID             poolBuf;
; 55   :     int               numBlocks = 0;

  00008	e3a03000	 mov         r3, #0
  0000c	e58d3000	 str         r3, [sp]

; 56   :     int               i;
; 57   :     int               status;
; 58   : 
; 59   :     DebugBreak();

  00010	e6000010	 __debugbreak_ce

; 60   : 
; 61   :     /* Initialize CMEM driver */
; 62   :     CMEM_init();

  00014	eb000000	 bl          CMEM_init

; 63   : 
; 64   :     /* Get the number of CMEM blocks */
; 65   :     status = CMEM_getNumBlocks(&numBlocks);

  00018	e28d0000	 add         r0, sp, #0
  0001c	eb000000	 bl          CMEM_getNumBlocks
  00020	e58d0030	 str         r0, [sp, #0x30]
  00024	e59d3030	 ldr         r3, [sp, #0x30]
  00028	e58d3028	 str         r3, [sp, #0x28]

; 66   :     if (status != 0) {

  0002c	e59d3028	 ldr         r3, [sp, #0x28]
  00030	e3530000	 cmp         r3, #0
  00034	0a000002	 beq         |$LN7@main|

; 67   :         __D("CMEM_getNumBlocks failed!\n");

  00038	e59f0148	 ldr         r0, [pc, #0x148]
  0003c	eb000000	 bl          NKDbgPrintfW

; 68   :     }
; 69   :     else {

  00040	ea000002	 b           |$LN6@main|
  00044		 |$LN7@main|

; 70   :         __D("Number of CMEM blocks: %#x.\n", (unsigned int)numBlocks);

  00044	e59d1000	 ldr         r1, [sp]
  00048	e59f0134	 ldr         r0, [pc, #0x134]
  0004c	eb000000	 bl          NKDbgPrintfW
  00050		 |$LN6@main|

; 71   :     }
; 72   : 
; 73   :     for (i = 0; i < numBlocks; i++) {

  00050	e3a03000	 mov         r3, #0
  00054	e58d300c	 str         r3, [sp, #0xC]
  00058	ea000002	 b           |$LN5@main|
  0005c		 |$LN4@main|
  0005c	e59d300c	 ldr         r3, [sp, #0xC]
  00060	e2833001	 add         r3, r3, #1
  00064	e58d300c	 str         r3, [sp, #0xC]
  00068		 |$LN5@main|
  00068	e59d200c	 ldr         r2, [sp, #0xC]
  0006c	e59d3000	 ldr         r3, [sp]
  00070	e1520003	 cmp         r2, r3
  00074	aa000015	 bge         |$LN3@main|

; 74   :         status = CMEM_getBlockAttrs(i, &blockAttrs);

  00078	e28d1004	 add         r1, sp, #4
  0007c	e59d000c	 ldr         r0, [sp, #0xC]
  00080	eb000000	 bl          CMEM_getBlockAttrs
  00084	e58d0034	 str         r0, [sp, #0x34]
  00088	e59d3034	 ldr         r3, [sp, #0x34]
  0008c	e58d3028	 str         r3, [sp, #0x28]

; 75   :         if (status != 0) {

  00090	e59d3028	 ldr         r3, [sp, #0x28]
  00094	e3530000	 cmp         r3, #0
  00098	0a000003	 beq         |$LN2@main|

; 76   :             __D("CMEM_getBlockAttrs for block %#x failed!\n", (unsigned int)i);

  0009c	e59d100c	 ldr         r1, [sp, #0xC]
  000a0	e59f00d8	 ldr         r0, [pc, #0xD8]
  000a4	eb000000	 bl          NKDbgPrintfW

; 77   :         }
; 78   :         else {

  000a8	ea000007	 b           |$LN1@main|
  000ac		 |$LN2@main|

; 79   :             __D("Block %#d address: %#x.\n", i,
; 80   :                     (unsigned int)blockAttrs.phys_base);

  000ac	e59d2004	 ldr         r2, [sp, #4]
  000b0	e59d100c	 ldr         r1, [sp, #0xC]
  000b4	e59f00c0	 ldr         r0, [pc, #0xC0]
  000b8	eb000000	 bl          NKDbgPrintfW

; 81   :             __D("Block %#d length: %#x.\n", i,
; 82   :                     (unsigned int)blockAttrs.size);

  000bc	e59d2008	 ldr         r2, [sp, #8]
  000c0	e59d100c	 ldr         r1, [sp, #0xC]
  000c4	e59f00ac	 ldr         r0, [pc, #0xAC]
  000c8	eb000000	 bl          NKDbgPrintfW
  000cc		 |$LN1@main|

; 83   :         }
; 84   :     }

  000cc	eaffffe2	 b           |$LN4@main|
  000d0		 |$LN3@main|

; 85   : 
; 86   :     /* Allocate a buffer from CMEM pool */
; 87   :     allocParams.type = CMEM_POOL;

  000d0	e3a03000	 mov         r3, #0
  000d4	e58d3014	 str         r3, [sp, #0x14]

; 88   :     allocParams.flags = CMEM_NONCACHED;

  000d8	e3a03000	 mov         r3, #0
  000dc	e58d3018	 str         r3, [sp, #0x18]

; 89   :     poolBuf = CMEM_allocPool(0, &allocParams);

  000e0	e28d1014	 add         r1, sp, #0x14
  000e4	e3a00000	 mov         r0, #0
  000e8	eb000000	 bl          CMEM_allocPool
  000ec	e58d0038	 str         r0, [sp, #0x38]
  000f0	e59d3038	 ldr         r3, [sp, #0x38]
  000f4	e58d3024	 str         r3, [sp, #0x24]

; 90   : 
; 91   :     __D("Pool buffer address: %#x.\n", (unsigned int)poolBuf);

  000f8	e59d1024	 ldr         r1, [sp, #0x24]
  000fc	e59f0070	 ldr         r0, [pc, #0x70]
  00100	eb000000	 bl          NKDbgPrintfW

; 92   : 
; 93   :     /* Allocate buffer from CMEM heap */
; 94   :     allocParams.type = CMEM_HEAP;

  00104	e3a03b01	 mov         r3, #1, 22
  00108	e58d3014	 str         r3, [sp, #0x14]

; 95   :     heapPtr = CMEM_alloc(1024, &allocParams);

  0010c	e28d1014	 add         r1, sp, #0x14
  00110	e3a00b01	 mov         r0, #1, 22
  00114	eb000000	 bl          CMEM_alloc
  00118	e58d003c	 str         r0, [sp, #0x3C]
  0011c	e59d303c	 ldr         r3, [sp, #0x3C]
  00120	e58d3020	 str         r3, [sp, #0x20]

; 96   : 
; 97   :     __D("Heap buffer address: %#x.\n", (unsigned int)heapPtr);

  00124	e59d1020	 ldr         r1, [sp, #0x20]
  00128	e59f0040	 ldr         r0, [pc, #0x40]
  0012c	eb000000	 bl          NKDbgPrintfW

; 98   : 
; 99   :     /*
; 100  :      *  Determine physical addresses of buffer.
; 101  :      */
; 102  :     ptrPA = (PVOID)CMEM_getPhys(heapPtr);

  00130	e59d0020	 ldr         r0, [sp, #0x20]
  00134	eb000000	 bl          CMEM_getPhys
  00138	e58d0040	 str         r0, [sp, #0x40]
  0013c	e59d3040	 ldr         r3, [sp, #0x40]
  00140	e58d3010	 str         r3, [sp, #0x10]

; 103  : 
; 104  :     __D("ptrPA: 0x%x\n", ptrPA);

  00144	e59d1010	 ldr         r1, [sp, #0x10]
  00148	e59f001c	 ldr         r0, [pc, #0x1C]
  0014c	eb000000	 bl          NKDbgPrintfW

; 105  : 
; 106  :     CMEM_exit();

  00150	eb000000	 bl          CMEM_exit

; 107  : }

  00154	e3a03000	 mov         r3, #0
  00158	e58d302c	 str         r3, [sp, #0x2C]
  0015c	e59d002c	 ldr         r0, [sp, #0x2C]
  00160	e28dd044	 add         sp, sp, #0x44
  00164	e49de004	 ldr         lr, [sp], #4
  00168	e12fff1e	 bx          lr
  0016c		 |$LN13@main|
  0016c		 |$LN14@main|
  0016c	00000000	 DCD         |??_C@_1DM@PJFIEGKK@?$AAC?$AAM?$AAE?$AAM?$AA?5?$AAT?$AAE?$AAS?$AAT?$AA?5?$AAD?$AAe?$AAb?$AAu?$AAg?$AA?3?$AA?5?$AAp?$AAt?$AAr?$AAP?$AAA?$AA?3?$AA?5?$AA0?$AAx?$AA?$CF?$AAx?$AA?6?$AA?$AA@|
  00170		 |$LN15@main|
  00170	00000000	 DCD         |??_C@_1FI@DBMNJMNJ@?$AAC?$AAM?$AAE?$AAM?$AA?5?$AAT?$AAE?$AAS?$AAT?$AA?5?$AAD?$AAe?$AAb?$AAu?$AAg?$AA?3?$AA?5?$AAH?$AAe?$AAa?$AAp?$AA?5?$AAb?$AAu?$AAf?$AAf?$AAe?$AAr?$AA?5?$AAa?$AAd?$AAd@|
  00174		 |$LN16@main|
  00174	00000000	 DCD         |??_C@_1FI@PEIJMOMA@?$AAC?$AAM?$AAE?$AAM?$AA?5?$AAT?$AAE?$AAS?$AAT?$AA?5?$AAD?$AAe?$AAb?$AAu?$AAg?$AA?3?$AA?5?$AAP?$AAo?$AAo?$AAl?$AA?5?$AAb?$AAu?$AAf?$AAf?$AAe?$AAr?$AA?5?$AAa?$AAd?$AAd@|
  00178		 |$LN17@main|
  00178	00000000	 DCD         |??_C@_1FC@KGFIBCCA@?$AAC?$AAM?$AAE?$AAM?$AA?5?$AAT?$AAE?$AAS?$AAT?$AA?5?$AAD?$AAe?$AAb?$AAu?$AAg?$AA?3?$AA?5?$AAB?$AAl?$AAo?$AAc?$AAk?$AA?5?$AA?$CF?$AA?$CD?$AAd?$AA?5?$AAl?$AAe?$AAn?$AAg?$AAt@|
  0017c		 |$LN18@main|
  0017c	00000000	 DCD         |??_C@_1FE@DDOEIEME@?$AAC?$AAM?$AAE?$AAM?$AA?5?$AAT?$AAE?$AAS?$AAT?$AA?5?$AAD?$AAe?$AAb?$AAu?$AAg?$AA?3?$AA?5?$AAB?$AAl?$AAo?$AAc?$AAk?$AA?5?$AA?$CF?$AA?$CD?$AAd?$AA?5?$AAa?$AAd?$AAd?$AAr?$AAe@|
  00180		 |$LN19@main|
  00180	00000000	 DCD         |??_C@_1HG@IOKNHDEI@?$AAC?$AAM?$AAE?$AAM?$AA?5?$AAT?$AAE?$AAS?$AAT?$AA?5?$AAD?$AAe?$AAb?$AAu?$AAg?$AA?3?$AA?5?$AAC?$AAM?$AAE?$AAM?$AA_?$AAg?$AAe?$AAt?$AAB?$AAl?$AAo?$AAc?$AAk?$AAA?$AAt@|
  00184		 |$LN20@main|
  00184	00000000	 DCD         |??_C@_1FM@PDONIDOI@?$AAC?$AAM?$AAE?$AAM?$AA?5?$AAT?$AAE?$AAS?$AAT?$AA?5?$AAD?$AAe?$AAb?$AAu?$AAg?$AA?3?$AA?5?$AAN?$AAu?$AAm?$AAb?$AAe?$AAr?$AA?5?$AAo?$AAf?$AA?5?$AAC?$AAM?$AAE?$AAM?$AA?5@|
  00188		 |$LN21@main|
  00188	00000000	 DCD         |??_C@_1FI@PMBMPJAC@?$AAC?$AAM?$AAE?$AAM?$AA?5?$AAT?$AAE?$AAS?$AAT?$AA?5?$AAD?$AAe?$AAb?$AAu?$AAg?$AA?3?$AA?5?$AAC?$AAM?$AAE?$AAM?$AA_?$AAg?$AAe?$AAt?$AAN?$AAu?$AAm?$AAB?$AAl?$AAo?$AAc@|
  0018c		 |$M36621|

			 ENDP  ; |main|

	END
