; Listing generated by Microsoft (R) Optimizing Compiler Version 14.01.60511.01 

	TTL	I:\library\trees\winceutils\winceutils-b01x\src\ti\sdo\winceutils\cmem\user\cmem.c
	CODE32

  00000			 AREA	 |.drectve|, DRECTVE
	DCB	"-defaultlib:LIBCMT "
	DCB	"-defaultlib:OLDNAMES "

	EXPORT	|CMEM_DEFAULTPARAMS| [ DATA ]

  00000			 AREA	 |.bss|, NOINIT
|hCMEM|	%	0x4
|ref_count| %	0x4
|dwPageSize| %	0x4

  00000			 AREA	 |.data|, DATA
|CMEM_DEFAULTPARAMS| DCD 0x0
	DCD	0x0
	DCD	0x1
	EXPORT	|GetCurrentProcessId|
	IMPORT	|__GetUserKData|
; File c:\wince600\public\common\sdk\inc\kfuncs.h

  00000			 AREA	 |.pdata|, PDATA
|$T37057| DCD	|$LN5@GetCurrent|
	DCD	0x40000501
; Function compile flags: /Ogspy

  00000			 AREA	 |.text|, CODE, ARM

  00000		 |GetCurrentProcessId| PROC

; 373  : _inline DWORD GetCurrentProcessId(void) {

  00000		 |$LN5@GetCurrent|
  00000	e52de004	 str         lr, [sp, #-4]!
  00004		 |$M37054|

; 374  :     return __GetUserKData (SYSHANDLE_OFFSET + (SH_CURPROC * sizeof(HANDLE)));

  00004	e3a0000c	 mov         r0, #0xC
  00008	eb000000	 bl          __GetUserKData

; 375  : }

  0000c	e49de004	 ldr         lr, [sp], #4
  00010	e12fff1e	 bx          lr
  00014		 |$M37055|

			 ENDP  ; |GetCurrentProcessId|

	EXPORT	|??_C@_1II@BDPOLLKM@?$AAC?$AAM?$AAE?$AAM?$AA?5?$AAE?$AAr?$AAr?$AAo?$AAr?$AA?3?$AA?5?$AAE?$AAi?$AAt?$AAh?$AAe?$AAr?$AA?5?$AAC?$AAM?$AAE?$AAM?$AA_?$AAi?$AAn?$AAi?$AAt?$AA?$CI?$AA?$CJ?$AA?5?$AAw@| [ DATA ] ; `string'
	EXPORT	|??_C@_1HO@NKGOPDHM@?$AAC?$AAM?$AAE?$AAM?$AA?5?$AAE?$AAr?$AAr?$AAo?$AAr?$AA?3?$AA?5?$AA?5?$AA?5?$AA?5?$AA?5?$AAi?$AAn?$AAi?$AAt?$AAi?$AAa?$AAl?$AAi?$AAz?$AAe?$AA?5?$AAC?$AAM?$AAE?$AAM?$AA?5@| [ DATA ] ; `string'
	EXPORT	|??_C@_1IG@JBDDMLC@?$AAC?$AAM?$AAE?$AAM?$AA?5?$AAE?$AAr?$AAr?$AAo?$AAr?$AA?3?$AA?5?$AA?5?$AA?5?$AA?5?$AA?5?$AAI?$AAf?$AA?5?$AAC?$AAM?$AAE?$AAM?$AA_?$AAi?$AAn?$AAi?$AAt?$AA?$CI?$AA?$CJ?$AA?5?$AAw@| [ DATA ] ; `string'
	EXPORT	|??_C@_1EG@GEKPGGFC@?$AAC?$AAM?$AAE?$AAM?$AA?5?$AAE?$AAr?$AAr?$AAo?$AAr?$AA?3?$AA?5?$AA?5?$AA?5?$AA?5?$AA?5?$AAf?$AAa?$AAi?$AAl?$AAu?$AAr?$AAe?$AA?5?$AAm?$AAe?$AAs?$AAs?$AAa?$AAg?$AAe?$AAs@| [ DATA ] ; `string'
	IMPORT	|NKDbgPrintfW|
; File i:\library\trees\winceutils\winceutils-b01x\src\ti\sdo\winceutils\cmem\user\cmem.c

  00000			 AREA	 |.pdata|, PDATA
|$T37066| DCD	|$LN6@validate_i|
	DCD	0x40001801

  00000			 AREA	 |.rdata|, DATA, READONLY
|??_C@_1II@BDPOLLKM@?$AAC?$AAM?$AAE?$AAM?$AA?5?$AAE?$AAr?$AAr?$AAo?$AAr?$AA?3?$AA?5?$AAE?$AAi?$AAt?$AAh?$AAe?$AAr?$AA?5?$AAC?$AAM?$AAE?$AAM?$AA_?$AAi?$AAn?$AAi?$AAt?$AA?$CI?$AA?$CJ?$AA?5?$AAw@| DCB "C"
	DCB	0x0, "M", 0x0, "E", 0x0, "M", 0x0, " ", 0x0, "E", 0x0, "r"
	DCB	0x0, "r", 0x0, "o", 0x0, "r", 0x0, ":", 0x0, " ", 0x0, "E"
	DCB	0x0, "i", 0x0, "t", 0x0, "h", 0x0, "e", 0x0, "r", 0x0, " "
	DCB	0x0, "C", 0x0, "M", 0x0, "E", 0x0, "M", 0x0, "_", 0x0, "i"
	DCB	0x0, "n", 0x0, "i", 0x0, "t", 0x0, "(", 0x0, ")", 0x0, " "
	DCB	0x0, "w", 0x0, "a", 0x0, "s", 0x0, " ", 0x0, "n", 0x0, "o"
	DCB	0x0, "t", 0x0, " ", 0x0, "c", 0x0, "a", 0x0, "l", 0x0, "l"
	DCB	0x0, "e", 0x0, "d", 0x0, ",", 0x0, " ", 0x0, "o", 0x0, "r"
	DCB	0x0, " ", 0x0, "f", 0x0, "a", 0x0, "i", 0x0, "l", 0x0, "e"
	DCB	0x0, "d", 0x0, ".", 0x0, " ", 0x0, "Y", 0x0, "o", 0x0, "u"
	DCB	0x0, " ", 0x0, "m", 0x0, "u", 0x0, "s", 0x0, "t", 0x0, 0xa
	DCB	0x0, 0x0, 0x0				; `string'

  00000			 AREA	 |.rdata|, DATA, READONLY
|??_C@_1HO@NKGOPDHM@?$AAC?$AAM?$AAE?$AAM?$AA?5?$AAE?$AAr?$AAr?$AAo?$AAr?$AA?3?$AA?5?$AA?5?$AA?5?$AA?5?$AA?5?$AAi?$AAn?$AAi?$AAt?$AAi?$AAa?$AAl?$AAi?$AAz?$AAe?$AA?5?$AAC?$AAM?$AAE?$AAM?$AA?5@| DCB "C"
	DCB	0x0, "M", 0x0, "E", 0x0, "M", 0x0, " ", 0x0, "E", 0x0, "r"
	DCB	0x0, "r", 0x0, "o", 0x0, "r", 0x0, ":", 0x0, " ", 0x0, " "
	DCB	0x0, " ", 0x0, " ", 0x0, " ", 0x0, "i", 0x0, "n", 0x0, "i"
	DCB	0x0, "t", 0x0, "i", 0x0, "a", 0x0, "l", 0x0, "i", 0x0, "z"
	DCB	0x0, "e", 0x0, " ", 0x0, "C", 0x0, "M", 0x0, "E", 0x0, "M"
	DCB	0x0, " ", 0x0, "b", 0x0, "e", 0x0, "f", 0x0, "o", 0x0, "r"
	DCB	0x0, "e", 0x0, " ", 0x0, "m", 0x0, "a", 0x0, "k", 0x0, "i"
	DCB	0x0, "n", 0x0, "g", 0x0, " ", 0x0, "C", 0x0, "M", 0x0, "E"
	DCB	0x0, "M", 0x0, " ", 0x0, "A", 0x0, "P", 0x0, "I", 0x0, " "
	DCB	0x0, "c", 0x0, "a", 0x0, "l", 0x0, "l", 0x0, "s", 0x0, "."
	DCB	0x0, 0xa, 0x0, 0x0, 0x0			; `string'

  00000			 AREA	 |.rdata|, DATA, READONLY
|??_C@_1IG@JBDDMLC@?$AAC?$AAM?$AAE?$AAM?$AA?5?$AAE?$AAr?$AAr?$AAo?$AAr?$AA?3?$AA?5?$AA?5?$AA?5?$AA?5?$AA?5?$AAI?$AAf?$AA?5?$AAC?$AAM?$AAE?$AAM?$AA_?$AAi?$AAn?$AAi?$AAt?$AA?$CI?$AA?$CJ?$AA?5?$AAw@| DCB "C"
	DCB	0x0, "M", 0x0, "E", 0x0, "M", 0x0, " ", 0x0, "E", 0x0, "r"
	DCB	0x0, "r", 0x0, "o", 0x0, "r", 0x0, ":", 0x0, " ", 0x0, " "
	DCB	0x0, " ", 0x0, " ", 0x0, " ", 0x0, "I", 0x0, "f", 0x0, " "
	DCB	0x0, "C", 0x0, "M", 0x0, "E", 0x0, "M", 0x0, "_", 0x0, "i"
	DCB	0x0, "n", 0x0, "i", 0x0, "t", 0x0, "(", 0x0, ")", 0x0, " "
	DCB	0x0, "w", 0x0, "a", 0x0, "s", 0x0, " ", 0x0, "c", 0x0, "a"
	DCB	0x0, "l", 0x0, "l", 0x0, "e", 0x0, "d", 0x0, ",", 0x0, " "
	DCB	0x0, "c", 0x0, "h", 0x0, "e", 0x0, "c", 0x0, "k", 0x0, " "
	DCB	0x0, "f", 0x0, "o", 0x0, "r", 0x0, " ", 0x0, "e", 0x0, "a"
	DCB	0x0, "r", 0x0, "l", 0x0, "i", 0x0, "e", 0x0, "r", 0x0, " "
	DCB	0x0, "C", 0x0, "M", 0x0, "E", 0x0, "M", 0x0, 0xa, 0x0, 0x0
	DCB	0x0					; `string'

  00000			 AREA	 |.rdata|, DATA, READONLY
|??_C@_1EG@GEKPGGFC@?$AAC?$AAM?$AAE?$AAM?$AA?5?$AAE?$AAr?$AAr?$AAo?$AAr?$AA?3?$AA?5?$AA?5?$AA?5?$AA?5?$AA?5?$AAf?$AAa?$AAi?$AAl?$AAu?$AAr?$AAe?$AA?5?$AAm?$AAe?$AAs?$AAs?$AAa?$AAg?$AAe?$AAs@| DCB "C"
	DCB	0x0, "M", 0x0, "E", 0x0, "M", 0x0, " ", 0x0, "E", 0x0, "r"
	DCB	0x0, "r", 0x0, "o", 0x0, "r", 0x0, ":", 0x0, " ", 0x0, " "
	DCB	0x0, " ", 0x0, " ", 0x0, " ", 0x0, "f", 0x0, "a", 0x0, "i"
	DCB	0x0, "l", 0x0, "u", 0x0, "r", 0x0, "e", 0x0, " ", 0x0, "m"
	DCB	0x0, "e", 0x0, "s", 0x0, "s", 0x0, "a", 0x0, "g", 0x0, "e"
	DCB	0x0, "s", 0x0, ".", 0x0, 0xa, 0x0, 0x0, 0x0 ; `string'
; Function compile flags: /Ogspy

  00000			 AREA	 |.text|, CODE, ARM

  00000		 |validate_init| PROC

; 79   : {

  00000		 |$LN6@validate_i|
  00000	e52de004	 str         lr, [sp, #-4]!
  00004		 |$M37063|

; 80   :     if (hCMEM == NULL) {

  00004	e59f3050	 ldr         r3, [pc, #0x50]
  00008	e5933000	 ldr         r3, [r3]
  0000c	e3530000	 cmp         r3, #0
  00010	1a00000a	 bne         |$LN1@validate_i|

; 81   :         __E("Either CMEM_init() was not called, or failed. You must\n");

  00014	e59f003c	 ldr         r0, [pc, #0x3C]
  00018	eb000000	 bl          NKDbgPrintfW

; 82   :         __E("    initialize CMEM before making CMEM API calls.\n");

  0001c	e59f0030	 ldr         r0, [pc, #0x30]
  00020	eb000000	 bl          NKDbgPrintfW

; 83   :         __E("    If CMEM_init() was called, check for earlier CMEM\n");

  00024	e59f0024	 ldr         r0, [pc, #0x24]
  00028	eb000000	 bl          NKDbgPrintfW

; 84   :         __E("    failure messages.\n");

  0002c	e59f0018	 ldr         r0, [pc, #0x18]
  00030	eb000000	 bl          NKDbgPrintfW

; 85   :         return (FALSE);

  00034	e3a00000	 mov         r0, #0

; 88   : }

  00038	e49de004	 ldr         lr, [sp], #4
  0003c	e12fff1e	 bx          lr
  00040		 |$LN1@validate_i|

; 86   :     }
; 87   :     return (TRUE);

  00040	e3a00001	 mov         r0, #1

; 88   : }

  00044	e49de004	 ldr         lr, [sp], #4
  00048	e12fff1e	 bx          lr
  0004c		 |$LN7@validate_i|
  0004c		 |$LN8@validate_i|
  0004c	00000000	 DCD         |??_C@_1EG@GEKPGGFC@?$AAC?$AAM?$AAE?$AAM?$AA?5?$AAE?$AAr?$AAr?$AAo?$AAr?$AA?3?$AA?5?$AA?5?$AA?5?$AA?5?$AA?5?$AAf?$AAa?$AAi?$AAl?$AAu?$AAr?$AAe?$AA?5?$AAm?$AAe?$AAs?$AAs?$AAa?$AAg?$AAe?$AAs@|
  00050		 |$LN9@validate_i|
  00050	00000000	 DCD         |??_C@_1IG@JBDDMLC@?$AAC?$AAM?$AAE?$AAM?$AA?5?$AAE?$AAr?$AAr?$AAo?$AAr?$AA?3?$AA?5?$AA?5?$AA?5?$AA?5?$AA?5?$AAI?$AAf?$AA?5?$AAC?$AAM?$AAE?$AAM?$AA_?$AAi?$AAn?$AAi?$AAt?$AA?$CI?$AA?$CJ?$AA?5?$AAw@|
  00054		 |$LN10@validate_i|
  00054	00000000	 DCD         |??_C@_1HO@NKGOPDHM@?$AAC?$AAM?$AAE?$AAM?$AA?5?$AAE?$AAr?$AAr?$AAo?$AAr?$AA?3?$AA?5?$AA?5?$AA?5?$AA?5?$AA?5?$AAi?$AAn?$AAi?$AAt?$AAi?$AAa?$AAl?$AAi?$AAz?$AAe?$AA?5?$AAC?$AAM?$AAE?$AAM?$AA?5@|
  00058		 |$LN11@validate_i|
  00058	00000000	 DCD         |??_C@_1II@BDPOLLKM@?$AAC?$AAM?$AAE?$AAM?$AA?5?$AAE?$AAr?$AAr?$AAo?$AAr?$AA?3?$AA?5?$AAE?$AAi?$AAt?$AAh?$AAe?$AAr?$AA?5?$AAC?$AAM?$AAE?$AAM?$AA_?$AAi?$AAn?$AAi?$AAt?$AA?$CI?$AA?$CJ?$AA?5?$AAw@|
  0005c		 |$LN12@validate_i|
  0005c	00000000	 DCD         |hCMEM|
  00060		 |$M37064|

			 ENDP  ; |validate_init|

	EXPORT	|??_C@_1HC@IJMDCIDN@?$AAC?$AAM?$AAE?$AAM?$AA?5?$AAE?$AAr?$AAr?$AAo?$AAr?$AA?3?$AA?5?$AAa?$AAl?$AAl?$AAo?$AAc?$AAP?$AAo?$AAo?$AAl?$AA?3?$AA?5?$AAi?$AAo?$AAc?$AAt?$AAl?$AA?5?$AA?$CF?$AAs?$AA?5@| [ DATA ] ; `string'
	EXPORT	|??_C@_0BE@KLPMOAPL@CMEM_IOCALLOCCACHED?$AA@| [ DATA ] ; `string'
	EXPORT	|??_C@_0O@MLAGLLMM@CMEM_IOCALLOC?$AA@| [ DATA ] ; `string'
	IMPORT	|DeviceIoControl|
; File c:\wince600\public\common\sdk\inc\kfuncs.h

  00000			 AREA	 |.pdata|, PDATA
|$T37090| DCD	|$LN10@allocFromP|
	DCD	0x40002c02

  00000			 AREA	 |.rdata|, DATA, READONLY
|??_C@_1HC@IJMDCIDN@?$AAC?$AAM?$AAE?$AAM?$AA?5?$AAE?$AAr?$AAr?$AAo?$AAr?$AA?3?$AA?5?$AAa?$AAl?$AAl?$AAo?$AAc?$AAP?$AAo?$AAo?$AAl?$AA?3?$AA?5?$AAi?$AAo?$AAc?$AAt?$AAl?$AA?5?$AA?$CF?$AAs?$AA?5@| DCB "C"
	DCB	0x0, "M", 0x0, "E", 0x0, "M", 0x0, " ", 0x0, "E", 0x0, "r"
	DCB	0x0, "r", 0x0, "o", 0x0, "r", 0x0, ":", 0x0, " ", 0x0, "a"
	DCB	0x0, "l", 0x0, "l", 0x0, "o", 0x0, "c", 0x0, "P", 0x0, "o"
	DCB	0x0, "o", 0x0, "l", 0x0, ":", 0x0, " ", 0x0, "i", 0x0, "o"
	DCB	0x0, "c", 0x0, "t", 0x0, "l", 0x0, " ", 0x0, "%", 0x0, "s"
	DCB	0x0, " ", 0x0, "f", 0x0, "a", 0x0, "i", 0x0, "l", 0x0, "e"
	DCB	0x0, "d", 0x0, " ", 0x0, "f", 0x0, "r", 0x0, "o", 0x0, "m"
	DCB	0x0, " ", 0x0, "p", 0x0, "o", 0x0, "o", 0x0, "l", 0x0, " "
	DCB	0x0, "%", 0x0, "d", 0x0, ":", 0x0, " ", 0x0, "%", 0x0, "d"
	DCB	0x0, 0xa, 0x0, 0x0, 0x0			; `string'

  00000			 AREA	 |.rdata|, DATA, READONLY
|??_C@_0BE@KLPMOAPL@CMEM_IOCALLOCCACHED?$AA@| DCB "CMEM_IOCALLOCCACHED", 0x0 ; `string'

  00000			 AREA	 |.rdata|, DATA, READONLY
|??_C@_0O@MLAGLLMM@CMEM_IOCALLOC?$AA@| DCB "CMEM_IOCALLOC", 0x0 ; `string'
; Function compile flags: /Ogspy
; File i:\library\trees\winceutils\winceutils-b01x\src\ti\sdo\winceutils\cmem\user\cmem.c

  00000			 AREA	 |.text|, CODE, ARM

  00000		 |allocFromPool| PROC

; 153  : {

  00000		 |$LN10@allocFromP|
  00000	e92d40f0	 stmdb       sp!, {r4 - r7, lr}
  00004	e24dd024	 sub         sp, sp, #0x24
  00008		 |$M37087|
  00008	e1a04002	 mov         r4, r2
  0000c	e1a06001	 mov         r6, r1
  00010	e1a03000	 mov         r3, r0

; 154  :     union CMEM_AllocUnion allocDesc;
; 155  :     unsigned int cmd;
; 156  :     BOOL  rv;
; 157  :     DWORD dwBytesReturned;
; 158  : 
; 159  :     allocDesc.alloc_pool_inparams.poolid = poolid;
; 160  :     allocDesc.alloc_pool_inparams.blockid = blockid;
; 161  :     allocDesc.alloc_pool_inparams.dwProcId = (DWORD)GetCurrentProcessId();

  00014	e3a0000c	 mov         r0, #0xC
  00018	e58d6014	 str         r6, [sp, #0x14]
  0001c	e58d3018	 str         r3, [sp, #0x18]
  00020	eb000000	 bl          __GetUserKData

; 162  :     cmd = CMEM_IOCALLOC | params->flags;

  00024	e5943004	 ldr         r3, [r4, #4]

; 163  :     rv = DeviceIoControl(hCMEM, cmd, &allocDesc, sizeof(allocDesc), NULL, 0,
; 164  :             &dwBytesReturned, NULL);

  00028	e59f207c	 ldr         r2, [pc, #0x7C]
  0002c	e1a04000	 mov         r4, r0
  00030	e3835001	 orr         r5, r3, #1
  00034	e5920000	 ldr         r0, [r2]
  00038	e28de010	 add         lr, sp, #0x10
  0003c	e3a07000	 mov         r7, #0
  00040	e1a01005	 mov         r1, r5
  00044	e3a03010	 mov         r3, #0x10
  00048	e28d2014	 add         r2, sp, #0x14
  0004c	e58d401c	 str         r4, [sp, #0x1C]
  00050	e58d700c	 str         r7, [sp, #0xC]
  00054	e58de008	 str         lr, [sp, #8]
  00058	e58d7004	 str         r7, [sp, #4]
  0005c	e58d7000	 str         r7, [sp]
  00060	eb000000	 bl          DeviceIoControl
  00064	e3500000	 cmp         r0, #0

; 165  :     if (!rv) {

  00068	1a000008	 bne         |$LN1@allocFromP|

; 166  :         __E("allocPool: ioctl %s failed from pool %d: %d\n",
; 167  :                 cmd == CMEM_IOCALLOC ? "CMEM_IOCALLOC" : "CMEM_IOCALLOCCACHED",
; 168  :                 poolid, rv);

  0006c	e3550001	 cmp         r5, #1
  00070	059f1030	 ldreq       r1, [pc, #0x30]
  00074	159f1028	 ldrne       r1, [pc, #0x28]
  00078	e59f0020	 ldr         r0, [pc, #0x20]
  0007c	e3a03000	 mov         r3, #0
  00080	e1a02006	 mov         r2, r6
  00084	eb000000	 bl          NKDbgPrintfW

; 169  :         return NULL;

  00088	e3a00000	 mov         r0, #0
  0008c	ea000000	 b           |$LN2@allocFromP|
  00090		 |$LN1@allocFromP|

; 170  :     }
; 171  : 
; 172  :     __D("allocPool: mmap succeeded, returning virt buffer %p\n",
; 173  :             allocDesc.alloc_pool_outparams.virtp);
; 174  : 
; 175  :     return (PVOID)allocDesc.alloc_pool_outparams.virtp;

  00090	e59d0018	 ldr         r0, [sp, #0x18]
  00094		 |$LN2@allocFromP|

; 176  : }

  00094	e28dd024	 add         sp, sp, #0x24
  00098	e8bd40f0	 ldmia       sp!, {r4 - r7, lr}
  0009c	e12fff1e	 bx          lr
  000a0		 |$LN11@allocFromP|
  000a0		 |$LN12@allocFromP|
  000a0	00000000	 DCD         |??_C@_1HC@IJMDCIDN@?$AAC?$AAM?$AAE?$AAM?$AA?5?$AAE?$AAr?$AAr?$AAo?$AAr?$AA?3?$AA?5?$AAa?$AAl?$AAl?$AAo?$AAc?$AAP?$AAo?$AAo?$AAl?$AA?3?$AA?5?$AAi?$AAo?$AAc?$AAt?$AAl?$AA?5?$AA?$CF?$AAs?$AA?5@|
  000a4		 |$LN13@allocFromP|
  000a4	00000000	 DCD         |??_C@_0BE@KLPMOAPL@CMEM_IOCALLOCCACHED?$AA@|
  000a8		 |$LN14@allocFromP|
  000a8	00000000	 DCD         |??_C@_0O@MLAGLLMM@CMEM_IOCALLOC?$AA@|
  000ac		 |$LN15@allocFromP|
  000ac	00000000	 DCD         |hCMEM|
  000b0		 |$M37088|

			 ENDP  ; |allocFromPool|

	EXPORT	|??_C@_1FI@PDJNAMOK@?$AAC?$AAM?$AAE?$AAM?$AA?5?$AAE?$AAr?$AAr?$AAo?$AAr?$AA?3?$AA?5?$AAa?$AAl?$AAl?$AAo?$AAc?$AAH?$AAe?$AAa?$AAp?$AA?3?$AA?5?$AAi?$AAo?$AAc?$AAt?$AAl?$AA?5?$AA?$CF?$AAs?$AA?5@| [ DATA ] ; `string'
	EXPORT	|??_C@_0BI@DKEAIDBJ@CMEM_IOCALLOCHEAPCACHED?$AA@| [ DATA ] ; `string'
	EXPORT	|??_C@_0BC@KANGPNNF@CMEM_IOCALLOCHEAP?$AA@| [ DATA ] ; `string'
; File c:\wince600\public\common\sdk\inc\kfuncs.h

  00000			 AREA	 |.pdata|, PDATA
|$T37115| DCD	|$LN12@allocFromH|
	DCD	0x40002e02

  00000			 AREA	 |.rdata|, DATA, READONLY
|??_C@_1FI@PDJNAMOK@?$AAC?$AAM?$AAE?$AAM?$AA?5?$AAE?$AAr?$AAr?$AAo?$AAr?$AA?3?$AA?5?$AAa?$AAl?$AAl?$AAo?$AAc?$AAH?$AAe?$AAa?$AAp?$AA?3?$AA?5?$AAi?$AAo?$AAc?$AAt?$AAl?$AA?5?$AA?$CF?$AAs?$AA?5@| DCB "C"
	DCB	0x0, "M", 0x0, "E", 0x0, "M", 0x0, " ", 0x0, "E", 0x0, "r"
	DCB	0x0, "r", 0x0, "o", 0x0, "r", 0x0, ":", 0x0, " ", 0x0, "a"
	DCB	0x0, "l", 0x0, "l", 0x0, "o", 0x0, "c", 0x0, "H", 0x0, "e"
	DCB	0x0, "a", 0x0, "p", 0x0, ":", 0x0, " ", 0x0, "i", 0x0, "o"
	DCB	0x0, "c", 0x0, "t", 0x0, "l", 0x0, " ", 0x0, "%", 0x0, "s"
	DCB	0x0, " ", 0x0, "f", 0x0, "a", 0x0, "i", 0x0, "l", 0x0, "e"
	DCB	0x0, "d", 0x0, ":", 0x0, " ", 0x0, "%", 0x0, "d", 0x0, 0xa
	DCB	0x0, 0x0, 0x0				; `string'

  00000			 AREA	 |.rdata|, DATA, READONLY
|??_C@_0BI@DKEAIDBJ@CMEM_IOCALLOCHEAPCACHED?$AA@| DCB "CMEM_IOCALLOCHEAPC"
	DCB	"ACHED", 0x0				; `string'

  00000			 AREA	 |.rdata|, DATA, READONLY
|??_C@_0BC@KANGPNNF@CMEM_IOCALLOCHEAP?$AA@| DCB "CMEM_IOCALLOCHEAP", 0x0 ; `string'
; Function compile flags: /Ogspy
; File i:\library\trees\winceutils\winceutils-b01x\src\ti\sdo\winceutils\cmem\user\cmem.c

  00000			 AREA	 |.text|, CODE, ARM

  00000		 |allocFromHeap| PROC

; 201  : {

  00000		 |$LN12@allocFromH|
  00000	e92d4070	 stmdb       sp!, {r4 - r6, lr}
  00004	e24dd024	 sub         sp, sp, #0x24
  00008		 |$M37112|
  00008	e1a0e000	 mov         lr, r0

; 202  :     union CMEM_AllocUnion allocDesc;
; 203  :     unsigned int cmd;
; 204  :     BOOL rv;
; 205  :     DWORD dwBytesReturned;
; 206  : 
; 207  :     cmd = CMEM_IOCALLOCHEAP | params->flags;

  0000c	e5923004	 ldr         r3, [r2, #4]

; 208  :     allocDesc.alloc_heap_inparams.size = size;
; 209  :     allocDesc.alloc_heap_inparams.align = params->alignment == 0 ?
; 210  :         1 : params->alignment;

  00010	e5922008	 ldr         r2, [r2, #8]

; 211  :     allocDesc.alloc_heap_inparams.blockid = blockid;
; 212  :     allocDesc.alloc_heap_inparams.dwProcId = (DWORD)GetCurrentProcessId();

  00014	e3a0000c	 mov         r0, #0xC
  00018	e3835002	 orr         r5, r3, #2
  0001c	e3520000	 cmp         r2, #0
  00020	03a03001	 moveq       r3, #1
  00024	058d3018	 streq       r3, [sp, #0x18]
  00028	158d2018	 strne       r2, [sp, #0x18]
  0002c	e58d1014	 str         r1, [sp, #0x14]
  00030	e58de01c	 str         lr, [sp, #0x1C]
  00034	eb000000	 bl          __GetUserKData

; 213  : 
; 214  :     rv = DeviceIoControl(hCMEM, cmd, &allocDesc, sizeof(allocDesc), NULL, 0,
; 215  :             &dwBytesReturned, NULL);

  00038	e59f3074	 ldr         r3, [pc, #0x74]
  0003c	e1a0e000	 mov         lr, r0
  00040	e28d4010	 add         r4, sp, #0x10
  00044	e5930000	 ldr         r0, [r3]
  00048	e3a06000	 mov         r6, #0
  0004c	e3a03010	 mov         r3, #0x10
  00050	e28d2014	 add         r2, sp, #0x14
  00054	e1a01005	 mov         r1, r5
  00058	e58de020	 str         lr, [sp, #0x20]
  0005c	e58d600c	 str         r6, [sp, #0xC]
  00060	e58d4008	 str         r4, [sp, #8]
  00064	e58d6004	 str         r6, [sp, #4]
  00068	e58d6000	 str         r6, [sp]
  0006c	eb000000	 bl          DeviceIoControl
  00070	e3500000	 cmp         r0, #0

; 216  :     if (!rv) {

  00074	1a000007	 bne         |$LN1@allocFromH|

; 217  :         __E("allocHeap: ioctl %s failed: %d\n",
; 218  :                 cmd == CMEM_IOCALLOCHEAP ?
; 219  :                 "CMEM_IOCALLOCHEAP" : "CMEM_IOCALLOCHEAPCACHED",
; 220  :                 rv);

  00078	e3550002	 cmp         r5, #2
  0007c	059f102c	 ldreq       r1, [pc, #0x2C]
  00080	159f1024	 ldrne       r1, [pc, #0x24]
  00084	e59f001c	 ldr         r0, [pc, #0x1C]
  00088	e3a02000	 mov         r2, #0
  0008c	eb000000	 bl          NKDbgPrintfW

; 221  :         return NULL;

  00090	e3a00000	 mov         r0, #0
  00094	ea000000	 b           |$LN2@allocFromH|
  00098		 |$LN1@allocFromH|

; 222  :     }
; 223  : 
; 224  :     __D("allocHeap: mmap succeeded, returning virt buffer %p\n",
; 225  :             allocDesc.virtp);
; 226  : 
; 227  :     return (PVOID)allocDesc.virtp;

  00098	e59d0014	 ldr         r0, [sp, #0x14]
  0009c		 |$LN2@allocFromH|

; 228  : }

  0009c	e28dd024	 add         sp, sp, #0x24
  000a0	e8bd4070	 ldmia       sp!, {r4 - r6, lr}
  000a4	e12fff1e	 bx          lr
  000a8		 |$LN13@allocFromH|
  000a8		 |$LN14@allocFromH|
  000a8	00000000	 DCD         |??_C@_1FI@PDJNAMOK@?$AAC?$AAM?$AAE?$AAM?$AA?5?$AAE?$AAr?$AAr?$AAo?$AAr?$AA?3?$AA?5?$AAa?$AAl?$AAl?$AAo?$AAc?$AAH?$AAe?$AAa?$AAp?$AA?3?$AA?5?$AAi?$AAo?$AAc?$AAt?$AAl?$AA?5?$AA?$CF?$AAs?$AA?5@|
  000ac		 |$LN15@allocFromH|
  000ac	00000000	 DCD         |??_C@_0BI@DKEAIDBJ@CMEM_IOCALLOCHEAPCACHED?$AA@|
  000b0		 |$LN16@allocFromH|
  000b0	00000000	 DCD         |??_C@_0BC@KANGPNNF@CMEM_IOCALLOCHEAP?$AA@|
  000b4		 |$LN17@allocFromH|
  000b4	00000000	 DCD         |hCMEM|
  000b8		 |$M37113|

			 ENDP  ; |allocFromHeap|


  00000			 AREA	 |.pdata|, PDATA
|$T37132| DCD	|$LN7@allocPool|
	DCD	0x40001101
; Function compile flags: /Ogspy

  00000			 AREA	 |.text|, CODE, ARM

  00000		 |allocPool| PROC

; 273  : {

  00000		 |$LN7@allocPool|
  00000	e92d4070	 stmdb       sp!, {r4 - r6, lr}
  00004		 |$M37129|
  00004	e1b04002	 movs        r4, r2
  00008	e1a05001	 mov         r5, r1
  0000c	e1a06000	 mov         r6, r0

; 274  :     if (params == NULL) {
; 275  :         params = &CMEM_DEFAULTPARAMS;

  00010	059f4028	 ldreq       r4, [pc, #0x28]

; 276  :     }
; 277  : 
; 278  :     __D("allocPool: entered w/ poolid %d, params - flags %s%s\n", poolid,
; 279  :             params->flags & CMEM_CACHED ? L"CACHED" : L"NONCACHED",
; 280  :             params == &CMEM_DEFAULTPARAMS ? L" (default)" : L"");
; 281  : 
; 282  :     if (!validate_init()) {

  00014	eb000000	 bl          validate_init
  00018	e3500000	 cmp         r0, #0

; 283  :         return NULL;

  0001c	03a00000	 moveq       r0, #0

; 287  : }

  00020	08bd4070	 ldmeqia     sp!, {r4 - r6, lr}
  00024	012fff1e	 bxeq        lr

; 284  :     }
; 285  : 
; 286  :     return allocFromPool(blockid, poolid, params);

  00028	e1a02004	 mov         r2, r4
  0002c	e1a01005	 mov         r1, r5
  00030	e1a00006	 mov         r0, r6
  00034	eb000000	 bl          allocFromPool

; 287  : }

  00038	e8bd4070	 ldmia       sp!, {r4 - r6, lr}
  0003c	e12fff1e	 bx          lr
  00040		 |$LN8@allocPool|
  00040		 |$LN9@allocPool|
  00040	00000000	 DCD         |CMEM_DEFAULTPARAMS|
  00044		 |$M37130|

			 ENDP  ; |allocPool|

	EXPORT	|CMEM_allocPool|

  00000			 AREA	 |.pdata|, PDATA
|$T37154| DCD	|$LN9@CMEM_alloc|
	DCD	0x40000d01
; Function compile flags: /Ogspy

  00000			 AREA	 |.text|, CODE, ARM

  00000		 |CMEM_allocPool| PROC

; 290  : {

  00000		 |$LN9@CMEM_alloc|
  00000	e92d4030	 stmdb       sp!, {r4, r5, lr}
  00004		 |$M37151|
  00004	e1b04001	 movs        r4, r1
  00008	e1a05000	 mov         r5, r0

; 291  :     return allocPool(0, poolid, params);

  0000c	059f401c	 ldreq       r4, [pc, #0x1C]
  00010	eb000000	 bl          validate_init
  00014	e3500000	 cmp         r0, #0
  00018	11a02004	 movne       r2, r4
  0001c	11a01005	 movne       r1, r5
  00020	e3a00000	 mov         r0, #0
  00024	1b000000	 blne        allocFromPool

; 292  : }

  00028	e8bd4030	 ldmia       sp!, {r4, r5, lr}
  0002c	e12fff1e	 bx          lr
  00030		 |$LN10@CMEM_alloc|
  00030		 |$LN11@CMEM_alloc|
  00030	00000000	 DCD         |CMEM_DEFAULTPARAMS|
  00034		 |$M37152|

			 ENDP  ; |CMEM_allocPool|

	EXPORT	|CMEM_allocPool2|

  00000			 AREA	 |.pdata|, PDATA
|$T37177| DCD	|$LN9@CMEM_alloc@2|
	DCD	0x40001101
; Function compile flags: /Ogspy

  00000			 AREA	 |.text|, CODE, ARM

  00000		 |CMEM_allocPool2| PROC

; 295  : {

  00000		 |$LN9@CMEM_alloc@2|
  00000	e92d4070	 stmdb       sp!, {r4 - r6, lr}
  00004		 |$M37174|
  00004	e1b04002	 movs        r4, r2
  00008	e1a05001	 mov         r5, r1
  0000c	e1a06000	 mov         r6, r0

; 296  :     return allocPool(blockid, poolid, params);

  00010	059f4028	 ldreq       r4, [pc, #0x28]
  00014	eb000000	 bl          validate_init
  00018	e3500000	 cmp         r0, #0
  0001c	03a00000	 moveq       r0, #0

; 297  : }

  00020	08bd4070	 ldmeqia     sp!, {r4 - r6, lr}
  00024	012fff1e	 bxeq        lr

; 296  :     return allocPool(blockid, poolid, params);

  00028	e1a02004	 mov         r2, r4
  0002c	e1a01005	 mov         r1, r5
  00030	e1a00006	 mov         r0, r6
  00034	eb000000	 bl          allocFromPool

; 297  : }

  00038	e8bd4070	 ldmia       sp!, {r4 - r6, lr}
  0003c	e12fff1e	 bx          lr
  00040		 |$LN10@CMEM_alloc@2|
  00040		 |$LN11@CMEM_alloc@2|
  00040	00000000	 DCD         |CMEM_DEFAULTPARAMS|
  00044		 |$M37175|

			 ENDP  ; |CMEM_allocPool2|

	EXPORT	|CMEM_free|
	EXPORT	|??_C@_1EM@BJEPMKEE@?$AAC?$AAM?$AAE?$AAM?$AA?5?$AAE?$AAr?$AAr?$AAo?$AAr?$AA?3?$AA?5?$AAf?$AAr?$AAe?$AAe?$AA?3?$AA?5?$AAf?$AAa?$AAi?$AAl?$AAe?$AAd?$AA?5?$AAt?$AAo?$AA?5?$AAf?$AAr?$AAe?$AAe@| [ DATA ] ; `string'

  00000			 AREA	 |.pdata|, PDATA
|$T37192| DCD	|$LN9@CMEM_free|
	DCD	0x40002502

  00000			 AREA	 |.rdata|, DATA, READONLY
|??_C@_1EM@BJEPMKEE@?$AAC?$AAM?$AAE?$AAM?$AA?5?$AAE?$AAr?$AAr?$AAo?$AAr?$AA?3?$AA?5?$AAf?$AAr?$AAe?$AAe?$AA?3?$AA?5?$AAf?$AAa?$AAi?$AAl?$AAe?$AAd?$AA?5?$AAt?$AAo?$AA?5?$AAf?$AAr?$AAe?$AAe@| DCB "C"
	DCB	0x0, "M", 0x0, "E", 0x0, "M", 0x0, " ", 0x0, "E", 0x0, "r"
	DCB	0x0, "r", 0x0, "o", 0x0, "r", 0x0, ":", 0x0, " ", 0x0, "f"
	DCB	0x0, "r", 0x0, "e", 0x0, "e", 0x0, ":", 0x0, " ", 0x0, "f"
	DCB	0x0, "a", 0x0, "i", 0x0, "l", 0x0, "e", 0x0, "d", 0x0, " "
	DCB	0x0, "t", 0x0, "o", 0x0, " ", 0x0, "f", 0x0, "r", 0x0, "e"
	DCB	0x0, "e", 0x0, " ", 0x0, "%", 0x0, "#", 0x0, "x", 0x0, 0xa
	DCB	0x0, 0x0, 0x0				; `string'
; Function compile flags: /Ogspy

  00000			 AREA	 |.text|, CODE, ARM

  00000		 |CMEM_free| PROC

; 300  : {

  00000		 |$LN9@CMEM_free|
  00000	e92d4030	 stmdb       sp!, {r4, r5, lr}
  00004	e24dd024	 sub         sp, sp, #0x24
  00008		 |$M37189|
  00008	e1b04001	 movs        r4, r1
  0000c	e1a05000	 mov         r5, r0

; 301  :     union CMEM_AllocUnion freeDesc;
; 302  :     unsigned int cmd;
; 303  :     size_t size;
; 304  :     DWORD dwBytesReturned;
; 305  : 
; 306  :     if (params == NULL) {
; 307  :         params = &CMEM_DEFAULTPARAMS;

  00010	059f4078	 ldreq       r4, [pc, #0x78]

; 308  :     }
; 309  : 
; 310  :     __D("free: entered w/ ptr %p, params - type %s%s\n",
; 311  :             ptr,
; 312  :             params->type == CMEM_POOL ? L"POOL" : L"HEAP",
; 313  :             params == &CMEM_DEFAULTPARAMS ? L" (default)" : L"");
; 314  : 
; 315  :     if (!validate_init()) {

  00014	eb000000	 bl          validate_init
  00018	e3500000	 cmp         r0, #0

; 316  :         return -1;

  0001c	03e00000	 mvneq       r0, #0
  00020	0a000015	 beq         |$LN4@CMEM_free|

; 317  :     }
; 318  : 
; 319  :     freeDesc.virtp = (int)ptr;
; 320  :     cmd = CMEM_IOCFREE | params->type;
; 321  :     if (!DeviceIoControl(hCMEM, cmd, &freeDesc, sizeof(freeDesc), NULL, 0,
; 322  :                 &dwBytesReturned, NULL)) {

  00024	e59f3060	 ldr         r3, [pc, #0x60]
  00028	e5942000	 ldr         r2, [r4]
  0002c	e28de010	 add         lr, sp, #0x10
  00030	e5930000	 ldr         r0, [r3]
  00034	e3821003	 orr         r1, r2, #3
  00038	e3a04000	 mov         r4, #0
  0003c	e3a03010	 mov         r3, #0x10
  00040	e28d2014	 add         r2, sp, #0x14
  00044	e58d5014	 str         r5, [sp, #0x14]
  00048	e58d400c	 str         r4, [sp, #0xC]
  0004c	e58de008	 str         lr, [sp, #8]
  00050	e58d4004	 str         r4, [sp, #4]
  00054	e58d4000	 str         r4, [sp]
  00058	eb000000	 bl          DeviceIoControl
  0005c	e3500000	 cmp         r0, #0
  00060	1a000004	 bne         |$LN1@CMEM_free|

; 323  :         __E("free: failed to free %#x\n", (unsigned int) ptr);

  00064	e59f001c	 ldr         r0, [pc, #0x1C]
  00068	e1a01005	 mov         r1, r5
  0006c	eb000000	 bl          NKDbgPrintfW
  00070	e3e00000	 mvn         r0, #0
  00074	ea000000	 b           |$LN4@CMEM_free|
  00078		 |$LN1@CMEM_free|

; 324  :         return -1;
; 325  :     }
; 326  :     size = freeDesc.free_outparams.size;
; 327  : 
; 328  :     __D("free: ioctl CMEM_IOCFREE%s succeeded, size %#x\n",
; 329  :             params->type == CMEM_POOL ? "POOL" : "HEAP", size);
; 330  : 
; 331  :     __D("free: munmap succeeded, returning 0\n");
; 332  : 
; 333  :     return 0;

  00078	e3a00000	 mov         r0, #0
  0007c		 |$LN4@CMEM_free|

; 334  : }

  0007c	e28dd024	 add         sp, sp, #0x24
  00080	e8bd4030	 ldmia       sp!, {r4, r5, lr}
  00084	e12fff1e	 bx          lr
  00088		 |$LN10@CMEM_free|
  00088		 |$LN11@CMEM_free|
  00088	00000000	 DCD         |??_C@_1EM@BJEPMKEE@?$AAC?$AAM?$AAE?$AAM?$AA?5?$AAE?$AAr?$AAr?$AAo?$AAr?$AA?3?$AA?5?$AAf?$AAr?$AAe?$AAe?$AA?3?$AA?5?$AAf?$AAa?$AAi?$AAl?$AAe?$AAd?$AA?5?$AAt?$AAo?$AA?5?$AAf?$AAr?$AAe?$AAe@|
  0008c		 |$LN12@CMEM_free|
  0008c	00000000	 DCD         |hCMEM|
  00090		 |$LN13@CMEM_free|
  00090	00000000	 DCD         |CMEM_DEFAULTPARAMS|
  00094		 |$M37190|

			 ENDP  ; |CMEM_free|

	EXPORT	|??_C@_1HK@PAIBBAAG@?$AAC?$AAM?$AAE?$AAM?$AA?5?$AAE?$AAr?$AAr?$AAo?$AAr?$AA?3?$AA?5?$AAg?$AAe?$AAt?$AAP?$AAo?$AAo?$AAl?$AA?3?$AA?5?$AAF?$AAa?$AAi?$AAl?$AAe?$AAd?$AA?5?$AAt?$AAo?$AA?5?$AAg@| [ DATA ] ; `string'

  00000			 AREA	 |.pdata|, PDATA
|$T37208| DCD	|$LN8@getPoolFro|
	DCD	0x40002302

  00000			 AREA	 |.rdata|, DATA, READONLY
|??_C@_1HK@PAIBBAAG@?$AAC?$AAM?$AAE?$AAM?$AA?5?$AAE?$AAr?$AAr?$AAo?$AAr?$AA?3?$AA?5?$AAg?$AAe?$AAt?$AAP?$AAo?$AAo?$AAl?$AA?3?$AA?5?$AAF?$AAa?$AAi?$AAl?$AAe?$AAd?$AA?5?$AAt?$AAo?$AA?5?$AAg@| DCB "C"
	DCB	0x0, "M", 0x0, "E", 0x0, "M", 0x0, " ", 0x0, "E", 0x0, "r"
	DCB	0x0, "r", 0x0, "o", 0x0, "r", 0x0, ":", 0x0, " ", 0x0, "g"
	DCB	0x0, "e", 0x0, "t", 0x0, "P", 0x0, "o", 0x0, "o", 0x0, "l"
	DCB	0x0, ":", 0x0, " ", 0x0, "F", 0x0, "a", 0x0, "i", 0x0, "l"
	DCB	0x0, "e", 0x0, "d", 0x0, " ", 0x0, "t", 0x0, "o", 0x0, " "
	DCB	0x0, "g", 0x0, "e", 0x0, "t", 0x0, " ", 0x0, "a", 0x0, " "
	DCB	0x0, "p", 0x0, "o", 0x0, "o", 0x0, "l", 0x0, " ", 0x0, "f"
	DCB	0x0, "i", 0x0, "t", 0x0, "t", 0x0, "i", 0x0, "n", 0x0, "g"
	DCB	0x0, " ", 0x0, "a", 0x0, " ", 0x0, "s", 0x0, "i", 0x0, "z"
	DCB	0x0, "e", 0x0, " ", 0x0, "%", 0x0, "d", 0x0, 0xa, 0x0, 0x0
	DCB	0x0					; `string'
; Function compile flags: /Ogspy

  00000			 AREA	 |.text|, CODE, ARM

  00000		 |getPoolFromBlock| PROC

; 337  : {

  00000		 |$LN8@getPoolFro|
  00000	e92d4070	 stmdb       sp!, {r4 - r6, lr}
  00004	e24dd024	 sub         sp, sp, #0x24
  00008		 |$M37205|
  00008	e1a04001	 mov         r4, r1
  0000c	e1a05000	 mov         r5, r0

; 338  :     union CMEM_AllocUnion poolDesc; 
; 339  :     DWORD dwBytesReturned;
; 340  : 
; 341  :     if (!validate_init()) {

  00010	eb000000	 bl          validate_init
  00014	e3500000	 cmp         r0, #0

; 342  :         return -1;

  00018	03e00000	 mvneq       r0, #0
  0001c	0a000015	 beq         |$LN3@getPoolFro|

; 343  :     }
; 344  : 
; 345  :     poolDesc.get_pool_inparams.size = size;
; 346  :     poolDesc.get_pool_inparams.blockid = blockid;
; 347  :     if (!DeviceIoControl(hCMEM, CMEM_IOCGETPOOL, &poolDesc, sizeof(poolDesc),
; 348  :                 NULL, 0, &dwBytesReturned, NULL)) {

  00020	e59f3060	 ldr         r3, [pc, #0x60]
  00024	e28de010	 add         lr, sp, #0x10
  00028	e3a06000	 mov         r6, #0
  0002c	e5930000	 ldr         r0, [r3]
  00030	e3a03010	 mov         r3, #0x10
  00034	e28d2014	 add         r2, sp, #0x14
  00038	e3a01006	 mov         r1, #6
  0003c	e58d4014	 str         r4, [sp, #0x14]
  00040	e58d5018	 str         r5, [sp, #0x18]
  00044	e58d600c	 str         r6, [sp, #0xC]
  00048	e58de008	 str         lr, [sp, #8]
  0004c	e58d6004	 str         r6, [sp, #4]
  00050	e58d6000	 str         r6, [sp]
  00054	eb000000	 bl          DeviceIoControl
  00058	e3500000	 cmp         r0, #0
  0005c	1a000004	 bne         |$LN1@getPoolFro|

; 349  :         __E("getPool: Failed to get a pool fitting a size %d\n", size);

  00060	e59f001c	 ldr         r0, [pc, #0x1C]
  00064	e1a01004	 mov         r1, r4
  00068	eb000000	 bl          NKDbgPrintfW
  0006c	e3e00000	 mvn         r0, #0
  00070	ea000000	 b           |$LN3@getPoolFro|
  00074		 |$LN1@getPoolFro|

; 350  :         return -1;
; 351  :     }
; 352  : 
; 353  :     __D("getPool: exiting, ioctl CMEM_IOCGETPOOL succeeded, returning %d\n",
; 354  :             poolDesc.poolid);
; 355  : 
; 356  :     return poolDesc.poolid;

  00074	e59d0014	 ldr         r0, [sp, #0x14]
  00078		 |$LN3@getPoolFro|

; 357  : }

  00078	e28dd024	 add         sp, sp, #0x24
  0007c	e8bd4070	 ldmia       sp!, {r4 - r6, lr}
  00080	e12fff1e	 bx          lr
  00084		 |$LN9@getPoolFro|
  00084		 |$LN10@getPoolFro|
  00084	00000000	 DCD         |??_C@_1HK@PAIBBAAG@?$AAC?$AAM?$AAE?$AAM?$AA?5?$AAE?$AAr?$AAr?$AAo?$AAr?$AA?3?$AA?5?$AAg?$AAe?$AAt?$AAP?$AAo?$AAo?$AAl?$AA?3?$AA?5?$AAF?$AAa?$AAi?$AAl?$AAe?$AAd?$AA?5?$AAt?$AAo?$AA?5?$AAg@|
  00088		 |$LN11@getPoolFro|
  00088	00000000	 DCD         |hCMEM|
  0008c		 |$M37206|

			 ENDP  ; |getPoolFromBlock|

	EXPORT	|CMEM_getPool|

  00000			 AREA	 |.pdata|, PDATA
|$T37221| DCD	|$LN5@CMEM_getPo|
	DCD	0x40000601
; Function compile flags: /Ogspy

  00000			 AREA	 |.text|, CODE, ARM

  00000		 |CMEM_getPool| PROC

; 360  : {

  00000		 |$LN5@CMEM_getPo|
  00000	e52de004	 str         lr, [sp, #-4]!
  00004		 |$M37218|
  00004	e1a01000	 mov         r1, r0

; 361  :     __D("getPool: entered w/ size %#x\n", size);
; 362  : 
; 363  :     return getPoolFromBlock(0, size);

  00008	e3a00000	 mov         r0, #0
  0000c	eb000000	 bl          getPoolFromBlock

; 364  : }

  00010	e49de004	 ldr         lr, [sp], #4
  00014	e12fff1e	 bx          lr
  00018		 |$M37219|

			 ENDP  ; |CMEM_getPool|

	EXPORT	|CMEM_getPool2|

  00000			 AREA	 |.pdata|, PDATA
|$T37232| DCD	|$LN5@CMEM_getPo@2|
	DCD	0x40000401
; Function compile flags: /Ogspy

  00000			 AREA	 |.text|, CODE, ARM

  00000		 |CMEM_getPool2| PROC

; 367  : {

  00000		 |$LN5@CMEM_getPo@2|
  00000	e52de004	 str         lr, [sp, #-4]!
  00004		 |$M37229|

; 368  :     __D("getPool2: entered w/ size %#x\n", size);
; 369  : 
; 370  :     return getPoolFromBlock(blockid, size);

  00004	eb000000	 bl          getPoolFromBlock

; 371  : }

  00008	e49de004	 ldr         lr, [sp], #4
  0000c	e12fff1e	 bx          lr
  00010		 |$M37230|

			 ENDP  ; |CMEM_getPool2|

	EXPORT	|CMEM_getPhys|
	EXPORT	|??_C@_1HI@OPGJOMO@?$AAC?$AAM?$AAE?$AAM?$AA?5?$AAE?$AAr?$AAr?$AAo?$AAr?$AA?3?$AA?5?$AAg?$AAe?$AAt?$AAP?$AAh?$AAy?$AAs?$AA?3?$AA?5?$AAF?$AAa?$AAi?$AAl?$AAe?$AAd?$AA?5?$AAt?$AAo?$AA?5?$AAg@| [ DATA ] ; `string'

  00000			 AREA	 |.pdata|, PDATA
|$T37243| DCD	|$LN8@CMEM_getPh|
	DCD	0x40002102

  00000			 AREA	 |.rdata|, DATA, READONLY
|??_C@_1HI@OPGJOMO@?$AAC?$AAM?$AAE?$AAM?$AA?5?$AAE?$AAr?$AAr?$AAo?$AAr?$AA?3?$AA?5?$AAg?$AAe?$AAt?$AAP?$AAh?$AAy?$AAs?$AA?3?$AA?5?$AAF?$AAa?$AAi?$AAl?$AAe?$AAd?$AA?5?$AAt?$AAo?$AA?5?$AAg@| DCB "C"
	DCB	0x0, "M", 0x0, "E", 0x0, "M", 0x0, " ", 0x0, "E", 0x0, "r"
	DCB	0x0, "r", 0x0, "o", 0x0, "r", 0x0, ":", 0x0, " ", 0x0, "g"
	DCB	0x0, "e", 0x0, "t", 0x0, "P", 0x0, "h", 0x0, "y", 0x0, "s"
	DCB	0x0, ":", 0x0, " ", 0x0, "F", 0x0, "a", 0x0, "i", 0x0, "l"
	DCB	0x0, "e", 0x0, "d", 0x0, " ", 0x0, "t", 0x0, "o", 0x0, " "
	DCB	0x0, "g", 0x0, "e", 0x0, "t", 0x0, " ", 0x0, "p", 0x0, "h"
	DCB	0x0, "y", 0x0, "s", 0x0, "i", 0x0, "c", 0x0, "a", 0x0, "l"
	DCB	0x0, " ", 0x0, "a", 0x0, "d", 0x0, "d", 0x0, "r", 0x0, "e"
	DCB	0x0, "s", 0x0, "s", 0x0, " ", 0x0, "o", 0x0, "f", 0x0, " "
	DCB	0x0, "%", 0x0, "#", 0x0, "x", 0x0, 0xa, 0x0, 0x0, 0x0 ; `string'
; Function compile flags: /Ogspy

  00000			 AREA	 |.text|, CODE, ARM

  00000		 |CMEM_getPhys| PROC

; 374  : {

  00000		 |$LN8@CMEM_getPh|
  00000	e92d4030	 stmdb       sp!, {r4, r5, lr}
  00004	e24dd024	 sub         sp, sp, #0x24
  00008		 |$M37240|
  00008	e1a04000	 mov         r4, r0

; 375  :     union CMEM_AllocUnion getDesc;
; 376  :     DWORD dwBytesReturned;
; 377  : 
; 378  :     __D("getPhys: entered w/ addr %p\n", ptr);
; 379  : 
; 380  :     if (!validate_init()) {

  0000c	eb000000	 bl          validate_init
  00010	e3500000	 cmp         r0, #0

; 381  :         return 0;

  00014	03a00000	 moveq       r0, #0
  00018	0a000014	 beq         |$LN3@CMEM_getPh|

; 382  :     }
; 383  : 
; 384  :     getDesc.virtp = (unsigned long)ptr;
; 385  :     if (!DeviceIoControl(hCMEM, CMEM_IOCGETPHYS, &getDesc, sizeof(getDesc),
; 386  :                 NULL, 0, &dwBytesReturned, NULL)) {

  0001c	e59f305c	 ldr         r3, [pc, #0x5C]
  00020	e28de010	 add         lr, sp, #0x10
  00024	e3a05000	 mov         r5, #0
  00028	e5930000	 ldr         r0, [r3]
  0002c	e3a03010	 mov         r3, #0x10
  00030	e28d2014	 add         r2, sp, #0x14
  00034	e3a01004	 mov         r1, #4
  00038	e58d4014	 str         r4, [sp, #0x14]
  0003c	e58d500c	 str         r5, [sp, #0xC]
  00040	e58de008	 str         lr, [sp, #8]
  00044	e58d5004	 str         r5, [sp, #4]
  00048	e58d5000	 str         r5, [sp]
  0004c	eb000000	 bl          DeviceIoControl
  00050	e3500000	 cmp         r0, #0
  00054	1a000004	 bne         |$LN1@CMEM_getPh|

; 387  :         __E("getPhys: Failed to get physical address of %#x\n",
; 388  :                 (unsigned int) ptr);

  00058	e59f001c	 ldr         r0, [pc, #0x1C]
  0005c	e1a01004	 mov         r1, r4
  00060	eb000000	 bl          NKDbgPrintfW
  00064	e3a00000	 mov         r0, #0
  00068	ea000000	 b           |$LN3@CMEM_getPh|
  0006c		 |$LN1@CMEM_getPh|

; 389  :         return 0;
; 390  :     }
; 391  : 
; 392  :     __D("getPhys: exiting, ioctl CMEM_IOCGETPHYS succeeded, returning %#lx\n",
; 393  :             getDesc.physp);
; 394  : 
; 395  :     return getDesc.physp;

  0006c	e59d0014	 ldr         r0, [sp, #0x14]
  00070		 |$LN3@CMEM_getPh|

; 396  : }

  00070	e28dd024	 add         sp, sp, #0x24
  00074	e8bd4030	 ldmia       sp!, {r4, r5, lr}
  00078	e12fff1e	 bx          lr
  0007c		 |$LN9@CMEM_getPh|
  0007c		 |$LN10@CMEM_getPh|
  0007c	00000000	 DCD         |??_C@_1HI@OPGJOMO@?$AAC?$AAM?$AAE?$AAM?$AA?5?$AAE?$AAr?$AAr?$AAo?$AAr?$AA?3?$AA?5?$AAg?$AAe?$AAt?$AAP?$AAh?$AAy?$AAs?$AA?3?$AA?5?$AAF?$AAa?$AAi?$AAl?$AAe?$AAd?$AA?5?$AAt?$AAo?$AA?5?$AAg@|
  00080		 |$LN11@CMEM_getPh|
  00080	00000000	 DCD         |hCMEM|
  00084		 |$M37241|

			 ENDP  ; |CMEM_getPhys|

	EXPORT	|CMEM_cacheWb|
	EXPORT	|??_C@_1FM@CCMAPMKD@?$AAC?$AAM?$AAE?$AAM?$AA?5?$AAE?$AAr?$AAr?$AAo?$AAr?$AA?3?$AA?5?$AAc?$AAa?$AAc?$AAh?$AAe?$AAW?$AAb?$AA?3?$AA?5?$AAF?$AAa?$AAi?$AAl?$AAe?$AAd?$AA?5?$AAt?$AAo?$AA?5?$AAw@| [ DATA ] ; `string'

  00000			 AREA	 |.pdata|, PDATA
|$T37258| DCD	|$LN8@CMEM_cache|
	DCD	0x40002402

  00000			 AREA	 |.rdata|, DATA, READONLY
|??_C@_1FM@CCMAPMKD@?$AAC?$AAM?$AAE?$AAM?$AA?5?$AAE?$AAr?$AAr?$AAo?$AAr?$AA?3?$AA?5?$AAc?$AAa?$AAc?$AAh?$AAe?$AAW?$AAb?$AA?3?$AA?5?$AAF?$AAa?$AAi?$AAl?$AAe?$AAd?$AA?5?$AAt?$AAo?$AA?5?$AAw@| DCB "C"
	DCB	0x0, "M", 0x0, "E", 0x0, "M", 0x0, " ", 0x0, "E", 0x0, "r"
	DCB	0x0, "r", 0x0, "o", 0x0, "r", 0x0, ":", 0x0, " ", 0x0, "c"
	DCB	0x0, "a", 0x0, "c", 0x0, "h", 0x0, "e", 0x0, "W", 0x0, "b"
	DCB	0x0, ":", 0x0, " ", 0x0, "F", 0x0, "a", 0x0, "i", 0x0, "l"
	DCB	0x0, "e", 0x0, "d", 0x0, " ", 0x0, "t", 0x0, "o", 0x0, " "
	DCB	0x0, "w", 0x0, "r", 0x0, "i", 0x0, "t", 0x0, "e", 0x0, "b"
	DCB	0x0, "a", 0x0, "c", 0x0, "k", 0x0, " ", 0x0, "%", 0x0, "#"
	DCB	0x0, "x", 0x0, 0xa, 0x0, 0x0, 0x0	; `string'
; Function compile flags: /Ogspy

  00000			 AREA	 |.text|, CODE, ARM

  00000		 |CMEM_cacheWb| PROC

; 399  : {

  00000		 |$LN8@CMEM_cache|
  00000	e92d4070	 stmdb       sp!, {r4 - r6, lr}
  00004	e24dd01c	 sub         sp, sp, #0x1C
  00008		 |$M37255|
  00008	e1a05001	 mov         r5, r1
  0000c	e1a04000	 mov         r4, r0

; 400  :     struct block_struct block;
; 401  :     DWORD  dwBytesReturned;
; 402  : 
; 403  :     __D("cacheWb: entered w/ addr %p, size %#x\n", ptr, size);
; 404  : 
; 405  :     if (!validate_init()) {

  00010	eb000000	 bl          validate_init
  00014	e3500000	 cmp         r0, #0

; 406  :         return -1;

  00018	03e00000	 mvneq       r0, #0
  0001c	0a000016	 beq         |$LN3@CMEM_cache|

; 407  :     }
; 408  : 
; 409  :     block.addr = (unsigned long)ptr;
; 410  :     block.size = size;
; 411  :     if (!DeviceIoControl(hCMEM, CMEM_IOCCACHEWB, &block, sizeof(block), NULL,
; 412  :                 0, &dwBytesReturned, NULL)) {

  00020	e59f3064	 ldr         r3, [pc, #0x64]
  00024	e3a01c01	 mov         r1, #1, 24
  00028	e28de010	 add         lr, sp, #0x10
  0002c	e5930000	 ldr         r0, [r3]
  00030	e3a06000	 mov         r6, #0
  00034	e3a03008	 mov         r3, #8
  00038	e28d2014	 add         r2, sp, #0x14
  0003c	e3811007	 orr         r1, r1, #7
  00040	e58d4014	 str         r4, [sp, #0x14]
  00044	e58d5018	 str         r5, [sp, #0x18]
  00048	e58d600c	 str         r6, [sp, #0xC]
  0004c	e58de008	 str         lr, [sp, #8]
  00050	e58d6004	 str         r6, [sp, #4]
  00054	e58d6000	 str         r6, [sp]
  00058	eb000000	 bl          DeviceIoControl
  0005c	e3500000	 cmp         r0, #0
  00060	1a000004	 bne         |$LN1@CMEM_cache|

; 413  :         __E("cacheWb: Failed to writeback %#x\n", (unsigned int) ptr);

  00064	e59f001c	 ldr         r0, [pc, #0x1C]
  00068	e1a01004	 mov         r1, r4
  0006c	eb000000	 bl          NKDbgPrintfW
  00070	e3e00000	 mvn         r0, #0
  00074	ea000000	 b           |$LN3@CMEM_cache|
  00078		 |$LN1@CMEM_cache|

; 414  : 
; 415  :         return -1;
; 416  :     }
; 417  : 
; 418  :     __D("cacheWb: exiting, ioctl CMEM_IOCCACHEWB succeeded, returning 0\n");
; 419  : 
; 420  :     return 0;

  00078	e3a00000	 mov         r0, #0
  0007c		 |$LN3@CMEM_cache|

; 421  : }

  0007c	e28dd01c	 add         sp, sp, #0x1C
  00080	e8bd4070	 ldmia       sp!, {r4 - r6, lr}
  00084	e12fff1e	 bx          lr
  00088		 |$LN9@CMEM_cache|
  00088		 |$LN10@CMEM_cache|
  00088	00000000	 DCD         |??_C@_1FM@CCMAPMKD@?$AAC?$AAM?$AAE?$AAM?$AA?5?$AAE?$AAr?$AAr?$AAo?$AAr?$AA?3?$AA?5?$AAc?$AAa?$AAc?$AAh?$AAe?$AAW?$AAb?$AA?3?$AA?5?$AAF?$AAa?$AAi?$AAl?$AAe?$AAd?$AA?5?$AAt?$AAo?$AA?5?$AAw@|
  0008c		 |$LN11@CMEM_cache|
  0008c	00000000	 DCD         |hCMEM|
  00090		 |$M37256|

			 ENDP  ; |CMEM_cacheWb|

	EXPORT	|CMEM_cacheWbInv|
	EXPORT	|??_C@_1HM@PFJPPOEN@?$AAC?$AAM?$AAE?$AAM?$AA?5?$AAE?$AAr?$AAr?$AAo?$AAr?$AA?3?$AA?5?$AAc?$AAa?$AAc?$AAh?$AAe?$AAW?$AAb?$AAI?$AAn?$AAv?$AA?3?$AA?5?$AAF?$AAa?$AAi?$AAl?$AAe?$AAd?$AA?5?$AAt@| [ DATA ] ; `string'

  00000			 AREA	 |.pdata|, PDATA
|$T37273| DCD	|$LN8@CMEM_cache@2|
	DCD	0x40002402

  00000			 AREA	 |.rdata|, DATA, READONLY
|??_C@_1HM@PFJPPOEN@?$AAC?$AAM?$AAE?$AAM?$AA?5?$AAE?$AAr?$AAr?$AAo?$AAr?$AA?3?$AA?5?$AAc?$AAa?$AAc?$AAh?$AAe?$AAW?$AAb?$AAI?$AAn?$AAv?$AA?3?$AA?5?$AAF?$AAa?$AAi?$AAl?$AAe?$AAd?$AA?5?$AAt@| DCB "C"
	DCB	0x0, "M", 0x0, "E", 0x0, "M", 0x0, " ", 0x0, "E", 0x0, "r"
	DCB	0x0, "r", 0x0, "o", 0x0, "r", 0x0, ":", 0x0, " ", 0x0, "c"
	DCB	0x0, "a", 0x0, "c", 0x0, "h", 0x0, "e", 0x0, "W", 0x0, "b"
	DCB	0x0, "I", 0x0, "n", 0x0, "v", 0x0, ":", 0x0, " ", 0x0, "F"
	DCB	0x0, "a", 0x0, "i", 0x0, "l", 0x0, "e", 0x0, "d", 0x0, " "
	DCB	0x0, "t", 0x0, "o", 0x0, " ", 0x0, "w", 0x0, "r", 0x0, "i"
	DCB	0x0, "t", 0x0, "e", 0x0, "b", 0x0, "a", 0x0, "c", 0x0, "k"
	DCB	0x0, " ", 0x0, "&", 0x0, " ", 0x0, "i", 0x0, "n", 0x0, "v"
	DCB	0x0, "a", 0x0, "l", 0x0, "i", 0x0, "d", 0x0, "a", 0x0, "t"
	DCB	0x0, "e", 0x0, " ", 0x0, "%", 0x0, "#", 0x0, "x", 0x0, 0xa
	DCB	0x0, 0x0, 0x0				; `string'
; Function compile flags: /Ogspy

  00000			 AREA	 |.text|, CODE, ARM

  00000		 |CMEM_cacheWbInv| PROC

; 424  : {

  00000		 |$LN8@CMEM_cache@2|
  00000	e92d4070	 stmdb       sp!, {r4 - r6, lr}
  00004	e24dd01c	 sub         sp, sp, #0x1C
  00008		 |$M37270|
  00008	e1a05001	 mov         r5, r1
  0000c	e1a04000	 mov         r4, r0

; 425  :     struct block_struct block;
; 426  :     DWORD dwBytesReturned;
; 427  : 
; 428  :     __D("cacheWbInv: entered w/ addr %p, size %#x\n", ptr, size);
; 429  : 
; 430  :     if (!validate_init()) {

  00010	eb000000	 bl          validate_init
  00014	e3500000	 cmp         r0, #0

; 431  :         return -1;

  00018	03e00000	 mvneq       r0, #0
  0001c	0a000016	 beq         |$LN3@CMEM_cache@2|

; 432  :     }
; 433  : 
; 434  :     block.addr = (unsigned long)ptr;
; 435  :     block.size = size;
; 436  :     if (!DeviceIoControl(hCMEM, CMEM_IOCCACHEWBINV, &block, sizeof(block),
; 437  :                 NULL, 0, &dwBytesReturned, NULL)) {

  00020	e59f3064	 ldr         r3, [pc, #0x64]
  00024	e3a01c03	 mov         r1, #3, 24
  00028	e28de010	 add         lr, sp, #0x10
  0002c	e5930000	 ldr         r0, [r3]
  00030	e3a06000	 mov         r6, #0
  00034	e3a03008	 mov         r3, #8
  00038	e28d2014	 add         r2, sp, #0x14
  0003c	e3811007	 orr         r1, r1, #7
  00040	e58d4014	 str         r4, [sp, #0x14]
  00044	e58d5018	 str         r5, [sp, #0x18]
  00048	e58d600c	 str         r6, [sp, #0xC]
  0004c	e58de008	 str         lr, [sp, #8]
  00050	e58d6004	 str         r6, [sp, #4]
  00054	e58d6000	 str         r6, [sp]
  00058	eb000000	 bl          DeviceIoControl
  0005c	e3500000	 cmp         r0, #0
  00060	1a000004	 bne         |$LN1@CMEM_cache@2|

; 438  :         __E("cacheWbInv: Failed to writeback & invalidate %#x\n",
; 439  :                 (unsigned int) ptr);

  00064	e59f001c	 ldr         r0, [pc, #0x1C]
  00068	e1a01004	 mov         r1, r4
  0006c	eb000000	 bl          NKDbgPrintfW
  00070	e3e00000	 mvn         r0, #0
  00074	ea000000	 b           |$LN3@CMEM_cache@2|
  00078		 |$LN1@CMEM_cache@2|

; 440  : 
; 441  :         return -1;
; 442  :     }
; 443  : 
; 444  :     __D("cacheWbInv: exiting, ioctl CMEM_IOCCACHEWBINV succeeded, returning 0\n");
; 445  : 
; 446  :     return 0;

  00078	e3a00000	 mov         r0, #0
  0007c		 |$LN3@CMEM_cache@2|

; 447  : }

  0007c	e28dd01c	 add         sp, sp, #0x1C
  00080	e8bd4070	 ldmia       sp!, {r4 - r6, lr}
  00084	e12fff1e	 bx          lr
  00088		 |$LN9@CMEM_cache@2|
  00088		 |$LN10@CMEM_cache@2|
  00088	00000000	 DCD         |??_C@_1HM@PFJPPOEN@?$AAC?$AAM?$AAE?$AAM?$AA?5?$AAE?$AAr?$AAr?$AAo?$AAr?$AA?3?$AA?5?$AAc?$AAa?$AAc?$AAh?$AAe?$AAW?$AAb?$AAI?$AAn?$AAv?$AA?3?$AA?5?$AAF?$AAa?$AAi?$AAl?$AAe?$AAd?$AA?5?$AAt@|
  0008c		 |$LN11@CMEM_cache@2|
  0008c	00000000	 DCD         |hCMEM|
  00090		 |$M37271|

			 ENDP  ; |CMEM_cacheWbInv|

	EXPORT	|CMEM_cacheInv|
	EXPORT	|??_C@_1GA@FIBMONO@?$AAC?$AAM?$AAE?$AAM?$AA?5?$AAE?$AAr?$AAr?$AAo?$AAr?$AA?3?$AA?5?$AAc?$AAa?$AAc?$AAh?$AAe?$AAI?$AAn?$AAv?$AA?3?$AA?5?$AAF?$AAa?$AAi?$AAl?$AAe?$AAd?$AA?5?$AAt?$AAo?$AA?5@| [ DATA ] ; `string'

  00000			 AREA	 |.pdata|, PDATA
|$T37288| DCD	|$LN8@CMEM_cache@3|
	DCD	0x40002402

  00000			 AREA	 |.rdata|, DATA, READONLY
|??_C@_1GA@FIBMONO@?$AAC?$AAM?$AAE?$AAM?$AA?5?$AAE?$AAr?$AAr?$AAo?$AAr?$AA?3?$AA?5?$AAc?$AAa?$AAc?$AAh?$AAe?$AAI?$AAn?$AAv?$AA?3?$AA?5?$AAF?$AAa?$AAi?$AAl?$AAe?$AAd?$AA?5?$AAt?$AAo?$AA?5@| DCB "C"
	DCB	0x0, "M", 0x0, "E", 0x0, "M", 0x0, " ", 0x0, "E", 0x0, "r"
	DCB	0x0, "r", 0x0, "o", 0x0, "r", 0x0, ":", 0x0, " ", 0x0, "c"
	DCB	0x0, "a", 0x0, "c", 0x0, "h", 0x0, "e", 0x0, "I", 0x0, "n"
	DCB	0x0, "v", 0x0, ":", 0x0, " ", 0x0, "F", 0x0, "a", 0x0, "i"
	DCB	0x0, "l", 0x0, "e", 0x0, "d", 0x0, " ", 0x0, "t", 0x0, "o"
	DCB	0x0, " ", 0x0, "i", 0x0, "n", 0x0, "v", 0x0, "a", 0x0, "l"
	DCB	0x0, "i", 0x0, "d", 0x0, "a", 0x0, "t", 0x0, "e", 0x0, " "
	DCB	0x0, "%", 0x0, "#", 0x0, "x", 0x0, 0xa, 0x0, 0x0, 0x0 ; `string'
; Function compile flags: /Ogspy

  00000			 AREA	 |.text|, CODE, ARM

  00000		 |CMEM_cacheInv| PROC

; 450  : {

  00000		 |$LN8@CMEM_cache@3|
  00000	e92d4070	 stmdb       sp!, {r4 - r6, lr}
  00004	e24dd01c	 sub         sp, sp, #0x1C
  00008		 |$M37285|
  00008	e1a05001	 mov         r5, r1
  0000c	e1a04000	 mov         r4, r0

; 451  :     struct block_struct block;
; 452  :     DWORD  dwBytesReturned;
; 453  : 
; 454  :     __D("cacheInv: entered w/ addr %p, size %#x\n", ptr, size);
; 455  : 
; 456  :     if (!validate_init()) {

  00010	eb000000	 bl          validate_init
  00014	e3500000	 cmp         r0, #0

; 457  :         return -1;

  00018	03e00000	 mvneq       r0, #0
  0001c	0a000016	 beq         |$LN3@CMEM_cache@3|

; 458  :     }
; 459  : 
; 460  :     block.addr = (unsigned long)ptr;
; 461  :     block.size = size;
; 462  :     if (!DeviceIoControl(hCMEM, CMEM_IOCCACHEINV, &block, sizeof(block), NULL,
; 463  :                 0, &dwBytesReturned, NULL)) {

  00020	e59f3064	 ldr         r3, [pc, #0x64]
  00024	e3a01c02	 mov         r1, #2, 24
  00028	e28de010	 add         lr, sp, #0x10
  0002c	e5930000	 ldr         r0, [r3]
  00030	e3a06000	 mov         r6, #0
  00034	e3a03008	 mov         r3, #8
  00038	e28d2014	 add         r2, sp, #0x14
  0003c	e3811007	 orr         r1, r1, #7
  00040	e58d4014	 str         r4, [sp, #0x14]
  00044	e58d5018	 str         r5, [sp, #0x18]
  00048	e58d600c	 str         r6, [sp, #0xC]
  0004c	e58de008	 str         lr, [sp, #8]
  00050	e58d6004	 str         r6, [sp, #4]
  00054	e58d6000	 str         r6, [sp]
  00058	eb000000	 bl          DeviceIoControl
  0005c	e3500000	 cmp         r0, #0
  00060	1a000004	 bne         |$LN1@CMEM_cache@3|

; 464  :         __E("cacheInv: Failed to invalidate %#x\n", (unsigned int) ptr);

  00064	e59f001c	 ldr         r0, [pc, #0x1C]
  00068	e1a01004	 mov         r1, r4
  0006c	eb000000	 bl          NKDbgPrintfW
  00070	e3e00000	 mvn         r0, #0
  00074	ea000000	 b           |$LN3@CMEM_cache@3|
  00078		 |$LN1@CMEM_cache@3|

; 465  : 
; 466  :         return -1;
; 467  :     }
; 468  : 
; 469  :     __D("cacheInv: exiting, ioctl CMEM_IOCCACHEINV succeeded, returning 0\n");
; 470  : 
; 471  :     return 0;

  00078	e3a00000	 mov         r0, #0
  0007c		 |$LN3@CMEM_cache@3|

; 472  : }

  0007c	e28dd01c	 add         sp, sp, #0x1C
  00080	e8bd4070	 ldmia       sp!, {r4 - r6, lr}
  00084	e12fff1e	 bx          lr
  00088		 |$LN9@CMEM_cache@3|
  00088		 |$LN10@CMEM_cache@3|
  00088	00000000	 DCD         |??_C@_1GA@FIBMONO@?$AAC?$AAM?$AAE?$AAM?$AA?5?$AAE?$AAr?$AAr?$AAo?$AAr?$AA?3?$AA?5?$AAc?$AAa?$AAc?$AAh?$AAe?$AAI?$AAn?$AAv?$AA?3?$AA?5?$AAF?$AAa?$AAi?$AAl?$AAe?$AAd?$AA?5?$AAt?$AAo?$AA?5@|
  0008c		 |$LN11@CMEM_cache@3|
  0008c	00000000	 DCD         |hCMEM|
  00090		 |$M37286|

			 ENDP  ; |CMEM_cacheInv|

	EXPORT	|CMEM_getVersion|
	EXPORT	|??_C@_1IA@CHBIPLAM@?$AAC?$AAM?$AAE?$AAM?$AA?5?$AAE?$AAr?$AAr?$AAo?$AAr?$AA?3?$AA?5?$AAg?$AAe?$AAt?$AAV?$AAe?$AAr?$AAs?$AAi?$AAo?$AAn?$AA?3?$AA?5?$AAF?$AAa?$AAi?$AAl?$AAe?$AAd?$AA?5?$AAt@| [ DATA ] ; `string'

  00000			 AREA	 |.pdata|, PDATA
|$T37301| DCD	|$LN8@CMEM_getVe|
	DCD	0x40001e02

  00000			 AREA	 |.rdata|, DATA, READONLY
|??_C@_1IA@CHBIPLAM@?$AAC?$AAM?$AAE?$AAM?$AA?5?$AAE?$AAr?$AAr?$AAo?$AAr?$AA?3?$AA?5?$AAg?$AAe?$AAt?$AAV?$AAe?$AAr?$AAs?$AAi?$AAo?$AAn?$AA?3?$AA?5?$AAF?$AAa?$AAi?$AAl?$AAe?$AAd?$AA?5?$AAt@| DCB "C"
	DCB	0x0, "M", 0x0, "E", 0x0, "M", 0x0, " ", 0x0, "E", 0x0, "r"
	DCB	0x0, "r", 0x0, "o", 0x0, "r", 0x0, ":", 0x0, " ", 0x0, "g"
	DCB	0x0, "e", 0x0, "t", 0x0, "V", 0x0, "e", 0x0, "r", 0x0, "s"
	DCB	0x0, "i", 0x0, "o", 0x0, "n", 0x0, ":", 0x0, " ", 0x0, "F"
	DCB	0x0, "a", 0x0, "i", 0x0, "l", 0x0, "e", 0x0, "d", 0x0, " "
	DCB	0x0, "t", 0x0, "o", 0x0, " ", 0x0, "r", 0x0, "e", 0x0, "t"
	DCB	0x0, "r", 0x0, "i", 0x0, "e", 0x0, "v", 0x0, "e", 0x0, " "
	DCB	0x0, "v", 0x0, "e", 0x0, "r", 0x0, "s", 0x0, "i", 0x0, "o"
	DCB	0x0, "n", 0x0, " ", 0x0, "f", 0x0, "r", 0x0, "o", 0x0, "m"
	DCB	0x0, " ", 0x0, "d", 0x0, "r", 0x0, "i", 0x0, "v", 0x0, "e"
	DCB	0x0, "r", 0x0, 0xa, 0x0, 0x0, 0x0	; `string'
; Function compile flags: /Ogspy

  00000			 AREA	 |.text|, CODE, ARM

  00000		 |CMEM_getVersion| PROC

; 475  : {

  00000		 |$LN8@CMEM_getVe|
  00000	e92d4010	 stmdb       sp!, {r4, lr}
  00004	e24dd018	 sub         sp, sp, #0x18
  00008		 |$M37298|

; 476  :     unsigned int version;
; 477  :     DWORD dwBytesReturned;
; 478  : 
; 479  :     __D("getVersion: entered\n");
; 480  : 
; 481  :     if (!validate_init()) {

  00008	eb000000	 bl          validate_init
  0000c	e3500000	 cmp         r0, #0

; 482  :         return -1;

  00010	03e00000	 mvneq       r0, #0
  00014	0a000012	 beq         |$LN3@CMEM_getVe|

; 483  :     }
; 484  : 
; 485  :     if (!DeviceIoControl(hCMEM, CMEM_IOCGETVERSION, &version, sizeof(version),
; 486  :                 NULL, 0, &dwBytesReturned, NULL)) {

  00018	e59f3054	 ldr         r3, [pc, #0x54]
  0001c	e28de014	 add         lr, sp, #0x14
  00020	e3a04000	 mov         r4, #0
  00024	e5930000	 ldr         r0, [r3]
  00028	e3a03004	 mov         r3, #4
  0002c	e28d2010	 add         r2, sp, #0x10
  00030	e3a01008	 mov         r1, #8
  00034	e58d400c	 str         r4, [sp, #0xC]
  00038	e58de008	 str         lr, [sp, #8]
  0003c	e58d4004	 str         r4, [sp, #4]
  00040	e58d4000	 str         r4, [sp]
  00044	eb000000	 bl          DeviceIoControl
  00048	e3500000	 cmp         r0, #0
  0004c	1a000003	 bne         |$LN1@CMEM_getVe|

; 487  :         __E("getVersion: Failed to retrieve version from driver\n");

  00050	e59f0018	 ldr         r0, [pc, #0x18]
  00054	eb000000	 bl          NKDbgPrintfW
  00058	e3e00000	 mvn         r0, #0
  0005c	ea000000	 b           |$LN3@CMEM_getVe|
  00060		 |$LN1@CMEM_getVe|

; 488  : 
; 489  :         return -1;
; 490  :     }
; 491  : 
; 492  :     __D("getVersion: exiting, ioctl CMEM_IOCGETVERSION returned %#x\n",
; 493  :             version);
; 494  : 
; 495  :     return version;

  00060	e59d0010	 ldr         r0, [sp, #0x10]
  00064		 |$LN3@CMEM_getVe|

; 496  : }

  00064	e28dd018	 add         sp, sp, #0x18
  00068	e8bd4010	 ldmia       sp!, {r4, lr}
  0006c	e12fff1e	 bx          lr
  00070		 |$LN9@CMEM_getVe|
  00070		 |$LN10@CMEM_getVe|
  00070	00000000	 DCD         |??_C@_1IA@CHBIPLAM@?$AAC?$AAM?$AAE?$AAM?$AA?5?$AAE?$AAr?$AAr?$AAo?$AAr?$AA?3?$AA?5?$AAg?$AAe?$AAt?$AAV?$AAe?$AAr?$AAs?$AAi?$AAo?$AAn?$AA?3?$AA?5?$AAF?$AAa?$AAi?$AAl?$AAe?$AAd?$AA?5?$AAt@|
  00074		 |$LN11@CMEM_getVe|
  00074	00000000	 DCD         |hCMEM|
  00078		 |$M37299|

			 ENDP  ; |CMEM_getVersion|

	EXPORT	|??_C@_1IE@PAKGNLMK@?$AAC?$AAM?$AAE?$AAM?$AA?5?$AAE?$AAr?$AAr?$AAo?$AAr?$AA?3?$AA?5?$AAg?$AAe?$AAt?$AAB?$AAl?$AAo?$AAc?$AAk?$AA?3?$AA?5?$AAF?$AAa?$AAi?$AAl?$AAe?$AAd?$AA?5?$AAt?$AAo?$AA?5@| [ DATA ] ; `string'
	EXPORT	|??_C@_1EI@EKMONBBA@?$AAC?$AAM?$AAE?$AAM?$AA?5?$AAE?$AAr?$AAr?$AAo?$AAr?$AA?3?$AA?5?$AA?5?$AA?5?$AAb?$AAl?$AAo?$AAc?$AAk?$AA?5?$AA?$CF?$AAd?$AA?5?$AAf?$AAr?$AAo?$AAm?$AA?5?$AAd?$AAr?$AAi?$AAv@| [ DATA ] ; `string'

  00000			 AREA	 |.pdata|, PDATA
|$T37317| DCD	|$LN8@getBlock|
	DCD	0x40002a02

  00000			 AREA	 |.rdata|, DATA, READONLY
|??_C@_1IE@PAKGNLMK@?$AAC?$AAM?$AAE?$AAM?$AA?5?$AAE?$AAr?$AAr?$AAo?$AAr?$AA?3?$AA?5?$AAg?$AAe?$AAt?$AAB?$AAl?$AAo?$AAc?$AAk?$AA?3?$AA?5?$AAF?$AAa?$AAi?$AAl?$AAe?$AAd?$AA?5?$AAt?$AAo?$AA?5@| DCB "C"
	DCB	0x0, "M", 0x0, "E", 0x0, "M", 0x0, " ", 0x0, "E", 0x0, "r"
	DCB	0x0, "r", 0x0, "o", 0x0, "r", 0x0, ":", 0x0, " ", 0x0, "g"
	DCB	0x0, "e", 0x0, "t", 0x0, "B", 0x0, "l", 0x0, "o", 0x0, "c"
	DCB	0x0, "k", 0x0, ":", 0x0, " ", 0x0, "F", 0x0, "a", 0x0, "i"
	DCB	0x0, "l", 0x0, "e", 0x0, "d", 0x0, " ", 0x0, "t", 0x0, "o"
	DCB	0x0, " ", 0x0, "r", 0x0, "e", 0x0, "t", 0x0, "r", 0x0, "i"
	DCB	0x0, "e", 0x0, "v", 0x0, "e", 0x0, " ", 0x0, "m", 0x0, "e"
	DCB	0x0, "m", 0x0, "o", 0x0, "r", 0x0, "y", 0x0, " ", 0x0, "b"
	DCB	0x0, "l", 0x0, "o", 0x0, "c", 0x0, "k", 0x0, " ", 0x0, "b"
	DCB	0x0, "o", 0x0, "u", 0x0, "n", 0x0, "d", 0x0, "s", 0x0, " "
	DCB	0x0, "f", 0x0, "o", 0x0, "r", 0x0, 0xa, 0x0, 0x0, 0x0 ; `string'

  00000			 AREA	 |.rdata|, DATA, READONLY
|??_C@_1EI@EKMONBBA@?$AAC?$AAM?$AAE?$AAM?$AA?5?$AAE?$AAr?$AAr?$AAo?$AAr?$AA?3?$AA?5?$AA?5?$AA?5?$AAb?$AAl?$AAo?$AAc?$AAk?$AA?5?$AA?$CF?$AAd?$AA?5?$AAf?$AAr?$AAo?$AAm?$AA?5?$AAd?$AAr?$AAi?$AAv@| DCB "C"
	DCB	0x0, "M", 0x0, "E", 0x0, "M", 0x0, " ", 0x0, "E", 0x0, "r"
	DCB	0x0, "r", 0x0, "o", 0x0, "r", 0x0, ":", 0x0, " ", 0x0, " "
	DCB	0x0, " ", 0x0, "b", 0x0, "l", 0x0, "o", 0x0, "c", 0x0, "k"
	DCB	0x0, " ", 0x0, "%", 0x0, "d", 0x0, " ", 0x0, "f", 0x0, "r"
	DCB	0x0, "o", 0x0, "m", 0x0, " ", 0x0, "d", 0x0, "r", 0x0, "i"
	DCB	0x0, "v", 0x0, "e", 0x0, "r", 0x0, 0xa, 0x0, 0x0, 0x0 ; `string'
; Function compile flags: /Ogspy

  00000			 AREA	 |.text|, CODE, ARM

  00000		 |getBlock| PROC

; 499  : {

  00000		 |$LN8@getBlock|
  00000	e92d40f0	 stmdb       sp!, {r4 - r7, lr}
  00004	e24dd024	 sub         sp, sp, #0x24
  00008		 |$M37314|
  00008	e1a05002	 mov         r5, r2
  0000c	e1a06001	 mov         r6, r1
  00010	e1a04000	 mov         r4, r0

; 500  :     union CMEM_AllocUnion block;
; 501  :     DWORD dwBytesReturned;
; 502  : 
; 503  :     __D("getBlock: entered\n");
; 504  : 
; 505  :     if (!validate_init()) {

  00014	eb000000	 bl          validate_init
  00018	e3500000	 cmp         r0, #0

; 506  :         return -1;

  0001c	03e00000	 mvneq       r0, #0
  00020	0a00001a	 beq         |$LN3@getBlock|

; 507  :     }
; 508  : 
; 509  :     block.blockid = blockid;
; 510  :     if (!DeviceIoControl(hCMEM, CMEM_IOCGETBLOCK, &block, sizeof(block), NULL,
; 511  :                 0, &dwBytesReturned, NULL)) {

  00024	e59f3078	 ldr         r3, [pc, #0x78]
  00028	e28de010	 add         lr, sp, #0x10
  0002c	e3a07000	 mov         r7, #0
  00030	e5930000	 ldr         r0, [r3]
  00034	e3a03010	 mov         r3, #0x10
  00038	e28d2014	 add         r2, sp, #0x14
  0003c	e3a01009	 mov         r1, #9
  00040	e58d4014	 str         r4, [sp, #0x14]
  00044	e58d700c	 str         r7, [sp, #0xC]
  00048	e58de008	 str         lr, [sp, #8]
  0004c	e58d7004	 str         r7, [sp, #4]
  00050	e58d7000	 str         r7, [sp]
  00054	eb000000	 bl          DeviceIoControl
  00058	e3500000	 cmp         r0, #0
  0005c	1a000006	 bne         |$LN1@getBlock|

; 512  :         __E("getBlock: Failed to retrieve memory block bounds for\n");

  00060	e59f0038	 ldr         r0, [pc, #0x38]
  00064	eb000000	 bl          NKDbgPrintfW

; 513  :         __E("  block %d from driver\n", blockid);

  00068	e59f002c	 ldr         r0, [pc, #0x2C]
  0006c	e1a01004	 mov         r1, r4
  00070	eb000000	 bl          NKDbgPrintfW
  00074	e3e00000	 mvn         r0, #0
  00078	ea000004	 b           |$LN3@getBlock|
  0007c		 |$LN1@getBlock|

; 514  : 
; 515  :         return -1;
; 516  :     }
; 517  : 
; 518  :     *pphys_base = block.get_block_outparams.physp;

  0007c	e59d3014	 ldr         r3, [sp, #0x14]

; 519  :     *psize = block.get_block_outparams.size;

  00080	e59d2018	 ldr         r2, [sp, #0x18]

; 520  : 
; 521  :     __D("getVersion: exiting, ioctl CMEM_IOCGETBLOCK succeeded,\n");
; 522  :     __D("  returning *pphys_base=0x%lx, *psize=0x%x\n", *pphys_base, *psize);
; 523  : 
; 524  :     return 0;

  00084	e3a00000	 mov         r0, #0
  00088	e5863000	 str         r3, [r6]
  0008c	e5852000	 str         r2, [r5]
  00090		 |$LN3@getBlock|

; 525  : }

  00090	e28dd024	 add         sp, sp, #0x24
  00094	e8bd40f0	 ldmia       sp!, {r4 - r7, lr}
  00098	e12fff1e	 bx          lr
  0009c		 |$LN9@getBlock|
  0009c		 |$LN10@getBlock|
  0009c	00000000	 DCD         |??_C@_1EI@EKMONBBA@?$AAC?$AAM?$AAE?$AAM?$AA?5?$AAE?$AAr?$AAr?$AAo?$AAr?$AA?3?$AA?5?$AA?5?$AA?5?$AAb?$AAl?$AAo?$AAc?$AAk?$AA?5?$AA?$CF?$AAd?$AA?5?$AAf?$AAr?$AAo?$AAm?$AA?5?$AAd?$AAr?$AAi?$AAv@|
  000a0		 |$LN11@getBlock|
  000a0	00000000	 DCD         |??_C@_1IE@PAKGNLMK@?$AAC?$AAM?$AAE?$AAM?$AA?5?$AAE?$AAr?$AAr?$AAo?$AAr?$AA?3?$AA?5?$AAg?$AAe?$AAt?$AAB?$AAl?$AAo?$AAc?$AAk?$AA?3?$AA?5?$AAF?$AAa?$AAi?$AAl?$AAe?$AAd?$AA?5?$AAt?$AAo?$AA?5@|
  000a4		 |$LN12@getBlock|
  000a4	00000000	 DCD         |hCMEM|
  000a8		 |$M37315|

			 ENDP  ; |getBlock|

	EXPORT	|CMEM_getBlock|

  00000			 AREA	 |.pdata|, PDATA
|$T37332| DCD	|$LN5@CMEM_getBl|
	DCD	0x40000701
; Function compile flags: /Ogspy

  00000			 AREA	 |.text|, CODE, ARM

  00000		 |CMEM_getBlock| PROC

; 528  : {

  00000		 |$LN5@CMEM_getBl|
  00000	e52de004	 str         lr, [sp, #-4]!
  00004		 |$M37329|
  00004	e1a02001	 mov         r2, r1
  00008	e1a01000	 mov         r1, r0

; 529  :     return getBlock(0, pphys_base, psize);

  0000c	e3a00000	 mov         r0, #0
  00010	eb000000	 bl          getBlock

; 530  : }

  00014	e49de004	 ldr         lr, [sp], #4
  00018	e12fff1e	 bx          lr
  0001c		 |$M37330|

			 ENDP  ; |CMEM_getBlock|

	EXPORT	|CMEM_getBlockAttrs|

  00000			 AREA	 |.pdata|, PDATA
|$T37343| DCD	|$LN5@CMEM_getBl@2|
	DCD	0x40000501
; Function compile flags: /Ogspy

  00000			 AREA	 |.text|, CODE, ARM

  00000		 |CMEM_getBlockAttrs| PROC

; 533  : {

  00000		 |$LN5@CMEM_getBl@2|
  00000	e52de004	 str         lr, [sp, #-4]!
  00004		 |$M37340|

; 534  :     return getBlock(blockid, &pattrs->phys_base, &pattrs->size);

  00004	e2812004	 add         r2, r1, #4
  00008	eb000000	 bl          getBlock

; 535  : }

  0000c	e49de004	 ldr         lr, [sp], #4
  00010	e12fff1e	 bx          lr
  00014		 |$M37341|

			 ENDP  ; |CMEM_getBlockAttrs|

	EXPORT	|CMEM_getNumBlocks|
	EXPORT	|??_C@_1IO@HPDOGHBG@?$AAC?$AAM?$AAE?$AAM?$AA?5?$AAE?$AAr?$AAr?$AAo?$AAr?$AA?3?$AA?5?$AAC?$AAM?$AAE?$AAM?$AA_?$AAg?$AAe?$AAt?$AAN?$AAu?$AAm?$AAB?$AAl?$AAo?$AAc?$AAk?$AAs?$AA?3?$AA?5?$AAF@| [ DATA ] ; `string'

  00000			 AREA	 |.pdata|, PDATA
|$T37354| DCD	|$LN8@CMEM_getNu|
	DCD	0x40002302

  00000			 AREA	 |.rdata|, DATA, READONLY
|??_C@_1IO@HPDOGHBG@?$AAC?$AAM?$AAE?$AAM?$AA?5?$AAE?$AAr?$AAr?$AAo?$AAr?$AA?3?$AA?5?$AAC?$AAM?$AAE?$AAM?$AA_?$AAg?$AAe?$AAt?$AAN?$AAu?$AAm?$AAB?$AAl?$AAo?$AAc?$AAk?$AAs?$AA?3?$AA?5?$AAF@| DCB "C"
	DCB	0x0, "M", 0x0, "E", 0x0, "M", 0x0, " ", 0x0, "E", 0x0, "r"
	DCB	0x0, "r", 0x0, "o", 0x0, "r", 0x0, ":", 0x0, " ", 0x0, "C"
	DCB	0x0, "M", 0x0, "E", 0x0, "M", 0x0, "_", 0x0, "g", 0x0, "e"
	DCB	0x0, "t", 0x0, "N", 0x0, "u", 0x0, "m", 0x0, "B", 0x0, "l"
	DCB	0x0, "o", 0x0, "c", 0x0, "k", 0x0, "s", 0x0, ":", 0x0, " "
	DCB	0x0, "F", 0x0, "a", 0x0, "i", 0x0, "l", 0x0, "e", 0x0, "d"
	DCB	0x0, " ", 0x0, "t", 0x0, "o", 0x0, " ", 0x0, "r", 0x0, "e"
	DCB	0x0, "t", 0x0, "r", 0x0, "i", 0x0, "e", 0x0, "v", 0x0, "e"
	DCB	0x0, " ", 0x0, "v", 0x0, "e", 0x0, "r", 0x0, "s", 0x0, "i"
	DCB	0x0, "o", 0x0, "n", 0x0, " ", 0x0, "f", 0x0, "r", 0x0, "o"
	DCB	0x0, "m", 0x0, " ", 0x0, "d", 0x0, "r", 0x0, "i", 0x0, "v"
	DCB	0x0, "e", 0x0, "r", 0x0, 0xa, 0x0, 0x0, 0x0 ; `string'
; Function compile flags: /Ogspy

  00000			 AREA	 |.text|, CODE, ARM

  00000		 |CMEM_getNumBlocks| PROC

; 538  : {

  00000		 |$LN8@CMEM_getNu|
  00000	e92d4030	 stmdb       sp!, {r4, r5, lr}
  00004	e24dd018	 sub         sp, sp, #0x18
  00008		 |$M37351|
  00008	e1a04000	 mov         r4, r0

; 539  :     unsigned int numBlocks = 0;

  0000c	e3a03000	 mov         r3, #0
  00010	e58d3010	 str         r3, [sp, #0x10]

; 540  :     DWORD dwBytesReturned;
; 541  : 
; 542  :     __D("CMEM_getNumBlocks: entered\n");
; 543  : 
; 544  :     if (!validate_init()) {

  00014	eb000000	 bl          validate_init
  00018	e3500000	 cmp         r0, #0

; 545  :         return (-1);

  0001c	03e00000	 mvneq       r0, #0
  00020	0a000014	 beq         |$LN3@CMEM_getNu|

; 546  :     }
; 547  : 
; 548  :     if (!DeviceIoControl(hCMEM, CMEM_IOCGETNUMBLOCKS, &numBlocks,
; 549  :                 sizeof(numBlocks), NULL, 0, &dwBytesReturned, NULL)) {

  00024	e59f305c	 ldr         r3, [pc, #0x5C]
  00028	e28de014	 add         lr, sp, #0x14
  0002c	e3a05000	 mov         r5, #0
  00030	e5930000	 ldr         r0, [r3]
  00034	e3a03004	 mov         r3, #4
  00038	e28d2010	 add         r2, sp, #0x10
  0003c	e3a0100b	 mov         r1, #0xB
  00040	e58d500c	 str         r5, [sp, #0xC]
  00044	e58de008	 str         lr, [sp, #8]
  00048	e58d5004	 str         r5, [sp, #4]
  0004c	e58d5000	 str         r5, [sp]
  00050	eb000000	 bl          DeviceIoControl
  00054	e3500000	 cmp         r0, #0
  00058	1a000003	 bne         |$LN1@CMEM_getNu|

; 550  :         __E("CMEM_getNumBlocks: Failed to retrieve version from driver\n");

  0005c	e59f0020	 ldr         r0, [pc, #0x20]
  00060	eb000000	 bl          NKDbgPrintfW
  00064	e3e00000	 mvn         r0, #0
  00068	ea000002	 b           |$LN3@CMEM_getNu|
  0006c		 |$LN1@CMEM_getNu|

; 551  : 
; 552  :         return (-1);
; 553  :     }
; 554  : 
; 555  :     __D("CMEM_getNumBlocks: ioctl CMEM_IOCGETNUMBLOCKS returned %#x\n",
; 556  :             numBlocks);
; 557  : 
; 558  :     *pnblocks = numBlocks;

  0006c	e59d3010	 ldr         r3, [sp, #0x10]

; 559  : 
; 560  :     return (0);

  00070	e3a00000	 mov         r0, #0
  00074	e5843000	 str         r3, [r4]
  00078		 |$LN3@CMEM_getNu|

; 561  : }

  00078	e28dd018	 add         sp, sp, #0x18
  0007c	e8bd4030	 ldmia       sp!, {r4, r5, lr}
  00080	e12fff1e	 bx          lr
  00084		 |$LN9@CMEM_getNu|
  00084		 |$LN10@CMEM_getNu|
  00084	00000000	 DCD         |??_C@_1IO@HPDOGHBG@?$AAC?$AAM?$AAE?$AAM?$AA?5?$AAE?$AAr?$AAr?$AAo?$AAr?$AA?3?$AA?5?$AAC?$AAM?$AAE?$AAM?$AA_?$AAg?$AAe?$AAt?$AAN?$AAu?$AAm?$AAB?$AAl?$AAo?$AAc?$AAk?$AAs?$AA?3?$AA?5?$AAF@|
  00088		 |$LN11@CMEM_getNu|
  00088	00000000	 DCD         |hCMEM|
  0008c		 |$M37352|

			 ENDP  ; |CMEM_getNumBlocks|

	EXPORT	|CMEM_exit|
	IMPORT	|CloseHandle|

  00000			 AREA	 |.pdata|, PDATA
|$T37367| DCD	|$LN6@CMEM_exit|
	DCD	0x40000e01
; Function compile flags: /Ogspy

  00000			 AREA	 |.text|, CODE, ARM

  00000		 |CMEM_exit| PROC

; 564  : {

  00000		 |$LN6@CMEM_exit|
  00000	e92d4010	 stmdb       sp!, {r4, lr}
  00004		 |$M37364|

; 565  :     BOOL result = FALSE;
; 566  : 
; 567  :     __D("exit: entered - ref_count %d, hCMEM %d\n", ref_count, hCMEM);
; 568  :     __D("exit: decrementing ref_count\n");
; 569  : 
; 570  :     ref_count--;

  00004	e59f4028	 ldr         r4, [pc, #0x28]
  00008	e3a00000	 mov         r0, #0
  0000c	e5943004	 ldr         r3, [r4, #4]
  00010	e2533001	 subs        r3, r3, #1
  00014	e5843004	 str         r3, [r4, #4]

; 571  :     if (ref_count == 0) {

  00018	1a000003	 bne         |$LN1@CMEM_exit|

; 572  :         result = CloseHandle(hCMEM);

  0001c	e5940000	 ldr         r0, [r4]
  00020	eb000000	 bl          CloseHandle

; 573  : 
; 574  :         __D("exit: ref_count == 0, closed CMEM (%s)\n", (!result) ? "failed"
; 575  :                 : "succeeded");
; 576  :         hCMEM = NULL;

  00024	e3a03000	 mov         r3, #0
  00028	e5843000	 str         r3, [r4]
  0002c		 |$LN1@CMEM_exit|

; 577  :     }
; 578  : 
; 579  :     __D("exit: exiting, returning %d\n", result);
; 580  : 
; 581  :     return (result);
; 582  : }

  0002c	e8bd4010	 ldmia       sp!, {r4, lr}
  00030	e12fff1e	 bx          lr
  00034		 |$LN7@CMEM_exit|
  00034		 |$LN8@CMEM_exit|
  00034	00000000	 DCD         |hCMEM|
  00038		 |$M37365|

			 ENDP  ; |CMEM_exit|

	EXPORT	|CMEM_mapAddress|
	EXPORT	|??_C@_1IC@LHPHMHFL@?$AAC?$AAM?$AAE?$AAM?$AA?5?$AAE?$AAr?$AAr?$AAo?$AAr?$AA?3?$AA?5?$AAC?$AAM?$AAE?$AAM?$AA_?$AAm?$AAa?$AAp?$AAA?$AAd?$AAd?$AAr?$AAe?$AAs?$AAs?$AA?3?$AA?5?$AAF?$AAa?$AAi@| [ DATA ] ; `string'
	EXPORT	|??_C@_1IA@HIPOJOLM@?$AAC?$AAM?$AAE?$AAM?$AA?5?$AAE?$AAr?$AAr?$AAo?$AAr?$AA?3?$AA?5?$AAC?$AAM?$AAE?$AAM?$AA_?$AAm?$AAa?$AAp?$AAA?$AAd?$AAd?$AAr?$AAe?$AAs?$AAs?$AA?3?$AA?5?$AAI?$AAn?$AAp@| [ DATA ] ; `string'
	EXPORT	|??_C@_1IC@JCADCFLC@?$AAC?$AAM?$AAE?$AAM?$AA?5?$AAE?$AAr?$AAr?$AAo?$AAr?$AA?3?$AA?5?$AAC?$AAM?$AAE?$AAM?$AA_?$AAm?$AAa?$AAp?$AAA?$AAd?$AAd?$AAr?$AAe?$AAs?$AAs?$AA?3?$AA?5?$AAI?$AAn?$AAp@| [ DATA ] ; `string'
; File c:\wince600\public\common\sdk\inc\kfuncs.h

  00000			 AREA	 |.pdata|, PDATA
|$T37385| DCD	|$LN12@CMEM_mapAd|
	DCD	0x40003902

  00000			 AREA	 |.rdata|, DATA, READONLY
|??_C@_1IC@LHPHMHFL@?$AAC?$AAM?$AAE?$AAM?$AA?5?$AAE?$AAr?$AAr?$AAo?$AAr?$AA?3?$AA?5?$AAC?$AAM?$AAE?$AAM?$AA_?$AAm?$AAa?$AAp?$AAA?$AAd?$AAd?$AAr?$AAe?$AAs?$AAs?$AA?3?$AA?5?$AAF?$AAa?$AAi@| DCB "C"
	DCB	0x0, "M", 0x0, "E", 0x0, "M", 0x0, " ", 0x0, "E", 0x0, "r"
	DCB	0x0, "r", 0x0, "o", 0x0, "r", 0x0, ":", 0x0, " ", 0x0, "C"
	DCB	0x0, "M", 0x0, "E", 0x0, "M", 0x0, "_", 0x0, "m", 0x0, "a"
	DCB	0x0, "p", 0x0, "A", 0x0, "d", 0x0, "d", 0x0, "r", 0x0, "e"
	DCB	0x0, "s", 0x0, "s", 0x0, ":", 0x0, " ", 0x0, "F", 0x0, "a"
	DCB	0x0, "i", 0x0, "l", 0x0, "e", 0x0, "d", 0x0, " ", 0x0, "t"
	DCB	0x0, "o", 0x0, " ", 0x0, "m", 0x0, "a", 0x0, "p", 0x0, " "
	DCB	0x0, "p", 0x0, "h", 0x0, "y", 0x0, "s", 0x0, "i", 0x0, "c"
	DCB	0x0, "a", 0x0, "l", 0x0, " ", 0x0, "a", 0x0, "d", 0x0, "d"
	DCB	0x0, "r", 0x0, "e", 0x0, "s", 0x0, "s", 0x0, " ", 0x0, "%"
	DCB	0x0, "#", 0x0, "x", 0x0, 0xa, 0x0, 0x0, 0x0 ; `string'

  00000			 AREA	 |.rdata|, DATA, READONLY
|??_C@_1IA@HIPOJOLM@?$AAC?$AAM?$AAE?$AAM?$AA?5?$AAE?$AAr?$AAr?$AAo?$AAr?$AA?3?$AA?5?$AAC?$AAM?$AAE?$AAM?$AA_?$AAm?$AAa?$AAp?$AAA?$AAd?$AAd?$AAr?$AAe?$AAs?$AAs?$AA?3?$AA?5?$AAI?$AAn?$AAp@| DCB "C"
	DCB	0x0, "M", 0x0, "E", 0x0, "M", 0x0, " ", 0x0, "E", 0x0, "r"
	DCB	0x0, "r", 0x0, "o", 0x0, "r", 0x0, ":", 0x0, " ", 0x0, "C"
	DCB	0x0, "M", 0x0, "E", 0x0, "M", 0x0, "_", 0x0, "m", 0x0, "a"
	DCB	0x0, "p", 0x0, "A", 0x0, "d", 0x0, "d", 0x0, "r", 0x0, "e"
	DCB	0x0, "s", 0x0, "s", 0x0, ":", 0x0, " ", 0x0, "I", 0x0, "n"
	DCB	0x0, "p", 0x0, "u", 0x0, "t", 0x0, " ", 0x0, "l", 0x0, "e"
	DCB	0x0, "n", 0x0, "g", 0x0, "t", 0x0, "h", 0x0, " ", 0x0, "%"
	DCB	0x0, "#", 0x0, "x", 0x0, " ", 0x0, "n", 0x0, "o", 0x0, "t"
	DCB	0x0, " ", 0x0, "p", 0x0, "a", 0x0, "g", 0x0, "e", 0x0, " "
	DCB	0x0, "a", 0x0, "l", 0x0, "i", 0x0, "g", 0x0, "n", 0x0, "e"
	DCB	0x0, "d", 0x0, 0xa, 0x0, 0x0, 0x0	; `string'

  00000			 AREA	 |.rdata|, DATA, READONLY
|??_C@_1IC@JCADCFLC@?$AAC?$AAM?$AAE?$AAM?$AA?5?$AAE?$AAr?$AAr?$AAo?$AAr?$AA?3?$AA?5?$AAC?$AAM?$AAE?$AAM?$AA_?$AAm?$AAa?$AAp?$AAA?$AAd?$AAd?$AAr?$AAe?$AAs?$AAs?$AA?3?$AA?5?$AAI?$AAn?$AAp@| DCB "C"
	DCB	0x0, "M", 0x0, "E", 0x0, "M", 0x0, " ", 0x0, "E", 0x0, "r"
	DCB	0x0, "r", 0x0, "o", 0x0, "r", 0x0, ":", 0x0, " ", 0x0, "C"
	DCB	0x0, "M", 0x0, "E", 0x0, "M", 0x0, "_", 0x0, "m", 0x0, "a"
	DCB	0x0, "p", 0x0, "A", 0x0, "d", 0x0, "d", 0x0, "r", 0x0, "e"
	DCB	0x0, "s", 0x0, "s", 0x0, ":", 0x0, " ", 0x0, "I", 0x0, "n"
	DCB	0x0, "p", 0x0, "u", 0x0, "t", 0x0, " ", 0x0, "a", 0x0, "d"
	DCB	0x0, "d", 0x0, "r", 0x0, "e", 0x0, "s", 0x0, "s", 0x0, " "
	DCB	0x0, "%", 0x0, "#", 0x0, "x", 0x0, " ", 0x0, "n", 0x0, "o"
	DCB	0x0, "t", 0x0, " ", 0x0, "p", 0x0, "a", 0x0, "g", 0x0, "e"
	DCB	0x0, " ", 0x0, "a", 0x0, "l", 0x0, "i", 0x0, "g", 0x0, "n"
	DCB	0x0, "e", 0x0, "d", 0x0, 0xa, 0x0, 0x0, 0x0 ; `string'
; Function compile flags: /Ogspy
; File i:\library\trees\winceutils\winceutils-b01x\src\ti\sdo\winceutils\cmem\user\cmem.c

  00000			 AREA	 |.text|, CODE, ARM

  00000		 |CMEM_mapAddress| PROC

; 589  : {

  00000		 |$LN12@CMEM_mapAd|
  00000	e92d40f0	 stmdb       sp!, {r4 - r7, lr}
  00004	e24dd024	 sub         sp, sp, #0x24
  00008		 |$M37382|
  00008	e1a07003	 mov         r7, r3
  0000c	e1a04001	 mov         r4, r1
  00010	e1a05000	 mov         r5, r0

; 590  :     union CMEM_AllocUnion mapDesc;
; 591  :     DWORD   dwBytesReturned;
; 592  : 
; 593  :     __D("CMEM_mapAddress: entered, addr %p, length %#x, flags %#x\n",
; 594  :             physAddr, length, flags);
; 595  : 
; 596  :     if (!validate_init()) {

  00014	eb000000	 bl          validate_init
  00018	e3500000	 cmp         r0, #0

; 597  :         return (-1);

  0001c	03e00000	 mvneq       r0, #0
  00020	0a000028	 beq         |$LN5@CMEM_mapAd|

; 598  :     }
; 599  : 
; 600  :     /* Make sure address, length are multiples of page sise */
; 601  :     if (physAddr & (dwPageSize - 1)) {

  00024	e59f60b4	 ldr         r6, [pc, #0xB4]
  00028	e5963008	 ldr         r3, [r6, #8]
  0002c	e2433001	 sub         r3, r3, #1
  00030	e1130005	 tst         r3, r5
  00034	0a000004	 beq         |$LN3@CMEM_mapAd|

; 602  :         __E("CMEM_mapAddress: Input address %#x not page aligned\n", physAddr);

  00038	e59f009c	 ldr         r0, [pc, #0x9C]
  0003c	e1a01005	 mov         r1, r5
  00040		 |$LN9@CMEM_mapAd|
  00040	eb000000	 bl          NKDbgPrintfW

; 603  :         return (-2);

  00044	e3e00001	 mvn         r0, #1
  00048	ea00001e	 b           |$LN5@CMEM_mapAd|
  0004c		 |$LN3@CMEM_mapAd|

; 604  :     }
; 605  : 
; 606  :     if (length & (dwPageSize - 1)) {

  0004c	e1130004	 tst         r3, r4

; 607  :         __E("CMEM_mapAddress: Input length %#x not page aligned\n", length);

  00050	159f0080	 ldrne       r0, [pc, #0x80]
  00054	11a01004	 movne       r1, r4
  00058	1afffff8	 bne         |$LN9@CMEM_mapAd|

; 608  :         return (-2);
; 609  :     }
; 610  : 
; 611  :     mapDesc.map_inparams.physp = physAddr;
; 612  :     mapDesc.map_inparams.size = (size_t)length;
; 613  :     mapDesc.map_inparams.dwProcId = (DWORD)GetCurrentProcessId();

  0005c	e3a0000c	 mov         r0, #0xC
  00060	e58d5014	 str         r5, [sp, #0x14]
  00064	e58d4018	 str         r4, [sp, #0x18]
  00068	eb000000	 bl          __GetUserKData
  0006c	e1a04000	 mov         r4, r0

; 614  : 
; 615  :     if (!DeviceIoControl(hCMEM, CMEM_IOCMAPADDRESS, &mapDesc, sizeof(mapDesc),
; 616  :                 NULL, 0, &dwBytesReturned, NULL)) {

  00070	e5960000	 ldr         r0, [r6]
  00074	e3a06000	 mov         r6, #0
  00078	e28de010	 add         lr, sp, #0x10
  0007c	e3a03010	 mov         r3, #0x10
  00080	e28d2014	 add         r2, sp, #0x14
  00084	e3a0100c	 mov         r1, #0xC
  00088	e58d600c	 str         r6, [sp, #0xC]
  0008c	e58d6004	 str         r6, [sp, #4]
  00090	e58d6000	 str         r6, [sp]
  00094	e58d401c	 str         r4, [sp, #0x1C]
  00098	e58de008	 str         lr, [sp, #8]
  0009c	eb000000	 bl          DeviceIoControl
  000a0	e3500000	 cmp         r0, #0
  000a4	1a000004	 bne         |$LN1@CMEM_mapAd|

; 617  :         __E("CMEM_mapAddress: Failed to map physical address %#x\n",
; 618  :                 (unsigned int)physAddr);

  000a8	e59f0024	 ldr         r0, [pc, #0x24]
  000ac	e1a01005	 mov         r1, r5
  000b0	eb000000	 bl          NKDbgPrintfW

; 619  :         return (-3);

  000b4	e3e00002	 mvn         r0, #2
  000b8	ea000002	 b           |$LN5@CMEM_mapAd|
  000bc		 |$LN1@CMEM_mapAd|

; 620  :     }
; 621  : 
; 622  :     __D("CMEM_mapAddress: ioctl CMEM_IOCMAPADDRESS succeeded, virtAddr=%#lx\n",
; 623  :             mapDesc.virtp);
; 624  :     *pVirtAddr = mapDesc.virtp;

  000bc	e59d3014	 ldr         r3, [sp, #0x14]

; 625  : 
; 626  :     return (0);

  000c0	e3a00000	 mov         r0, #0
  000c4	e5873000	 str         r3, [r7]
  000c8		 |$LN5@CMEM_mapAd|

; 627  : }

  000c8	e28dd024	 add         sp, sp, #0x24
  000cc	e8bd40f0	 ldmia       sp!, {r4 - r7, lr}
  000d0	e12fff1e	 bx          lr
  000d4		 |$LN13@CMEM_mapAd|
  000d4		 |$LN14@CMEM_mapAd|
  000d4	00000000	 DCD         |??_C@_1IC@LHPHMHFL@?$AAC?$AAM?$AAE?$AAM?$AA?5?$AAE?$AAr?$AAr?$AAo?$AAr?$AA?3?$AA?5?$AAC?$AAM?$AAE?$AAM?$AA_?$AAm?$AAa?$AAp?$AAA?$AAd?$AAd?$AAr?$AAe?$AAs?$AAs?$AA?3?$AA?5?$AAF?$AAa?$AAi@|
  000d8		 |$LN15@CMEM_mapAd|
  000d8	00000000	 DCD         |??_C@_1IA@HIPOJOLM@?$AAC?$AAM?$AAE?$AAM?$AA?5?$AAE?$AAr?$AAr?$AAo?$AAr?$AA?3?$AA?5?$AAC?$AAM?$AAE?$AAM?$AA_?$AAm?$AAa?$AAp?$AAA?$AAd?$AAd?$AAr?$AAe?$AAs?$AAs?$AA?3?$AA?5?$AAI?$AAn?$AAp@|
  000dc		 |$LN16@CMEM_mapAd|
  000dc	00000000	 DCD         |??_C@_1IC@JCADCFLC@?$AAC?$AAM?$AAE?$AAM?$AA?5?$AAE?$AAr?$AAr?$AAo?$AAr?$AA?3?$AA?5?$AAC?$AAM?$AAE?$AAM?$AA_?$AAm?$AAa?$AAp?$AAA?$AAd?$AAd?$AAr?$AAe?$AAs?$AAs?$AA?3?$AA?5?$AAI?$AAn?$AAp@|
  000e0		 |$LN17@CMEM_mapAd|
  000e0	00000000	 DCD         |hCMEM|
  000e4		 |$M37383|

			 ENDP  ; |CMEM_mapAddress|

	EXPORT	|CMEM_unmapAddress|
	EXPORT	|??_C@_1II@HDMFEDCC@?$AAC?$AAM?$AAE?$AAM?$AA?5?$AAE?$AAr?$AAr?$AAo?$AAr?$AA?3?$AA?5?$AAC?$AAM?$AAE?$AAM?$AA_?$AAu?$AAn?$AAm?$AAa?$AAp?$AAA?$AAd?$AAd?$AAr?$AAe?$AAs?$AAs?$AA?3?$AA?5?$AAF@| [ DATA ] ; `string'
; File c:\wince600\public\common\sdk\inc\kfuncs.h

  00000			 AREA	 |.pdata|, PDATA
|$T37404| DCD	|$LN8@CMEM_unmap|
	DCD	0x40002202

  00000			 AREA	 |.rdata|, DATA, READONLY
|??_C@_1II@HDMFEDCC@?$AAC?$AAM?$AAE?$AAM?$AA?5?$AAE?$AAr?$AAr?$AAo?$AAr?$AA?3?$AA?5?$AAC?$AAM?$AAE?$AAM?$AA_?$AAu?$AAn?$AAm?$AAa?$AAp?$AAA?$AAd?$AAd?$AAr?$AAe?$AAs?$AAs?$AA?3?$AA?5?$AAF@| DCB "C"
	DCB	0x0, "M", 0x0, "E", 0x0, "M", 0x0, " ", 0x0, "E", 0x0, "r"
	DCB	0x0, "r", 0x0, "o", 0x0, "r", 0x0, ":", 0x0, " ", 0x0, "C"
	DCB	0x0, "M", 0x0, "E", 0x0, "M", 0x0, "_", 0x0, "u", 0x0, "n"
	DCB	0x0, "m", 0x0, "a", 0x0, "p", 0x0, "A", 0x0, "d", 0x0, "d"
	DCB	0x0, "r", 0x0, "e", 0x0, "s", 0x0, "s", 0x0, ":", 0x0, " "
	DCB	0x0, "F", 0x0, "a", 0x0, "i", 0x0, "l", 0x0, "e", 0x0, "d"
	DCB	0x0, " ", 0x0, "t", 0x0, "o", 0x0, " ", 0x0, "u", 0x0, "n"
	DCB	0x0, "m", 0x0, "a", 0x0, "p", 0x0, " ", 0x0, "v", 0x0, "i"
	DCB	0x0, "r", 0x0, "t", 0x0, "u", 0x0, "a", 0x0, "l", 0x0, " "
	DCB	0x0, "a", 0x0, "d", 0x0, "d", 0x0, "r", 0x0, "e", 0x0, "s"
	DCB	0x0, "s", 0x0, " ", 0x0, "%", 0x0, "#", 0x0, "x", 0x0, 0xa
	DCB	0x0, 0x0, 0x0				; `string'
; Function compile flags: /Ogspy
; File i:\library\trees\winceutils\winceutils-b01x\src\ti\sdo\winceutils\cmem\user\cmem.c

  00000			 AREA	 |.text|, CODE, ARM

  00000		 |CMEM_unmapAddress| PROC

; 633  : {

  00000		 |$LN8@CMEM_unmap|
  00000	e92d4070	 stmdb       sp!, {r4 - r6, lr}
  00004	e24dd024	 sub         sp, sp, #0x24
  00008		 |$M37401|
  00008	e1a05000	 mov         r5, r0

; 634  :     union CMEM_AllocUnion mapDesc;
; 635  :     DWORD   dwBytesReturned;
; 636  : 
; 637  :     __D("CMEM_unmapAddress: entered, addr %p, length %#x\n", virtAddr, length);
; 638  : 
; 639  :     mapDesc.unmap_inparams.virtp = virtAddr;
; 640  :     mapDesc.unmap_inparams.size = (size_t)length;
; 641  :     mapDesc.unmap_inparams.dwProcId = (DWORD)GetCurrentProcessId();

  0000c	e3a0000c	 mov         r0, #0xC
  00010	e58d5014	 str         r5, [sp, #0x14]
  00014	e58d1018	 str         r1, [sp, #0x18]
  00018	eb000000	 bl          __GetUserKData

; 642  : 
; 643  :     if (!DeviceIoControl(hCMEM, CMEM_IOCUNMAPADDRESS, &mapDesc,
; 644  :                 sizeof(mapDesc), NULL, 0, &dwBytesReturned, NULL)) {

  0001c	e59f3060	 ldr         r3, [pc, #0x60]
  00020	e1a0e000	 mov         lr, r0
  00024	e28d4010	 add         r4, sp, #0x10
  00028	e5930000	 ldr         r0, [r3]
  0002c	e3a06000	 mov         r6, #0
  00030	e3a03010	 mov         r3, #0x10
  00034	e28d2014	 add         r2, sp, #0x14
  00038	e3a0100d	 mov         r1, #0xD
  0003c	e58de01c	 str         lr, [sp, #0x1C]
  00040	e58d600c	 str         r6, [sp, #0xC]
  00044	e58d4008	 str         r4, [sp, #8]
  00048	e58d6004	 str         r6, [sp, #4]
  0004c	e58d6000	 str         r6, [sp]
  00050	eb000000	 bl          DeviceIoControl
  00054	e3500000	 cmp         r0, #0
  00058	1a000004	 bne         |$LN1@CMEM_unmap|

; 645  :         __E("CMEM_unmapAddress: Failed to unmap virtual address %#x\n",
; 646  :                 (unsigned int)virtAddr);

  0005c	e59f001c	 ldr         r0, [pc, #0x1C]
  00060	e1a01005	 mov         r1, r5
  00064	eb000000	 bl          NKDbgPrintfW

; 647  :         return (-3);

  00068	e3e00002	 mvn         r0, #2
  0006c	ea000000	 b           |$LN2@CMEM_unmap|
  00070		 |$LN1@CMEM_unmap|

; 648  :     }
; 649  :     return (0);

  00070	e3a00000	 mov         r0, #0
  00074		 |$LN2@CMEM_unmap|

; 650  : }

  00074	e28dd024	 add         sp, sp, #0x24
  00078	e8bd4070	 ldmia       sp!, {r4 - r6, lr}
  0007c	e12fff1e	 bx          lr
  00080		 |$LN9@CMEM_unmap|
  00080		 |$LN10@CMEM_unmap|
  00080	00000000	 DCD         |??_C@_1II@HDMFEDCC@?$AAC?$AAM?$AAE?$AAM?$AA?5?$AAE?$AAr?$AAr?$AAo?$AAr?$AA?3?$AA?5?$AAC?$AAM?$AAE?$AAM?$AA_?$AAu?$AAn?$AAm?$AAa?$AAp?$AAA?$AAd?$AAd?$AAr?$AAe?$AAs?$AAs?$AA?3?$AA?5?$AAF@|
  00084		 |$LN11@CMEM_unmap|
  00084	00000000	 DCD         |hCMEM|
  00088		 |$M37402|

			 ENDP  ; |CMEM_unmapAddress|

	EXPORT	|CMEM_init|
	EXPORT	|??_C@_1JA@JEHKIDEP@?$AAC?$AAM?$AAE?$AAM?$AA?5?$AAE?$AAr?$AAr?$AAo?$AAr?$AA?3?$AA?5?$AAi?$AAn?$AAi?$AAt?$AA?3?$AA?5?$AAm?$AAa?$AAj?$AAo?$AAr?$AA?5?$AAv?$AAe?$AAr?$AAs?$AAi?$AAo?$AAn?$AA?5@| [ DATA ] ; `string'
	EXPORT	|??_C@_1GG@INBHPGOM@?$AAC?$AAM?$AAE?$AAM?$AA?5?$AAE?$AAr?$AAr?$AAo?$AAr?$AA?3?$AA?5?$AA?5?$AA?5?$AA?5?$AA?5?$AAn?$AAe?$AAe?$AAd?$AAs?$AA?5?$AAd?$AAr?$AAi?$AAv?$AAe?$AAr?$AA?5?$AAv?$AAe?$AAr@| [ DATA ] ; `string'
	EXPORT	|??_C@_1FK@JLEDBNPH@?$AAC?$AAM?$AAE?$AAM?$AA?5?$AAE?$AAr?$AAr?$AAo?$AAr?$AA?3?$AA?5?$AAi?$AAn?$AAi?$AAt?$AA?3?$AA?5?$AAF?$AAa?$AAi?$AAl?$AAe?$AAd?$AA?5?$AAt?$AAo?$AA?5?$AAo?$AAp?$AAe?$AAn@| [ DATA ] ; `string'
	EXPORT	|??_C@_1M@IMNEMCPG@?$AAC?$AAM?$AAK?$AA1?$AA?3?$AA?$AA@| [ DATA ] ; `string'
	IMPORT	|GetSystemInfo|
	IMPORT	|GetLastError|
	IMPORT	|CreateFileW|

  00000			 AREA	 |.pdata|, PDATA
|$T37418| DCD	|$LN11@CMEM_init|
	DCD	0x40003f02

  00000			 AREA	 |.rdata|, DATA, READONLY
|??_C@_1JA@JEHKIDEP@?$AAC?$AAM?$AAE?$AAM?$AA?5?$AAE?$AAr?$AAr?$AAo?$AAr?$AA?3?$AA?5?$AAi?$AAn?$AAi?$AAt?$AA?3?$AA?5?$AAm?$AAa?$AAj?$AAo?$AAr?$AA?5?$AAv?$AAe?$AAr?$AAs?$AAi?$AAo?$AAn?$AA?5@| DCB "C"
	DCB	0x0, "M", 0x0, "E", 0x0, "M", 0x0, " ", 0x0, "E", 0x0, "r"
	DCB	0x0, "r", 0x0, "o", 0x0, "r", 0x0, ":", 0x0, " ", 0x0, "i"
	DCB	0x0, "n", 0x0, "i", 0x0, "t", 0x0, ":", 0x0, " ", 0x0, "m"
	DCB	0x0, "a", 0x0, "j", 0x0, "o", 0x0, "r", 0x0, " ", 0x0, "v"
	DCB	0x0, "e", 0x0, "r", 0x0, "s", 0x0, "i", 0x0, "o", 0x0, "n"
	DCB	0x0, " ", 0x0, "m", 0x0, "i", 0x0, "s", 0x0, "m", 0x0, "a"
	DCB	0x0, "t", 0x0, "c", 0x0, "h", 0x0, " ", 0x0, "b", 0x0, "e"
	DCB	0x0, "t", 0x0, "w", 0x0, "e", 0x0, "e", 0x0, "n", 0x0, " "
	DCB	0x0, "i", 0x0, "n", 0x0, "t", 0x0, "e", 0x0, "r", 0x0, "f"
	DCB	0x0, "a", 0x0, "c", 0x0, "e", 0x0, " ", 0x0, "a", 0x0, "n"
	DCB	0x0, "d", 0x0, " ", 0x0, "d", 0x0, "r", 0x0, "i", 0x0, "v"
	DCB	0x0, "e", 0x0, "r", 0x0, ".", 0x0, 0xa, 0x0, 0x0, 0x0 ; `string'

  00000			 AREA	 |.rdata|, DATA, READONLY
|??_C@_1GG@INBHPGOM@?$AAC?$AAM?$AAE?$AAM?$AA?5?$AAE?$AAr?$AAr?$AAo?$AAr?$AA?3?$AA?5?$AA?5?$AA?5?$AA?5?$AA?5?$AAn?$AAe?$AAe?$AAd?$AAs?$AA?5?$AAd?$AAr?$AAi?$AAv?$AAe?$AAr?$AA?5?$AAv?$AAe?$AAr@| DCB "C"
	DCB	0x0, "M", 0x0, "E", 0x0, "M", 0x0, " ", 0x0, "E", 0x0, "r"
	DCB	0x0, "r", 0x0, "o", 0x0, "r", 0x0, ":", 0x0, " ", 0x0, " "
	DCB	0x0, " ", 0x0, " ", 0x0, " ", 0x0, "n", 0x0, "e", 0x0, "e"
	DCB	0x0, "d", 0x0, "s", 0x0, " ", 0x0, "d", 0x0, "r", 0x0, "i"
	DCB	0x0, "v", 0x0, "e", 0x0, "r", 0x0, " ", 0x0, "v", 0x0, "e"
	DCB	0x0, "r", 0x0, "s", 0x0, "i", 0x0, "o", 0x0, "n", 0x0, " "
	DCB	0x0, "%", 0x0, "#", 0x0, "x", 0x0, ",", 0x0, " ", 0x0, "g"
	DCB	0x0, "o", 0x0, "t", 0x0, " ", 0x0, "%", 0x0, "#", 0x0, "x"
	DCB	0x0, 0xa, 0x0, 0x0, 0x0			; `string'

  00000			 AREA	 |.rdata|, DATA, READONLY
|??_C@_1FK@JLEDBNPH@?$AAC?$AAM?$AAE?$AAM?$AA?5?$AAE?$AAr?$AAr?$AAo?$AAr?$AA?3?$AA?5?$AAi?$AAn?$AAi?$AAt?$AA?3?$AA?5?$AAF?$AAa?$AAi?$AAl?$AAe?$AAd?$AA?5?$AAt?$AAo?$AA?5?$AAo?$AAp?$AAe?$AAn@| DCB "C"
	DCB	0x0, "M", 0x0, "E", 0x0, "M", 0x0, " ", 0x0, "E", 0x0, "r"
	DCB	0x0, "r", 0x0, "o", 0x0, "r", 0x0, ":", 0x0, " ", 0x0, "i"
	DCB	0x0, "n", 0x0, "i", 0x0, "t", 0x0, ":", 0x0, " ", 0x0, "F"
	DCB	0x0, "a", 0x0, "i", 0x0, "l", 0x0, "e", 0x0, "d", 0x0, " "
	DCB	0x0, "t", 0x0, "o", 0x0, " ", 0x0, "o", 0x0, "p", 0x0, "e"
	DCB	0x0, "n", 0x0, " ", 0x0, "C", 0x0, "M", 0x0, "K", 0x0, "1"
	DCB	0x0, ":", 0x0, " ", 0x0, "'", 0x0, "%", 0x0, "d", 0x0, "'"
	DCB	0x0, 0xa, 0x0, 0x0, 0x0			; `string'

  00000			 AREA	 |.rdata|, DATA, READONLY
|??_C@_1M@IMNEMCPG@?$AAC?$AAM?$AAK?$AA1?$AA?3?$AA?$AA@| DCB "C", 0x0, "M", 0x0
	DCB	"K", 0x0, "1", 0x0, ":", 0x0, 0x0, 0x0	; `string'
; Function compile flags: /Ogspy

  00000			 AREA	 |.text|, CODE, ARM

  00000		 |CMEM_init| PROC

; 91   : {

  00000		 |$LN11@CMEM_init|
  00000	e92d4070	 stmdb       sp!, {r4 - r6, lr}
  00004	e24dd030	 sub         sp, sp, #0x30
  00008		 |$M37415|

; 92   :     SYSTEM_INFO  systemInfo;
; 93   :     unsigned int version;
; 94   : 
; 95   :     __D("init: entered - ref_count %d, hCMEM %d\n", ref_count, hCMEM);
; 96   : 
; 97   :     if (hCMEM) {

  00008	e59f40e8	 ldr         r4, [pc, #0xE8]
  0000c	e5943000	 ldr         r3, [r4]
  00010	e3530000	 cmp         r3, #0
  00014	0a000006	 beq         |$LN5@CMEM_init|

; 98   :         ref_count++;

  00018	e5943004	 ldr         r3, [r4, #4]

; 99   :         __D("init: CMK1: already opened, incremented ref_count %d\n",
; 100  :                 ref_count);
; 101  :         return (0);

  0001c	e2833001	 add         r3, r3, #1
  00020	e5843004	 str         r3, [r4, #4]
  00024		 |$LN3@CMEM_init|

; 131  : 
; 132  :         return (-1);
; 133  :     }
; 134  :     else if ((version & 0x0000ffff) < (CMEM_VERSION & 0x0000ffff)) {
; 135  :         __E("init: minor version mismatch between interface and driver.\n");
; 136  :         __E("    needs driver minor version %#x or greater.\n",
; 137  :                 CMEM_VERSION & 0x0000ffff);
; 138  :         __E("    got minor version %#x (full version %#x)\n",
; 139  :                 version & 0x0000ffff, version);
; 140  : 
; 141  :         CMEM_exit();
; 142  : 
; 143  :         return (-1);
; 144  :     }
; 145  : 
; 146  :     __D("init: ... match good (%#x)\n", version);
; 147  :     __D("init: exiting, returning success\n");
; 148  : 
; 149  :     return (0);

  00024	e3a00000	 mov         r0, #0
  00028		 |$LN6@CMEM_init|

; 150  : }

  00028	e28dd030	 add         sp, sp, #0x30
  0002c	e8bd4070	 ldmia       sp!, {r4 - r6, lr}
  00030	e12fff1e	 bx          lr
  00034		 |$LN5@CMEM_init|

; 102  :     }
; 103  : 
; 104  :     hCMEM = CreateFile(L"CMK1:",
; 105  :             GENERIC_READ,
; 106  :             FILE_SHARE_READ,
; 107  :             NULL,
; 108  :             OPEN_EXISTING,
; 109  :             FILE_ATTRIBUTE_NORMAL,
; 110  :             NULL);

  00034	e59f00b8	 ldr         r0, [pc, #0xB8]
  00038	e3a0e000	 mov         lr, #0
  0003c	e3a05080	 mov         r5, #0x80
  00040	e3a06003	 mov         r6, #3
  00044	e3a03000	 mov         r3, #0
  00048	e3a02001	 mov         r2, #1
  0004c	e3a01102	 mov         r1, #2, 2
  00050	e58de008	 str         lr, [sp, #8]
  00054	e58d5004	 str         r5, [sp, #4]
  00058	e58d6000	 str         r6, [sp]
  0005c	eb000000	 bl          CreateFileW
  00060	e5840000	 str         r0, [r4]

; 111  : 
; 112  :     if (hCMEM == INVALID_HANDLE_VALUE) {

  00064	e3700001	 cmn         r0, #1
  00068	1a000007	 bne         |$LN4@CMEM_init|

; 113  :         __E("init: Failed to open CMK1: '%d'\n", GetLastError());

  0006c	eb000000	 bl          GetLastError
  00070	e1a01000	 mov         r1, r0
  00074	e59f0074	 ldr         r0, [pc, #0x74]
  00078	eb000000	 bl          NKDbgPrintfW

; 114  :         hCMEM = NULL;

  0007c	e3a03000	 mov         r3, #0
  00080	e5843000	 str         r3, [r4]

; 115  :         return (-1);

  00084	e3e00000	 mvn         r0, #0
  00088	eaffffe6	 b           |$LN6@CMEM_init|
  0008c		 |$LN4@CMEM_init|

; 116  :     }
; 117  : 
; 118  :     GetSystemInfo(&systemInfo);

  0008c	e28d000c	 add         r0, sp, #0xC
  00090	eb000000	 bl          GetSystemInfo

; 119  :     dwPageSize = systemInfo.dwPageSize;
; 120  : 
; 121  :     ref_count++;

  00094	e5943004	 ldr         r3, [r4, #4]
  00098	e59d2010	 ldr         r2, [sp, #0x10]
  0009c	e2833001	 add         r3, r3, #1
  000a0	e5843004	 str         r3, [r4, #4]
  000a4	e5842008	 str         r2, [r4, #8]

; 122  : 
; 123  :     __D("init: successfully opened CMK1:, matching driver version...\n");
; 124  : 
; 125  :     version = CMEM_getVersion();

  000a8	eb000000	 bl          CMEM_getVersion
  000ac	e3e03cff	 mvn         r3, #0xFF, 24

; 126  :     if ((version & 0xffff0000) != (CMEM_VERSION & 0xffff0000)) {

  000b0	e22330ff	 eor         r3, r3, #0xFF
  000b4	e1a04000	 mov         r4, r0
  000b8	e0043003	 and         r3, r4, r3
  000bc	e3530622	 cmp         r3, #0x22, 12
  000c0	0affffd7	 beq         |$LN3@CMEM_init|

; 127  :         __E("init: major version mismatch between interface and driver.\n");

  000c4	e59f0020	 ldr         r0, [pc, #0x20]
  000c8	eb000000	 bl          NKDbgPrintfW

; 128  :         __E("    needs driver version %#x, got %#x\n", CMEM_VERSION, version);

  000cc	e59f0014	 ldr         r0, [pc, #0x14]
  000d0	e1a02004	 mov         r2, r4
  000d4	e3a01622	 mov         r1, #0x22, 12
  000d8	eb000000	 bl          NKDbgPrintfW

; 129  : 
; 130  :         CMEM_exit();

  000dc	eb000000	 bl          CMEM_exit
  000e0	e3e00000	 mvn         r0, #0
  000e4	eaffffcf	 b           |$LN6@CMEM_init|
  000e8		 |$LN12@CMEM_init|
  000e8		 |$LN13@CMEM_init|
  000e8	00000000	 DCD         |??_C@_1GG@INBHPGOM@?$AAC?$AAM?$AAE?$AAM?$AA?5?$AAE?$AAr?$AAr?$AAo?$AAr?$AA?3?$AA?5?$AA?5?$AA?5?$AA?5?$AA?5?$AAn?$AAe?$AAe?$AAd?$AAs?$AA?5?$AAd?$AAr?$AAi?$AAv?$AAe?$AAr?$AA?5?$AAv?$AAe?$AAr@|
  000ec		 |$LN14@CMEM_init|
  000ec	00000000	 DCD         |??_C@_1JA@JEHKIDEP@?$AAC?$AAM?$AAE?$AAM?$AA?5?$AAE?$AAr?$AAr?$AAo?$AAr?$AA?3?$AA?5?$AAi?$AAn?$AAi?$AAt?$AA?3?$AA?5?$AAm?$AAa?$AAj?$AAo?$AAr?$AA?5?$AAv?$AAe?$AAr?$AAs?$AAi?$AAo?$AAn?$AA?5@|
  000f0		 |$LN15@CMEM_init|
  000f0	00000000	 DCD         |??_C@_1FK@JLEDBNPH@?$AAC?$AAM?$AAE?$AAM?$AA?5?$AAE?$AAr?$AAr?$AAo?$AAr?$AA?3?$AA?5?$AAi?$AAn?$AAi?$AAt?$AA?3?$AA?5?$AAF?$AAa?$AAi?$AAl?$AAe?$AAd?$AA?5?$AAt?$AAo?$AA?5?$AAo?$AAp?$AAe?$AAn@|
  000f4		 |$LN16@CMEM_init|
  000f4	00000000	 DCD         |??_C@_1M@IMNEMCPG@?$AAC?$AAM?$AAK?$AA1?$AA?3?$AA?$AA@|
  000f8		 |$LN17@CMEM_init|
  000f8	00000000	 DCD         |hCMEM|
  000fc		 |$M37416|

			 ENDP  ; |CMEM_init|


  00000			 AREA	 |.pdata|, PDATA
|$T37440| DCD	|$LN10@getAndAllo|
	DCD	0x40001601
; Function compile flags: /Ogspy

  00000			 AREA	 |.text|, CODE, ARM

  00000		 |getAndAllocFromPool| PROC

; 180  : {

  00000		 |$LN10@getAndAllo|
  00000	e92d4070	 stmdb       sp!, {r4 - r6, lr}
  00004		 |$M37437|
  00004	e1a05002	 mov         r5, r2
  00008	e1a06001	 mov         r6, r1
  0000c	e1a04000	 mov         r4, r0

; 181  :     int poolid;
; 182  : 
; 183  :     poolid = CMEM_getPool2(blockid, size);

  00010	eb000000	 bl          getPoolFromBlock

; 184  : 
; 185  :     if (poolid == -1) {

  00014	e3700001	 cmn         r0, #1

; 186  :         return (NULL);

  00018	03a00000	 moveq       r0, #0

; 197  :     }
; 198  : }

  0001c	08bd4070	 ldmeqia     sp!, {r4 - r6, lr}
  00020	012fff1e	 bxeq        lr

; 187  :     }
; 188  :     if (poolid == -2) {

  00024	e3700002	 cmn         r0, #2

; 189  :         /*
; 190  :          *  No pool was big enough, but the heap is, and we're allowed to
; 191  :          *  use the heap if a pool allocation fails.
; 192  :          */
; 193  :         return (allocFromHeap(blockid, size, params));

  00028	e1a02005	 mov         r2, r5

; 187  :     }
; 188  :     if (poolid == -2) {

  0002c	1a000004	 bne         |$LN2@getAndAllo|

; 189  :         /*
; 190  :          *  No pool was big enough, but the heap is, and we're allowed to
; 191  :          *  use the heap if a pool allocation fails.
; 192  :          */
; 193  :         return (allocFromHeap(blockid, size, params));

  00030	e1a01006	 mov         r1, r6
  00034	e1a00004	 mov         r0, r4
  00038	eb000000	 bl          allocFromHeap

; 197  :     }
; 198  : }

  0003c	e8bd4070	 ldmia       sp!, {r4 - r6, lr}
  00040	e12fff1e	 bx          lr
  00044		 |$LN2@getAndAllo|

; 194  :     }
; 195  :     else {
; 196  :         return (allocFromPool(blockid, poolid, params));

  00044	e1a01000	 mov         r1, r0
  00048	e1a00004	 mov         r0, r4
  0004c	eb000000	 bl          allocFromPool

; 197  :     }
; 198  : }

  00050	e8bd4070	 ldmia       sp!, {r4 - r6, lr}
  00054	e12fff1e	 bx          lr
  00058		 |$M37438|

			 ENDP  ; |getAndAllocFromPool|

	EXPORT	|alloc|

  00000			 AREA	 |.pdata|, PDATA
|$T37469| DCD	|$LN18@alloc|
	DCD	0x40002201
; Function compile flags: /Ogspy

  00000			 AREA	 |.text|, CODE, ARM

  00000		 |alloc| PROC

; 238  : {

  00000		 |$LN18@alloc|
  00000	e92d4070	 stmdb       sp!, {r4 - r6, lr}
  00004		 |$M37466|
  00004	e1b04002	 movs        r4, r2
  00008	e1a06001	 mov         r6, r1
  0000c	e1a05000	 mov         r5, r0

; 239  :     if (params == NULL) {
; 240  :         params = &CMEM_DEFAULTPARAMS;

  00010	059f406c	 ldreq       r4, [pc, #0x6C]

; 241  :     }
; 242  : 
; 243  :     __D("alloc: entered w/ size %#x, params - type %s, flags %s, align %#x %s\n",
; 244  :             size,
; 245  :             params->type == CMEM_POOL ? L"POOL" : L"HEAP",
; 246  :             params->flags & CMEM_CACHED ? L"CACHED" : L"NONCACHED",
; 247  :             params->alignment,
; 248  :             params == &CMEM_DEFAULTPARAMS ? L" (default)" : L"");
; 249  : 
; 250  :     if (!validate_init()) {

  00014	eb000000	 bl          validate_init
  00018	e3500000	 cmp         r0, #0
  0001c	1a000002	 bne         |$LN3@alloc|
  00020		 |$LN15@alloc|

; 251  :         return NULL;

  00020	e3a00000	 mov         r0, #0

; 259  :     }
; 260  : }

  00024	e8bd4070	 ldmia       sp!, {r4 - r6, lr}
  00028	e12fff1e	 bx          lr
  0002c		 |$LN3@alloc|

; 252  :     }
; 253  : 
; 254  :     if (params->type == CMEM_POOL) {

  0002c	e5943000	 ldr         r3, [r4]

; 255  :         return getAndAllocFromPool(blockid, size, params);

  00030	e1a01006	 mov         r1, r6
  00034	e1a00005	 mov         r0, r5
  00038	e3530000	 cmp         r3, #0
  0003c	1a00000c	 bne         |$LN2@alloc|
  00040	eb000000	 bl          getPoolFromBlock
  00044	e3700001	 cmn         r0, #1
  00048	0afffff4	 beq         |$LN15@alloc|
  0004c	e3700002	 cmn         r0, #2
  00050	01a01006	 moveq       r1, r6
  00054	01a00005	 moveq       r0, r5
  00058	e1a02004	 mov         r2, r4
  0005c	0a000005	 beq         |$LN14@alloc|
  00060	e1a01000	 mov         r1, r0
  00064	e1a00005	 mov         r0, r5
  00068	eb000000	 bl          allocFromPool

; 259  :     }
; 260  : }

  0006c	e8bd4070	 ldmia       sp!, {r4 - r6, lr}
  00070	e12fff1e	 bx          lr
  00074		 |$LN2@alloc|

; 256  :     }
; 257  :     else {
; 258  :         return allocFromHeap(blockid, size, params);

  00074	e1a02004	 mov         r2, r4
  00078		 |$LN14@alloc|
  00078	eb000000	 bl          allocFromHeap

; 259  :     }
; 260  : }

  0007c	e8bd4070	 ldmia       sp!, {r4 - r6, lr}
  00080	e12fff1e	 bx          lr
  00084		 |$LN19@alloc|
  00084		 |$LN20@alloc|
  00084	00000000	 DCD         |CMEM_DEFAULTPARAMS|
  00088		 |$M37467|

			 ENDP  ; |alloc|

	EXPORT	|CMEM_alloc|

  00000			 AREA	 |.pdata|, PDATA
|$T37482| DCD	|$LN5@CMEM_alloc@3|
	DCD	0x40000701
; Function compile flags: /Ogspy

  00000			 AREA	 |.text|, CODE, ARM

  00000		 |CMEM_alloc| PROC

; 263  : {

  00000		 |$LN5@CMEM_alloc@3|
  00000	e52de004	 str         lr, [sp, #-4]!
  00004		 |$M37479|
  00004	e1a02001	 mov         r2, r1
  00008	e1a01000	 mov         r1, r0

; 264  :     return alloc(0, size, params);

  0000c	e3a00000	 mov         r0, #0
  00010	eb000000	 bl          alloc

; 265  : }

  00014	e49de004	 ldr         lr, [sp], #4
  00018	e12fff1e	 bx          lr
  0001c		 |$M37480|

			 ENDP  ; |CMEM_alloc|

	EXPORT	|CMEM_alloc2|

  00000			 AREA	 |.pdata|, PDATA
|$T37494| DCD	|$LN5@CMEM_alloc@4|
	DCD	0x40000401
; Function compile flags: /Ogspy

  00000			 AREA	 |.text|, CODE, ARM

  00000		 |CMEM_alloc2| PROC

; 268  : {

  00000		 |$LN5@CMEM_alloc@4|
  00000	e52de004	 str         lr, [sp, #-4]!
  00004		 |$M37491|

; 269  :     return alloc(blockid, size, params);

  00004	eb000000	 bl          alloc

; 270  : }

  00008	e49de004	 ldr         lr, [sp], #4
  0000c	e12fff1e	 bx          lr
  00010		 |$M37492|

			 ENDP  ; |CMEM_alloc2|

	END
