; Listing generated by Microsoft (R) Optimizing Compiler Version 14.01.60511.01 

	TTL	I:\library\trees\winceutils\winceutils-b01x\src\ti\sdo\winceutils\cmem\user\cmem.c
	CODE32

  00000			 AREA	 |.drectve|, DRECTVE
	DCB	"-defaultlib:LIBCMT "
	DCB	"-defaultlib:OLDNAMES "

	EXPORT	|CMEM_DEFAULTPARAMS| [ DATA ]

  00000			 AREA	 |.bss|, NOINIT
|hCMEM|	%	0x4
|ref_count| %	0x4
|dwPageSize| %	0x4

  00000			 AREA	 |.data|, DATA
|CMEM_DEFAULTPARAMS| DCD 0x0
	DCD	0x0
	DCD	0x1
	EXPORT	|??_C@_1FM@NMIHGKJ@?$AAC?$AAM?$AAE?$AAM?$AA?5?$AAD?$AAe?$AAb?$AAu?$AAg?$AA?3?$AA?5?$AAi?$AAn?$AAi?$AAt?$AA?3?$AA?5?$AAe?$AAx?$AAi?$AAt?$AAi?$AAn?$AAg?$AA?0?$AA?5?$AAr?$AAe?$AAt?$AAu?$AAr@| [ DATA ] ; `string'
	EXPORT	|??_C@_1FA@NJLNJHHI@?$AAC?$AAM?$AAE?$AAM?$AA?5?$AAD?$AAe?$AAb?$AAu?$AAg?$AA?3?$AA?5?$AAi?$AAn?$AAi?$AAt?$AA?3?$AA?5?$AA?4?$AA?4?$AA?4?$AA?5?$AAm?$AAa?$AAt?$AAc?$AAh?$AA?5?$AAg?$AAo?$AAo?$AAd@| [ DATA ] ; `string'
	EXPORT	|??_C@_1HE@ODCHBFDB@?$AAC?$AAM?$AAE?$AAM?$AA?5?$AAE?$AAr?$AAr?$AAo?$AAr?$AA?3?$AA?5?$AA?5?$AA?5?$AA?5?$AA?5?$AAg?$AAo?$AAt?$AA?5?$AAm?$AAi?$AAn?$AAo?$AAr?$AA?5?$AAv?$AAe?$AAr?$AAs?$AAi?$AAo@| [ DATA ] ; `string'
	EXPORT	|??_C@_1HI@IPLHLEIN@?$AAC?$AAM?$AAE?$AAM?$AA?5?$AAE?$AAr?$AAr?$AAo?$AAr?$AA?3?$AA?5?$AA?5?$AA?5?$AA?5?$AA?5?$AAn?$AAe?$AAe?$AAd?$AAs?$AA?5?$AAd?$AAr?$AAi?$AAv?$AAe?$AAr?$AA?5?$AAm?$AAi?$AAn@| [ DATA ] ; `string'
	EXPORT	|??_C@_1JA@JFMBJBAB@?$AAC?$AAM?$AAE?$AAM?$AA?5?$AAE?$AAr?$AAr?$AAo?$AAr?$AA?3?$AA?5?$AAi?$AAn?$AAi?$AAt?$AA?3?$AA?5?$AAm?$AAi?$AAn?$AAo?$AAr?$AA?5?$AAv?$AAe?$AAr?$AAs?$AAi?$AAo?$AAn?$AA?5@| [ DATA ] ; `string'
	EXPORT	|CMEM_exit|
	EXPORT	|??_C@_1GG@INBHPGOM@?$AAC?$AAM?$AAE?$AAM?$AA?5?$AAE?$AAr?$AAr?$AAo?$AAr?$AA?3?$AA?5?$AA?5?$AA?5?$AA?5?$AA?5?$AAn?$AAe?$AAe?$AAd?$AAs?$AA?5?$AAd?$AAr?$AAi?$AAv?$AAe?$AAr?$AA?5?$AAv?$AAe?$AAr@| [ DATA ] ; `string'
	EXPORT	|??_C@_1JA@JEHKIDEP@?$AAC?$AAM?$AAE?$AAM?$AA?5?$AAE?$AAr?$AAr?$AAo?$AAr?$AA?3?$AA?5?$AAi?$AAn?$AAi?$AAt?$AA?3?$AA?5?$AAm?$AAa?$AAj?$AAo?$AAr?$AA?5?$AAv?$AAe?$AAr?$AAs?$AAi?$AAo?$AAn?$AA?5@| [ DATA ] ; `string'
	EXPORT	|CMEM_getVersion|
	EXPORT	|??_C@_1JC@DJKOBHAE@?$AAC?$AAM?$AAE?$AAM?$AA?5?$AAD?$AAe?$AAb?$AAu?$AAg?$AA?3?$AA?5?$AAi?$AAn?$AAi?$AAt?$AA?3?$AA?5?$AAs?$AAu?$AAc?$AAc?$AAe?$AAs?$AAs?$AAf?$AAu?$AAl?$AAl?$AAy?$AA?5?$AAo@| [ DATA ] ; `string'
	EXPORT	|??_C@_1FK@JLEDBNPH@?$AAC?$AAM?$AAE?$AAM?$AA?5?$AAE?$AAr?$AAr?$AAo?$AAr?$AA?3?$AA?5?$AAi?$AAn?$AAi?$AAt?$AA?3?$AA?5?$AAF?$AAa?$AAi?$AAl?$AAe?$AAd?$AA?5?$AAt?$AAo?$AA?5?$AAo?$AAp?$AAe?$AAn@| [ DATA ] ; `string'
	EXPORT	|??_C@_1M@IMNEMCPG@?$AAC?$AAM?$AAK?$AA1?$AA?3?$AA?$AA@| [ DATA ] ; `string'
	EXPORT	|??_C@_1IE@PDBOJMOO@?$AAC?$AAM?$AAE?$AAM?$AA?5?$AAD?$AAe?$AAb?$AAu?$AAg?$AA?3?$AA?5?$AAi?$AAn?$AAi?$AAt?$AA?3?$AA?5?$AAC?$AAM?$AAK?$AA1?$AA?3?$AA?5?$AAa?$AAl?$AAr?$AAe?$AAa?$AAd?$AAy?$AA?5@| [ DATA ] ; `string'
	EXPORT	|??_C@_1GI@CCDMEMBC@?$AAC?$AAM?$AAE?$AAM?$AA?5?$AAD?$AAe?$AAb?$AAu?$AAg?$AA?3?$AA?5?$AAi?$AAn?$AAi?$AAt?$AA?3?$AA?5?$AAe?$AAn?$AAt?$AAe?$AAr?$AAe?$AAd?$AA?5?$AA?9?$AA?5?$AAr?$AAe?$AAf?$AA_@| [ DATA ] ; `string'
	EXPORT	|CMEM_init|
	IMPORT	|GetSystemInfo|
	IMPORT	|GetLastError|
	IMPORT	|CreateFileW|
	IMPORT	|NKDbgPrintfW|

  00000			 AREA	 |.pdata|, PDATA
|$T37047| DCD	|$LN10@CMEM_init|
	DCD	0x40008202
; File i:\library\trees\winceutils\winceutils-b01x\src\ti\sdo\winceutils\cmem\user\cmem.c

  00000			 AREA	 |.rdata|, DATA, READONLY
|??_C@_1FM@NMIHGKJ@?$AAC?$AAM?$AAE?$AAM?$AA?5?$AAD?$AAe?$AAb?$AAu?$AAg?$AA?3?$AA?5?$AAi?$AAn?$AAi?$AAt?$AA?3?$AA?5?$AAe?$AAx?$AAi?$AAt?$AAi?$AAn?$AAg?$AA?0?$AA?5?$AAr?$AAe?$AAt?$AAu?$AAr@| DCB "C"
	DCB	0x0, "M", 0x0, "E", 0x0, "M", 0x0, " ", 0x0, "D", 0x0, "e"
	DCB	0x0, "b", 0x0, "u", 0x0, "g", 0x0, ":", 0x0, " ", 0x0, "i"
	DCB	0x0, "n", 0x0, "i", 0x0, "t", 0x0, ":", 0x0, " ", 0x0, "e"
	DCB	0x0, "x", 0x0, "i", 0x0, "t", 0x0, "i", 0x0, "n", 0x0, "g"
	DCB	0x0, ",", 0x0, " ", 0x0, "r", 0x0, "e", 0x0, "t", 0x0, "u"
	DCB	0x0, "r", 0x0, "n", 0x0, "i", 0x0, "n", 0x0, "g", 0x0, " "
	DCB	0x0, "s", 0x0, "u", 0x0, "c", 0x0, "c", 0x0, "e", 0x0, "s"
	DCB	0x0, "s", 0x0, 0xa, 0x0, 0x0, 0x0	; `string'

  00000			 AREA	 |.rdata|, DATA, READONLY
|??_C@_1FA@NJLNJHHI@?$AAC?$AAM?$AAE?$AAM?$AA?5?$AAD?$AAe?$AAb?$AAu?$AAg?$AA?3?$AA?5?$AAi?$AAn?$AAi?$AAt?$AA?3?$AA?5?$AA?4?$AA?4?$AA?4?$AA?5?$AAm?$AAa?$AAt?$AAc?$AAh?$AA?5?$AAg?$AAo?$AAo?$AAd@| DCB "C"
	DCB	0x0, "M", 0x0, "E", 0x0, "M", 0x0, " ", 0x0, "D", 0x0, "e"
	DCB	0x0, "b", 0x0, "u", 0x0, "g", 0x0, ":", 0x0, " ", 0x0, "i"
	DCB	0x0, "n", 0x0, "i", 0x0, "t", 0x0, ":", 0x0, " ", 0x0, "."
	DCB	0x0, ".", 0x0, ".", 0x0, " ", 0x0, "m", 0x0, "a", 0x0, "t"
	DCB	0x0, "c", 0x0, "h", 0x0, " ", 0x0, "g", 0x0, "o", 0x0, "o"
	DCB	0x0, "d", 0x0, " ", 0x0, "(", 0x0, "%", 0x0, "#", 0x0, "x"
	DCB	0x0, ")", 0x0, 0xa, 0x0, 0x0, 0x0	; `string'

  00000			 AREA	 |.rdata|, DATA, READONLY
|??_C@_1HE@ODCHBFDB@?$AAC?$AAM?$AAE?$AAM?$AA?5?$AAE?$AAr?$AAr?$AAo?$AAr?$AA?3?$AA?5?$AA?5?$AA?5?$AA?5?$AA?5?$AAg?$AAo?$AAt?$AA?5?$AAm?$AAi?$AAn?$AAo?$AAr?$AA?5?$AAv?$AAe?$AAr?$AAs?$AAi?$AAo@| DCB "C"
	DCB	0x0, "M", 0x0, "E", 0x0, "M", 0x0, " ", 0x0, "E", 0x0, "r"
	DCB	0x0, "r", 0x0, "o", 0x0, "r", 0x0, ":", 0x0, " ", 0x0, " "
	DCB	0x0, " ", 0x0, " ", 0x0, " ", 0x0, "g", 0x0, "o", 0x0, "t"
	DCB	0x0, " ", 0x0, "m", 0x0, "i", 0x0, "n", 0x0, "o", 0x0, "r"
	DCB	0x0, " ", 0x0, "v", 0x0, "e", 0x0, "r", 0x0, "s", 0x0, "i"
	DCB	0x0, "o", 0x0, "n", 0x0, " ", 0x0, "%", 0x0, "#", 0x0, "x"
	DCB	0x0, " ", 0x0, "(", 0x0, "f", 0x0, "u", 0x0, "l", 0x0, "l"
	DCB	0x0, " ", 0x0, "v", 0x0, "e", 0x0, "r", 0x0, "s", 0x0, "i"
	DCB	0x0, "o", 0x0, "n", 0x0, " ", 0x0, "%", 0x0, "#", 0x0, "x"
	DCB	0x0, ")", 0x0, 0xa, 0x0, 0x0, 0x0	; `string'

  00000			 AREA	 |.rdata|, DATA, READONLY
|??_C@_1HI@IPLHLEIN@?$AAC?$AAM?$AAE?$AAM?$AA?5?$AAE?$AAr?$AAr?$AAo?$AAr?$AA?3?$AA?5?$AA?5?$AA?5?$AA?5?$AA?5?$AAn?$AAe?$AAe?$AAd?$AAs?$AA?5?$AAd?$AAr?$AAi?$AAv?$AAe?$AAr?$AA?5?$AAm?$AAi?$AAn@| DCB "C"
	DCB	0x0, "M", 0x0, "E", 0x0, "M", 0x0, " ", 0x0, "E", 0x0, "r"
	DCB	0x0, "r", 0x0, "o", 0x0, "r", 0x0, ":", 0x0, " ", 0x0, " "
	DCB	0x0, " ", 0x0, " ", 0x0, " ", 0x0, "n", 0x0, "e", 0x0, "e"
	DCB	0x0, "d", 0x0, "s", 0x0, " ", 0x0, "d", 0x0, "r", 0x0, "i"
	DCB	0x0, "v", 0x0, "e", 0x0, "r", 0x0, " ", 0x0, "m", 0x0, "i"
	DCB	0x0, "n", 0x0, "o", 0x0, "r", 0x0, " ", 0x0, "v", 0x0, "e"
	DCB	0x0, "r", 0x0, "s", 0x0, "i", 0x0, "o", 0x0, "n", 0x0, " "
	DCB	0x0, "%", 0x0, "#", 0x0, "x", 0x0, " ", 0x0, "o", 0x0, "r"
	DCB	0x0, " ", 0x0, "g", 0x0, "r", 0x0, "e", 0x0, "a", 0x0, "t"
	DCB	0x0, "e", 0x0, "r", 0x0, ".", 0x0, 0xa, 0x0, 0x0, 0x0 ; `string'

  00000			 AREA	 |.rdata|, DATA, READONLY
|??_C@_1JA@JFMBJBAB@?$AAC?$AAM?$AAE?$AAM?$AA?5?$AAE?$AAr?$AAr?$AAo?$AAr?$AA?3?$AA?5?$AAi?$AAn?$AAi?$AAt?$AA?3?$AA?5?$AAm?$AAi?$AAn?$AAo?$AAr?$AA?5?$AAv?$AAe?$AAr?$AAs?$AAi?$AAo?$AAn?$AA?5@| DCB "C"
	DCB	0x0, "M", 0x0, "E", 0x0, "M", 0x0, " ", 0x0, "E", 0x0, "r"
	DCB	0x0, "r", 0x0, "o", 0x0, "r", 0x0, ":", 0x0, " ", 0x0, "i"
	DCB	0x0, "n", 0x0, "i", 0x0, "t", 0x0, ":", 0x0, " ", 0x0, "m"
	DCB	0x0, "i", 0x0, "n", 0x0, "o", 0x0, "r", 0x0, " ", 0x0, "v"
	DCB	0x0, "e", 0x0, "r", 0x0, "s", 0x0, "i", 0x0, "o", 0x0, "n"
	DCB	0x0, " ", 0x0, "m", 0x0, "i", 0x0, "s", 0x0, "m", 0x0, "a"
	DCB	0x0, "t", 0x0, "c", 0x0, "h", 0x0, " ", 0x0, "b", 0x0, "e"
	DCB	0x0, "t", 0x0, "w", 0x0, "e", 0x0, "e", 0x0, "n", 0x0, " "
	DCB	0x0, "i", 0x0, "n", 0x0, "t", 0x0, "e", 0x0, "r", 0x0, "f"
	DCB	0x0, "a", 0x0, "c", 0x0, "e", 0x0, " ", 0x0, "a", 0x0, "n"
	DCB	0x0, "d", 0x0, " ", 0x0, "d", 0x0, "r", 0x0, "i", 0x0, "v"
	DCB	0x0, "e", 0x0, "r", 0x0, ".", 0x0, 0xa, 0x0, 0x0, 0x0 ; `string'

  00000			 AREA	 |.rdata|, DATA, READONLY
|??_C@_1GG@INBHPGOM@?$AAC?$AAM?$AAE?$AAM?$AA?5?$AAE?$AAr?$AAr?$AAo?$AAr?$AA?3?$AA?5?$AA?5?$AA?5?$AA?5?$AA?5?$AAn?$AAe?$AAe?$AAd?$AAs?$AA?5?$AAd?$AAr?$AAi?$AAv?$AAe?$AAr?$AA?5?$AAv?$AAe?$AAr@| DCB "C"
	DCB	0x0, "M", 0x0, "E", 0x0, "M", 0x0, " ", 0x0, "E", 0x0, "r"
	DCB	0x0, "r", 0x0, "o", 0x0, "r", 0x0, ":", 0x0, " ", 0x0, " "
	DCB	0x0, " ", 0x0, " ", 0x0, " ", 0x0, "n", 0x0, "e", 0x0, "e"
	DCB	0x0, "d", 0x0, "s", 0x0, " ", 0x0, "d", 0x0, "r", 0x0, "i"
	DCB	0x0, "v", 0x0, "e", 0x0, "r", 0x0, " ", 0x0, "v", 0x0, "e"
	DCB	0x0, "r", 0x0, "s", 0x0, "i", 0x0, "o", 0x0, "n", 0x0, " "
	DCB	0x0, "%", 0x0, "#", 0x0, "x", 0x0, ",", 0x0, " ", 0x0, "g"
	DCB	0x0, "o", 0x0, "t", 0x0, " ", 0x0, "%", 0x0, "#", 0x0, "x"
	DCB	0x0, 0xa, 0x0, 0x0, 0x0			; `string'

  00000			 AREA	 |.rdata|, DATA, READONLY
|??_C@_1JA@JEHKIDEP@?$AAC?$AAM?$AAE?$AAM?$AA?5?$AAE?$AAr?$AAr?$AAo?$AAr?$AA?3?$AA?5?$AAi?$AAn?$AAi?$AAt?$AA?3?$AA?5?$AAm?$AAa?$AAj?$AAo?$AAr?$AA?5?$AAv?$AAe?$AAr?$AAs?$AAi?$AAo?$AAn?$AA?5@| DCB "C"
	DCB	0x0, "M", 0x0, "E", 0x0, "M", 0x0, " ", 0x0, "E", 0x0, "r"
	DCB	0x0, "r", 0x0, "o", 0x0, "r", 0x0, ":", 0x0, " ", 0x0, "i"
	DCB	0x0, "n", 0x0, "i", 0x0, "t", 0x0, ":", 0x0, " ", 0x0, "m"
	DCB	0x0, "a", 0x0, "j", 0x0, "o", 0x0, "r", 0x0, " ", 0x0, "v"
	DCB	0x0, "e", 0x0, "r", 0x0, "s", 0x0, "i", 0x0, "o", 0x0, "n"
	DCB	0x0, " ", 0x0, "m", 0x0, "i", 0x0, "s", 0x0, "m", 0x0, "a"
	DCB	0x0, "t", 0x0, "c", 0x0, "h", 0x0, " ", 0x0, "b", 0x0, "e"
	DCB	0x0, "t", 0x0, "w", 0x0, "e", 0x0, "e", 0x0, "n", 0x0, " "
	DCB	0x0, "i", 0x0, "n", 0x0, "t", 0x0, "e", 0x0, "r", 0x0, "f"
	DCB	0x0, "a", 0x0, "c", 0x0, "e", 0x0, " ", 0x0, "a", 0x0, "n"
	DCB	0x0, "d", 0x0, " ", 0x0, "d", 0x0, "r", 0x0, "i", 0x0, "v"
	DCB	0x0, "e", 0x0, "r", 0x0, ".", 0x0, 0xa, 0x0, 0x0, 0x0 ; `string'

  00000			 AREA	 |.rdata|, DATA, READONLY
|??_C@_1JC@DJKOBHAE@?$AAC?$AAM?$AAE?$AAM?$AA?5?$AAD?$AAe?$AAb?$AAu?$AAg?$AA?3?$AA?5?$AAi?$AAn?$AAi?$AAt?$AA?3?$AA?5?$AAs?$AAu?$AAc?$AAc?$AAe?$AAs?$AAs?$AAf?$AAu?$AAl?$AAl?$AAy?$AA?5?$AAo@| DCB "C"
	DCB	0x0, "M", 0x0, "E", 0x0, "M", 0x0, " ", 0x0, "D", 0x0, "e"
	DCB	0x0, "b", 0x0, "u", 0x0, "g", 0x0, ":", 0x0, " ", 0x0, "i"
	DCB	0x0, "n", 0x0, "i", 0x0, "t", 0x0, ":", 0x0, " ", 0x0, "s"
	DCB	0x0, "u", 0x0, "c", 0x0, "c", 0x0, "e", 0x0, "s", 0x0, "s"
	DCB	0x0, "f", 0x0, "u", 0x0, "l", 0x0, "l", 0x0, "y", 0x0, " "
	DCB	0x0, "o", 0x0, "p", 0x0, "e", 0x0, "n", 0x0, "e", 0x0, "d"
	DCB	0x0, " ", 0x0, "C", 0x0, "M", 0x0, "K", 0x0, "1", 0x0, ":"
	DCB	0x0, ",", 0x0, " ", 0x0, "m", 0x0, "a", 0x0, "t", 0x0, "c"
	DCB	0x0, "h", 0x0, "i", 0x0, "n", 0x0, "g", 0x0, " ", 0x0, "d"
	DCB	0x0, "r", 0x0, "i", 0x0, "v", 0x0, "e", 0x0, "r", 0x0, " "
	DCB	0x0, "v", 0x0, "e", 0x0, "r", 0x0, "s", 0x0, "i", 0x0, "o"
	DCB	0x0, "n", 0x0, ".", 0x0, ".", 0x0, ".", 0x0, 0xa, 0x0, 0x0
	DCB	0x0					; `string'

  00000			 AREA	 |.rdata|, DATA, READONLY
|??_C@_1FK@JLEDBNPH@?$AAC?$AAM?$AAE?$AAM?$AA?5?$AAE?$AAr?$AAr?$AAo?$AAr?$AA?3?$AA?5?$AAi?$AAn?$AAi?$AAt?$AA?3?$AA?5?$AAF?$AAa?$AAi?$AAl?$AAe?$AAd?$AA?5?$AAt?$AAo?$AA?5?$AAo?$AAp?$AAe?$AAn@| DCB "C"
	DCB	0x0, "M", 0x0, "E", 0x0, "M", 0x0, " ", 0x0, "E", 0x0, "r"
	DCB	0x0, "r", 0x0, "o", 0x0, "r", 0x0, ":", 0x0, " ", 0x0, "i"
	DCB	0x0, "n", 0x0, "i", 0x0, "t", 0x0, ":", 0x0, " ", 0x0, "F"
	DCB	0x0, "a", 0x0, "i", 0x0, "l", 0x0, "e", 0x0, "d", 0x0, " "
	DCB	0x0, "t", 0x0, "o", 0x0, " ", 0x0, "o", 0x0, "p", 0x0, "e"
	DCB	0x0, "n", 0x0, " ", 0x0, "C", 0x0, "M", 0x0, "K", 0x0, "1"
	DCB	0x0, ":", 0x0, " ", 0x0, "'", 0x0, "%", 0x0, "d", 0x0, "'"
	DCB	0x0, 0xa, 0x0, 0x0, 0x0			; `string'

  00000			 AREA	 |.rdata|, DATA, READONLY
|??_C@_1M@IMNEMCPG@?$AAC?$AAM?$AAK?$AA1?$AA?3?$AA?$AA@| DCB "C", 0x0, "M", 0x0
	DCB	"K", 0x0, "1", 0x0, ":", 0x0, 0x0, 0x0	; `string'

  00000			 AREA	 |.rdata|, DATA, READONLY
|??_C@_1IE@PDBOJMOO@?$AAC?$AAM?$AAE?$AAM?$AA?5?$AAD?$AAe?$AAb?$AAu?$AAg?$AA?3?$AA?5?$AAi?$AAn?$AAi?$AAt?$AA?3?$AA?5?$AAC?$AAM?$AAK?$AA1?$AA?3?$AA?5?$AAa?$AAl?$AAr?$AAe?$AAa?$AAd?$AAy?$AA?5@| DCB "C"
	DCB	0x0, "M", 0x0, "E", 0x0, "M", 0x0, " ", 0x0, "D", 0x0, "e"
	DCB	0x0, "b", 0x0, "u", 0x0, "g", 0x0, ":", 0x0, " ", 0x0, "i"
	DCB	0x0, "n", 0x0, "i", 0x0, "t", 0x0, ":", 0x0, " ", 0x0, "C"
	DCB	0x0, "M", 0x0, "K", 0x0, "1", 0x0, ":", 0x0, " ", 0x0, "a"
	DCB	0x0, "l", 0x0, "r", 0x0, "e", 0x0, "a", 0x0, "d", 0x0, "y"
	DCB	0x0, " ", 0x0, "o", 0x0, "p", 0x0, "e", 0x0, "n", 0x0, "e"
	DCB	0x0, "d", 0x0, ",", 0x0, " ", 0x0, "i", 0x0, "n", 0x0, "c"
	DCB	0x0, "r", 0x0, "e", 0x0, "m", 0x0, "e", 0x0, "n", 0x0, "t"
	DCB	0x0, "e", 0x0, "d", 0x0, " ", 0x0, "r", 0x0, "e", 0x0, "f"
	DCB	0x0, "_", 0x0, "c", 0x0, "o", 0x0, "u", 0x0, "n", 0x0, "t"
	DCB	0x0, " ", 0x0, "%", 0x0, "d", 0x0, 0xa, 0x0, 0x0, 0x0 ; `string'

  00000			 AREA	 |.rdata|, DATA, READONLY
|??_C@_1GI@CCDMEMBC@?$AAC?$AAM?$AAE?$AAM?$AA?5?$AAD?$AAe?$AAb?$AAu?$AAg?$AA?3?$AA?5?$AAi?$AAn?$AAi?$AAt?$AA?3?$AA?5?$AAe?$AAn?$AAt?$AAe?$AAr?$AAe?$AAd?$AA?5?$AA?9?$AA?5?$AAr?$AAe?$AAf?$AA_@| DCB "C"
	DCB	0x0, "M", 0x0, "E", 0x0, "M", 0x0, " ", 0x0, "D", 0x0, "e"
	DCB	0x0, "b", 0x0, "u", 0x0, "g", 0x0, ":", 0x0, " ", 0x0, "i"
	DCB	0x0, "n", 0x0, "i", 0x0, "t", 0x0, ":", 0x0, " ", 0x0, "e"
	DCB	0x0, "n", 0x0, "t", 0x0, "e", 0x0, "r", 0x0, "e", 0x0, "d"
	DCB	0x0, " ", 0x0, "-", 0x0, " ", 0x0, "r", 0x0, "e", 0x0, "f"
	DCB	0x0, "_", 0x0, "c", 0x0, "o", 0x0, "u", 0x0, "n", 0x0, "t"
	DCB	0x0, " ", 0x0, "%", 0x0, "d", 0x0, ",", 0x0, " ", 0x0, "h"
	DCB	0x0, "C", 0x0, "M", 0x0, "E", 0x0, "M", 0x0, " ", 0x0, "%"
	DCB	0x0, "d", 0x0, 0xa, 0x0, 0x0, 0x0	; `string'
; Function compile flags: /Odtp

  00000			 AREA	 |.text|, CODE, ARM

  00000		 |CMEM_init| PROC

; 91   : {

  00000		 |$LN10@CMEM_init|
  00000	e52de004	 str         lr, [sp, #-4]!
  00004	e24dd050	 sub         sp, sp, #0x50
  00008		 |$M37044|

; 92   :     SYSTEM_INFO  systemInfo;
; 93   :     unsigned int version;
; 94   : 
; 95   :     __D("init: entered - ref_count %d, hCMEM %d\n", ref_count, hCMEM);

  00008	e59f31e4	 ldr         r3, [pc, #0x1E4]
  0000c	e5932000	 ldr         r2, [r3]
  00010	e59f31d4	 ldr         r3, [pc, #0x1D4]
  00014	e5931000	 ldr         r1, [r3]
  00018	e59f01e4	 ldr         r0, [pc, #0x1E4]
  0001c	eb000000	 bl          NKDbgPrintfW

; 96   : 
; 97   :     if (hCMEM) {

  00020	e59f31cc	 ldr         r3, [pc, #0x1CC]
  00024	e5933000	 ldr         r3, [r3]
  00028	e3530000	 cmp         r3, #0
  0002c	0a00000b	 beq         |$LN5@CMEM_init|

; 98   :         ref_count++;

  00030	e59f31b4	 ldr         r3, [pc, #0x1B4]
  00034	e5933000	 ldr         r3, [r3]
  00038	e2832001	 add         r2, r3, #1
  0003c	e59f31a8	 ldr         r3, [pc, #0x1A8]
  00040	e5832000	 str         r2, [r3]

; 99   :         __D("init: CMK1: already opened, incremented ref_count %d\n",
; 100  :                 ref_count);

  00044	e59f31a0	 ldr         r3, [pc, #0x1A0]
  00048	e5931000	 ldr         r1, [r3]
  0004c	e59f01ac	 ldr         r0, [pc, #0x1AC]
  00050	eb000000	 bl          NKDbgPrintfW

; 101  :         return (0);

  00054	e3a03000	 mov         r3, #0
  00058	e58d3034	 str         r3, [sp, #0x34]
  0005c	ea000056	 b           |$LN6@CMEM_init|
  00060		 |$LN5@CMEM_init|

; 102  :     }
; 103  : 
; 104  :     hCMEM = CreateFile(L"CMK1:",
; 105  :             GENERIC_READ,
; 106  :             FILE_SHARE_READ,
; 107  :             NULL,
; 108  :             OPEN_EXISTING,
; 109  :             FILE_ATTRIBUTE_NORMAL,
; 110  :             NULL);

  00060	e3a03000	 mov         r3, #0
  00064	e58d3008	 str         r3, [sp, #8]
  00068	e3a03080	 mov         r3, #0x80
  0006c	e58d3004	 str         r3, [sp, #4]
  00070	e3a03003	 mov         r3, #3
  00074	e58d3000	 str         r3, [sp]
  00078	e3a03000	 mov         r3, #0
  0007c	e3a02001	 mov         r2, #1
  00080	e3a01102	 mov         r1, #2, 2
  00084	e59f0170	 ldr         r0, [pc, #0x170]
  00088	eb000000	 bl          CreateFileW
  0008c	e58d0044	 str         r0, [sp, #0x44]
  00090	e59d2044	 ldr         r2, [sp, #0x44]
  00094	e59f3158	 ldr         r3, [pc, #0x158]
  00098	e5832000	 str         r2, [r3]

; 111  : 
; 112  :     if (hCMEM == INVALID_HANDLE_VALUE) {

  0009c	e59f3150	 ldr         r3, [pc, #0x150]
  000a0	e5933000	 ldr         r3, [r3]
  000a4	e3730001	 cmn         r3, #1
  000a8	1a00000a	 bne         |$LN4@CMEM_init|

; 113  :         __E("init: Failed to open CMK1: '%d'\n", GetLastError());

  000ac	eb000000	 bl          GetLastError
  000b0	e58d0048	 str         r0, [sp, #0x48]
  000b4	e59d1048	 ldr         r1, [sp, #0x48]
  000b8	e59f0138	 ldr         r0, [pc, #0x138]
  000bc	eb000000	 bl          NKDbgPrintfW

; 114  :         hCMEM = NULL;

  000c0	e59f212c	 ldr         r2, [pc, #0x12C]
  000c4	e3a03000	 mov         r3, #0
  000c8	e5823000	 str         r3, [r2]

; 115  :         return (-1);

  000cc	e3e03000	 mvn         r3, #0
  000d0	e58d3034	 str         r3, [sp, #0x34]
  000d4	ea000038	 b           |$LN6@CMEM_init|
  000d8		 |$LN4@CMEM_init|

; 116  :     }
; 117  : 
; 118  :     GetSystemInfo(&systemInfo);

  000d8	e28d000c	 add         r0, sp, #0xC
  000dc	eb000000	 bl          GetSystemInfo

; 119  :     dwPageSize = systemInfo.dwPageSize;

  000e0	e59d2010	 ldr         r2, [sp, #0x10]
  000e4	e59f3104	 ldr         r3, [pc, #0x104]
  000e8	e5832000	 str         r2, [r3]

; 120  : 
; 121  :     ref_count++;

  000ec	e59f30f8	 ldr         r3, [pc, #0xF8]
  000f0	e5933000	 ldr         r3, [r3]
  000f4	e2832001	 add         r2, r3, #1
  000f8	e59f30ec	 ldr         r3, [pc, #0xEC]
  000fc	e5832000	 str         r2, [r3]

; 122  : 
; 123  :     __D("init: successfully opened CMK1:, matching driver version...\n");

  00100	e59f00e0	 ldr         r0, [pc, #0xE0]
  00104	eb000000	 bl          NKDbgPrintfW

; 124  : 
; 125  :     version = CMEM_getVersion();

  00108	eb000000	 bl          CMEM_getVersion
  0010c	e58d004c	 str         r0, [sp, #0x4C]
  00110	e59d304c	 ldr         r3, [sp, #0x4C]
  00114	e58d3030	 str         r3, [sp, #0x30]

; 126  :     if ((version & 0xffff0000) != (CMEM_VERSION & 0xffff0000)) {

  00118	e59d2030	 ldr         r2, [sp, #0x30]
  0011c	e3e03cff	 mvn         r3, #0xFF, 24
  00120	e22330ff	 eor         r3, r3, #0xFF
  00124	e0023003	 and         r3, r2, r3
  00128	e3530622	 cmp         r3, #0x22, 12
  0012c	0a00000a	 beq         |$LN3@CMEM_init|

; 127  :         __E("init: major version mismatch between interface and driver.\n");

  00130	e59f00ac	 ldr         r0, [pc, #0xAC]
  00134	eb000000	 bl          NKDbgPrintfW

; 128  :         __E("    needs driver version %#x, got %#x\n", CMEM_VERSION, version);

  00138	e59d2030	 ldr         r2, [sp, #0x30]
  0013c	e3a01622	 mov         r1, #0x22, 12
  00140	e59f0098	 ldr         r0, [pc, #0x98]
  00144	eb000000	 bl          NKDbgPrintfW

; 129  : 
; 130  :         CMEM_exit();

  00148	eb000000	 bl          CMEM_exit

; 131  : 
; 132  :         return (-1);

  0014c	e3e03000	 mvn         r3, #0
  00150	e58d3034	 str         r3, [sp, #0x34]
  00154	ea000018	 b           |$LN6@CMEM_init|
  00158	ea000010	 b           |$LN2@CMEM_init|
  0015c		 |$LN3@CMEM_init|

; 133  :     }
; 134  :     else if ((version & 0x0000ffff) < (CMEM_VERSION & 0x0000ffff)) {

  0015c	ea00000f	 b           |$LN1@CMEM_init|

; 135  :         __E("init: minor version mismatch between interface and driver.\n");

  00160	e59f0074	 ldr         r0, [pc, #0x74]
  00164	eb000000	 bl          NKDbgPrintfW

; 136  :         __E("    needs driver minor version %#x or greater.\n",
; 137  :                 CMEM_VERSION & 0x0000ffff);

  00168	e3a01000	 mov         r1, #0
  0016c	e59f0064	 ldr         r0, [pc, #0x64]
  00170	eb000000	 bl          NKDbgPrintfW

; 138  :         __E("    got minor version %#x (full version %#x)\n",
; 139  :                 version & 0x0000ffff, version);

  00174	e59d2030	 ldr         r2, [sp, #0x30]
  00178	e59d1030	 ldr         r1, [sp, #0x30]
  0017c	e3a03cff	 mov         r3, #0xFF, 24
  00180	e38330ff	 orr         r3, r3, #0xFF
  00184	e0011003	 and         r1, r1, r3
  00188	e59f0044	 ldr         r0, [pc, #0x44]
  0018c	eb000000	 bl          NKDbgPrintfW

; 140  : 
; 141  :         CMEM_exit();

  00190	eb000000	 bl          CMEM_exit

; 142  : 
; 143  :         return (-1);

  00194	e3e03000	 mvn         r3, #0
  00198	e58d3034	 str         r3, [sp, #0x34]
  0019c	ea000006	 b           |$LN6@CMEM_init|
  001a0		 |$LN1@CMEM_init|
  001a0		 |$LN2@CMEM_init|

; 144  :     }
; 145  : 
; 146  :     __D("init: ... match good (%#x)\n", version);

  001a0	e59d1030	 ldr         r1, [sp, #0x30]
  001a4	e59f0024	 ldr         r0, [pc, #0x24]
  001a8	eb000000	 bl          NKDbgPrintfW

; 147  :     __D("init: exiting, returning success\n");

  001ac	e59f0018	 ldr         r0, [pc, #0x18]
  001b0	eb000000	 bl          NKDbgPrintfW

; 148  : 
; 149  :     return (0);

  001b4	e3a03000	 mov         r3, #0
  001b8	e58d3034	 str         r3, [sp, #0x34]
  001bc		 |$LN6@CMEM_init|

; 150  : }

  001bc	e59d0034	 ldr         r0, [sp, #0x34]
  001c0	e28dd050	 add         sp, sp, #0x50
  001c4	e49de004	 ldr         lr, [sp], #4
  001c8	e12fff1e	 bx          lr
  001cc		 |$LN11@CMEM_init|
  001cc		 |$LN12@CMEM_init|
  001cc	00000000	 DCD         |??_C@_1FM@NMIHGKJ@?$AAC?$AAM?$AAE?$AAM?$AA?5?$AAD?$AAe?$AAb?$AAu?$AAg?$AA?3?$AA?5?$AAi?$AAn?$AAi?$AAt?$AA?3?$AA?5?$AAe?$AAx?$AAi?$AAt?$AAi?$AAn?$AAg?$AA?0?$AA?5?$AAr?$AAe?$AAt?$AAu?$AAr@|
  001d0		 |$LN13@CMEM_init|
  001d0	00000000	 DCD         |??_C@_1FA@NJLNJHHI@?$AAC?$AAM?$AAE?$AAM?$AA?5?$AAD?$AAe?$AAb?$AAu?$AAg?$AA?3?$AA?5?$AAi?$AAn?$AAi?$AAt?$AA?3?$AA?5?$AA?4?$AA?4?$AA?4?$AA?5?$AAm?$AAa?$AAt?$AAc?$AAh?$AA?5?$AAg?$AAo?$AAo?$AAd@|
  001d4		 |$LN14@CMEM_init|
  001d4	00000000	 DCD         |??_C@_1HE@ODCHBFDB@?$AAC?$AAM?$AAE?$AAM?$AA?5?$AAE?$AAr?$AAr?$AAo?$AAr?$AA?3?$AA?5?$AA?5?$AA?5?$AA?5?$AA?5?$AAg?$AAo?$AAt?$AA?5?$AAm?$AAi?$AAn?$AAo?$AAr?$AA?5?$AAv?$AAe?$AAr?$AAs?$AAi?$AAo@|
  001d8		 |$LN15@CMEM_init|
  001d8	00000000	 DCD         |??_C@_1HI@IPLHLEIN@?$AAC?$AAM?$AAE?$AAM?$AA?5?$AAE?$AAr?$AAr?$AAo?$AAr?$AA?3?$AA?5?$AA?5?$AA?5?$AA?5?$AA?5?$AAn?$AAe?$AAe?$AAd?$AAs?$AA?5?$AAd?$AAr?$AAi?$AAv?$AAe?$AAr?$AA?5?$AAm?$AAi?$AAn@|
  001dc		 |$LN16@CMEM_init|
  001dc	00000000	 DCD         |??_C@_1JA@JFMBJBAB@?$AAC?$AAM?$AAE?$AAM?$AA?5?$AAE?$AAr?$AAr?$AAo?$AAr?$AA?3?$AA?5?$AAi?$AAn?$AAi?$AAt?$AA?3?$AA?5?$AAm?$AAi?$AAn?$AAo?$AAr?$AA?5?$AAv?$AAe?$AAr?$AAs?$AAi?$AAo?$AAn?$AA?5@|
  001e0		 |$LN17@CMEM_init|
  001e0	00000000	 DCD         |??_C@_1GG@INBHPGOM@?$AAC?$AAM?$AAE?$AAM?$AA?5?$AAE?$AAr?$AAr?$AAo?$AAr?$AA?3?$AA?5?$AA?5?$AA?5?$AA?5?$AA?5?$AAn?$AAe?$AAe?$AAd?$AAs?$AA?5?$AAd?$AAr?$AAi?$AAv?$AAe?$AAr?$AA?5?$AAv?$AAe?$AAr@|
  001e4		 |$LN18@CMEM_init|
  001e4	00000000	 DCD         |??_C@_1JA@JEHKIDEP@?$AAC?$AAM?$AAE?$AAM?$AA?5?$AAE?$AAr?$AAr?$AAo?$AAr?$AA?3?$AA?5?$AAi?$AAn?$AAi?$AAt?$AA?3?$AA?5?$AAm?$AAa?$AAj?$AAo?$AAr?$AA?5?$AAv?$AAe?$AAr?$AAs?$AAi?$AAo?$AAn?$AA?5@|
  001e8		 |$LN19@CMEM_init|
  001e8	00000000	 DCD         |??_C@_1JC@DJKOBHAE@?$AAC?$AAM?$AAE?$AAM?$AA?5?$AAD?$AAe?$AAb?$AAu?$AAg?$AA?3?$AA?5?$AAi?$AAn?$AAi?$AAt?$AA?3?$AA?5?$AAs?$AAu?$AAc?$AAc?$AAe?$AAs?$AAs?$AAf?$AAu?$AAl?$AAl?$AAy?$AA?5?$AAo@|
  001ec		 |$LN20@CMEM_init|
  001ec	00000000	 DCD         |ref_count|
  001f0		 |$LN21@CMEM_init|
  001f0	00000000	 DCD         |dwPageSize|
  001f4		 |$LN22@CMEM_init|
  001f4	00000000	 DCD         |hCMEM|
  001f8		 |$LN23@CMEM_init|
  001f8	00000000	 DCD         |??_C@_1FK@JLEDBNPH@?$AAC?$AAM?$AAE?$AAM?$AA?5?$AAE?$AAr?$AAr?$AAo?$AAr?$AA?3?$AA?5?$AAi?$AAn?$AAi?$AAt?$AA?3?$AA?5?$AAF?$AAa?$AAi?$AAl?$AAe?$AAd?$AA?5?$AAt?$AAo?$AA?5?$AAo?$AAp?$AAe?$AAn@|
  001fc		 |$LN24@CMEM_init|
  001fc	00000000	 DCD         |??_C@_1M@IMNEMCPG@?$AAC?$AAM?$AAK?$AA1?$AA?3?$AA?$AA@|
  00200		 |$LN25@CMEM_init|
  00200	00000000	 DCD         |??_C@_1IE@PDBOJMOO@?$AAC?$AAM?$AAE?$AAM?$AA?5?$AAD?$AAe?$AAb?$AAu?$AAg?$AA?3?$AA?5?$AAi?$AAn?$AAi?$AAt?$AA?3?$AA?5?$AAC?$AAM?$AAK?$AA1?$AA?3?$AA?5?$AAa?$AAl?$AAr?$AAe?$AAa?$AAd?$AAy?$AA?5@|
  00204		 |$LN26@CMEM_init|
  00204	00000000	 DCD         |??_C@_1GI@CCDMEMBC@?$AAC?$AAM?$AAE?$AAM?$AA?5?$AAD?$AAe?$AAb?$AAu?$AAg?$AA?3?$AA?5?$AAi?$AAn?$AAi?$AAt?$AA?3?$AA?5?$AAe?$AAn?$AAt?$AAe?$AAr?$AAe?$AAd?$AA?5?$AA?9?$AA?5?$AAr?$AAe?$AAf?$AA_@|
  00208		 |$M37045|

			 ENDP  ; |CMEM_init|

	EXPORT	|??_C@_1KE@CJGOLPKN@?$AAC?$AAM?$AAE?$AAM?$AA?5?$AAD?$AAe?$AAb?$AAu?$AAg?$AA?3?$AA?5?$AAa?$AAl?$AAl?$AAo?$AAc?$AA?3?$AA?5?$AAe?$AAn?$AAt?$AAe?$AAr?$AAe?$AAd?$AA?5?$AAw?$AA?1?$AA?5?$AAs?$AAi@| [ DATA ] ; `string'
	EXPORT	|??_C@_19PPGMMKDP@?$AAH?$AAE?$AAA?$AAP?$AA?$AA@| [ DATA ] ; `string'
	EXPORT	|??_C@_19HKBAJOLM@?$AAP?$AAO?$AAO?$AAL?$AA?$AA@| [ DATA ] ; `string'
	EXPORT	|??_C@_1BE@MMCMEDKB@?$AAN?$AAO?$AAN?$AAC?$AAA?$AAC?$AAH?$AAE?$AAD?$AA?$AA@| [ DATA ] ; `string'
	EXPORT	|??_C@_1O@HMEMJOMD@?$AAC?$AAA?$AAC?$AAH?$AAE?$AAD?$AA?$AA@| [ DATA ] ; `string'
	EXPORT	|??_C@_11LOCGONAA@?$AA?$AA@| [ DATA ]	; `string'
	EXPORT	|??_C@_1BG@OKFAKFBB@?$AA?5?$AA?$CI?$AAd?$AAe?$AAf?$AAa?$AAu?$AAl?$AAt?$AA?$CJ?$AA?$AA@| [ DATA ] ; `string'
	EXPORT	|alloc|

  00008			 AREA	 |.pdata|, PDATA
|$T37077| DCD	|$LN15@alloc|
	DCD	0x40005804

  00000			 AREA	 |.rdata|, DATA, READONLY
|??_C@_1KE@CJGOLPKN@?$AAC?$AAM?$AAE?$AAM?$AA?5?$AAD?$AAe?$AAb?$AAu?$AAg?$AA?3?$AA?5?$AAa?$AAl?$AAl?$AAo?$AAc?$AA?3?$AA?5?$AAe?$AAn?$AAt?$AAe?$AAr?$AAe?$AAd?$AA?5?$AAw?$AA?1?$AA?5?$AAs?$AAi@| DCB "C"
	DCB	0x0, "M", 0x0, "E", 0x0, "M", 0x0, " ", 0x0, "D", 0x0, "e"
	DCB	0x0, "b", 0x0, "u", 0x0, "g", 0x0, ":", 0x0, " ", 0x0, "a"
	DCB	0x0, "l", 0x0, "l", 0x0, "o", 0x0, "c", 0x0, ":", 0x0, " "
	DCB	0x0, "e", 0x0, "n", 0x0, "t", 0x0, "e", 0x0, "r", 0x0, "e"
	DCB	0x0, "d", 0x0, " ", 0x0, "w", 0x0, "/", 0x0, " ", 0x0, "s"
	DCB	0x0, "i", 0x0, "z", 0x0, "e", 0x0, " ", 0x0, "%", 0x0, "#"
	DCB	0x0, "x", 0x0, ",", 0x0, " ", 0x0, "p", 0x0, "a", 0x0, "r"
	DCB	0x0, "a", 0x0, "m", 0x0, "s", 0x0, " ", 0x0, "-", 0x0, " "
	DCB	0x0, "t", 0x0, "y", 0x0, "p", 0x0, "e", 0x0, " ", 0x0, "%"
	DCB	0x0, "s", 0x0, ",", 0x0, " ", 0x0, "f", 0x0, "l", 0x0, "a"
	DCB	0x0, "g", 0x0, "s", 0x0, " ", 0x0, "%", 0x0, "s", 0x0, ","
	DCB	0x0, " ", 0x0, "a", 0x0, "l", 0x0, "i", 0x0, "g", 0x0, "n"
	DCB	0x0, " ", 0x0, "%", 0x0, "#", 0x0, "x", 0x0, " ", 0x0, "%"
	DCB	0x0, "s", 0x0, 0xa, 0x0, 0x0, 0x0	; `string'

  00000			 AREA	 |.rdata|, DATA, READONLY
|??_C@_19PPGMMKDP@?$AAH?$AAE?$AAA?$AAP?$AA?$AA@| DCB "H", 0x0, "E", 0x0, "A"
	DCB	0x0, "P", 0x0, 0x0, 0x0			; `string'

  00000			 AREA	 |.rdata|, DATA, READONLY
|??_C@_19HKBAJOLM@?$AAP?$AAO?$AAO?$AAL?$AA?$AA@| DCB "P", 0x0, "O", 0x0, "O"
	DCB	0x0, "L", 0x0, 0x0, 0x0			; `string'

  00000			 AREA	 |.rdata|, DATA, READONLY
|??_C@_1BE@MMCMEDKB@?$AAN?$AAO?$AAN?$AAC?$AAA?$AAC?$AAH?$AAE?$AAD?$AA?$AA@| DCB "N"
	DCB	0x0, "O", 0x0, "N", 0x0, "C", 0x0, "A", 0x0, "C", 0x0, "H"
	DCB	0x0, "E", 0x0, "D", 0x0, 0x0, 0x0	; `string'

  00000			 AREA	 |.rdata|, DATA, READONLY
|??_C@_1O@HMEMJOMD@?$AAC?$AAA?$AAC?$AAH?$AAE?$AAD?$AA?$AA@| DCB "C", 0x0, "A"
	DCB	0x0, "C", 0x0, "H", 0x0, "E", 0x0, "D", 0x0, 0x0, 0x0 ; `string'

  00000			 AREA	 |.rdata|, DATA, READONLY
|??_C@_11LOCGONAA@?$AA?$AA@| DCB 0x0, 0x0		; `string'

  00000			 AREA	 |.rdata|, DATA, READONLY
|??_C@_1BG@OKFAKFBB@?$AA?5?$AA?$CI?$AAd?$AAe?$AAf?$AAa?$AAu?$AAl?$AAt?$AA?$CJ?$AA?$AA@| DCB " "
	DCB	0x0, "(", 0x0, "d", 0x0, "e", 0x0, "f", 0x0, "a", 0x0, "u"
	DCB	0x0, "l", 0x0, "t", 0x0, ")", 0x0, 0x0, 0x0 ; `string'
; Function compile flags: /Odtp

  00208			 AREA	 |.text|, CODE, ARM

  00208		 |alloc| PROC

; 238  : {

  00208		 |$LN15@alloc|
  00208	e1a0c00d	 mov         r12, sp
  0020c	e92d0007	 stmdb       sp!, {r0 - r2}
  00210	e92d5000	 stmdb       sp!, {r12, lr}
  00214	e24dd02c	 sub         sp, sp, #0x2C
  00218		 |$M37074|

; 239  :     if (params == NULL) {

  00218	e59d303c	 ldr         r3, [sp, #0x3C]
  0021c	e3530000	 cmp         r3, #0
  00220	1a000001	 bne         |$LN4@alloc|

; 240  :         params = &CMEM_DEFAULTPARAMS;

  00224	e59f3138	 ldr         r3, [pc, #0x138]
  00228	e58d303c	 str         r3, [sp, #0x3C]
  0022c		 |$LN4@alloc|

; 241  :     }
; 242  : 
; 243  :     __D("alloc: entered w/ size %#x, params - type %s, flags %s, align %#x %s\n",
; 244  :             size,
; 245  :             params->type == CMEM_POOL ? L"POOL" : L"HEAP",
; 246  :             params->flags & CMEM_CACHED ? L"CACHED" : L"NONCACHED",
; 247  :             params->alignment,
; 248  :             params == &CMEM_DEFAULTPARAMS ? L" (default)" : L"");

  0022c	e59d203c	 ldr         r2, [sp, #0x3C]
  00230	e59f312c	 ldr         r3, [pc, #0x12C]
  00234	e1520003	 cmp         r2, r3
  00238	1a000002	 bne         |$LN7@alloc|
  0023c	e59f311c	 ldr         r3, [pc, #0x11C]
  00240	e58d3014	 str         r3, [sp, #0x14]
  00244	ea000001	 b           |$LN8@alloc|
  00248		 |$LN7@alloc|
  00248	e59f310c	 ldr         r3, [pc, #0x10C]
  0024c	e58d3014	 str         r3, [sp, #0x14]
  00250		 |$LN8@alloc|
  00250	e59d303c	 ldr         r3, [sp, #0x3C]
  00254	e2833004	 add         r3, r3, #4
  00258	e5933000	 ldr         r3, [r3]
  0025c	e3130b02	 tst         r3, #2, 22
  00260	0a000002	 beq         |$LN9@alloc|
  00264	e59f30ec	 ldr         r3, [pc, #0xEC]
  00268	e58d3018	 str         r3, [sp, #0x18]
  0026c	ea000001	 b           |$LN10@alloc|
  00270		 |$LN9@alloc|
  00270	e59f30dc	 ldr         r3, [pc, #0xDC]
  00274	e58d3018	 str         r3, [sp, #0x18]
  00278		 |$LN10@alloc|
  00278	e59d303c	 ldr         r3, [sp, #0x3C]
  0027c	e5933000	 ldr         r3, [r3]
  00280	e3530000	 cmp         r3, #0
  00284	1a000002	 bne         |$LN11@alloc|
  00288	e59f30c0	 ldr         r3, [pc, #0xC0]
  0028c	e58d301c	 str         r3, [sp, #0x1C]
  00290	ea000001	 b           |$LN12@alloc|
  00294		 |$LN11@alloc|
  00294	e59f30b0	 ldr         r3, [pc, #0xB0]
  00298	e58d301c	 str         r3, [sp, #0x1C]
  0029c		 |$LN12@alloc|
  0029c	e59d3014	 ldr         r3, [sp, #0x14]
  002a0	e58d3004	 str         r3, [sp, #4]
  002a4	e59d303c	 ldr         r3, [sp, #0x3C]
  002a8	e2833008	 add         r3, r3, #8
  002ac	e5933000	 ldr         r3, [r3]
  002b0	e58d3000	 str         r3, [sp]
  002b4	e59d3018	 ldr         r3, [sp, #0x18]
  002b8	e59d201c	 ldr         r2, [sp, #0x1C]
  002bc	e59d1038	 ldr         r1, [sp, #0x38]
  002c0	e59f0080	 ldr         r0, [pc, #0x80]
  002c4	eb000000	 bl          NKDbgPrintfW

; 249  : 
; 250  :     if (!validate_init()) {

  002c8	eb000000	 bl          validate_init
  002cc	e58d0020	 str         r0, [sp, #0x20]
  002d0	e59d3020	 ldr         r3, [sp, #0x20]
  002d4	e3530000	 cmp         r3, #0
  002d8	1a000002	 bne         |$LN3@alloc|

; 251  :         return NULL;

  002dc	e3a03000	 mov         r3, #0
  002e0	e58d3010	 str         r3, [sp, #0x10]
  002e4	ea000013	 b           |$LN5@alloc|
  002e8		 |$LN3@alloc|

; 252  :     }
; 253  : 
; 254  :     if (params->type == CMEM_POOL) {

  002e8	e59d303c	 ldr         r3, [sp, #0x3C]
  002ec	e5933000	 ldr         r3, [r3]
  002f0	e3530000	 cmp         r3, #0
  002f4	1a000008	 bne         |$LN2@alloc|

; 255  :         return getAndAllocFromPool(blockid, size, params);

  002f8	e59d203c	 ldr         r2, [sp, #0x3C]
  002fc	e59d1038	 ldr         r1, [sp, #0x38]
  00300	e59d0034	 ldr         r0, [sp, #0x34]
  00304	eb000000	 bl          getAndAllocFromPool
  00308	e58d0024	 str         r0, [sp, #0x24]
  0030c	e59d3024	 ldr         r3, [sp, #0x24]
  00310	e58d3010	 str         r3, [sp, #0x10]
  00314	ea000007	 b           |$LN5@alloc|

; 256  :     }
; 257  :     else {

  00318	ea000006	 b           |$LN1@alloc|
  0031c		 |$LN2@alloc|

; 258  :         return allocFromHeap(blockid, size, params);

  0031c	e59d203c	 ldr         r2, [sp, #0x3C]
  00320	e59d1038	 ldr         r1, [sp, #0x38]
  00324	e59d0034	 ldr         r0, [sp, #0x34]
  00328	eb000000	 bl          allocFromHeap
  0032c	e58d0028	 str         r0, [sp, #0x28]
  00330	e59d3028	 ldr         r3, [sp, #0x28]
  00334	e58d3010	 str         r3, [sp, #0x10]
  00338		 |$LN1@alloc|
  00338		 |$LN5@alloc|

; 259  :     }
; 260  : }

  00338	e59d0010	 ldr         r0, [sp, #0x10]
  0033c	e28dd02c	 add         sp, sp, #0x2C
  00340	e89d6000	 ldmia       sp, {sp, lr}
  00344	e12fff1e	 bx          lr
  00348		 |$LN16@alloc|
  00348		 |$LN17@alloc|
  00348	00000000	 DCD         |??_C@_1KE@CJGOLPKN@?$AAC?$AAM?$AAE?$AAM?$AA?5?$AAD?$AAe?$AAb?$AAu?$AAg?$AA?3?$AA?5?$AAa?$AAl?$AAl?$AAo?$AAc?$AA?3?$AA?5?$AAe?$AAn?$AAt?$AAe?$AAr?$AAe?$AAd?$AA?5?$AAw?$AA?1?$AA?5?$AAs?$AAi@|
  0034c		 |$LN18@alloc|
  0034c	00000000	 DCD         |??_C@_19PPGMMKDP@?$AAH?$AAE?$AAA?$AAP?$AA?$AA@|
  00350		 |$LN19@alloc|
  00350	00000000	 DCD         |??_C@_19HKBAJOLM@?$AAP?$AAO?$AAO?$AAL?$AA?$AA@|
  00354		 |$LN20@alloc|
  00354	00000000	 DCD         |??_C@_1BE@MMCMEDKB@?$AAN?$AAO?$AAN?$AAC?$AAA?$AAC?$AAH?$AAE?$AAD?$AA?$AA@|
  00358		 |$LN21@alloc|
  00358	00000000	 DCD         |??_C@_1O@HMEMJOMD@?$AAC?$AAA?$AAC?$AAH?$AAE?$AAD?$AA?$AA@|
  0035c		 |$LN22@alloc|
  0035c	00000000	 DCD         |??_C@_11LOCGONAA@?$AA?$AA@|
  00360		 |$LN23@alloc|
  00360	00000000	 DCD         |??_C@_1BG@OKFAKFBB@?$AA?5?$AA?$CI?$AAd?$AAe?$AAf?$AAa?$AAu?$AAl?$AAt?$AA?$CJ?$AA?$AA@|
  00364		 |$LN24@alloc|
  00364	00000000	 DCD         |CMEM_DEFAULTPARAMS|
  00368		 |$M37075|

			 ENDP  ; |alloc|

	EXPORT	|??_C@_1EG@GEKPGGFC@?$AAC?$AAM?$AAE?$AAM?$AA?5?$AAE?$AAr?$AAr?$AAo?$AAr?$AA?3?$AA?5?$AA?5?$AA?5?$AA?5?$AA?5?$AAf?$AAa?$AAi?$AAl?$AAu?$AAr?$AAe?$AA?5?$AAm?$AAe?$AAs?$AAs?$AAa?$AAg?$AAe?$AAs@| [ DATA ] ; `string'
	EXPORT	|??_C@_1IG@JBDDMLC@?$AAC?$AAM?$AAE?$AAM?$AA?5?$AAE?$AAr?$AAr?$AAo?$AAr?$AA?3?$AA?5?$AA?5?$AA?5?$AA?5?$AA?5?$AAI?$AAf?$AA?5?$AAC?$AAM?$AAE?$AAM?$AA_?$AAi?$AAn?$AAi?$AAt?$AA?$CI?$AA?$CJ?$AA?5?$AAw@| [ DATA ] ; `string'
	EXPORT	|??_C@_1HO@NKGOPDHM@?$AAC?$AAM?$AAE?$AAM?$AA?5?$AAE?$AAr?$AAr?$AAo?$AAr?$AA?3?$AA?5?$AA?5?$AA?5?$AA?5?$AA?5?$AAi?$AAn?$AAi?$AAt?$AAi?$AAa?$AAl?$AAi?$AAz?$AAe?$AA?5?$AAC?$AAM?$AAE?$AAM?$AA?5@| [ DATA ] ; `string'
	EXPORT	|??_C@_1II@BDPOLLKM@?$AAC?$AAM?$AAE?$AAM?$AA?5?$AAE?$AAr?$AAr?$AAo?$AAr?$AA?3?$AA?5?$AAE?$AAi?$AAt?$AAh?$AAe?$AAr?$AA?5?$AAC?$AAM?$AAE?$AAM?$AA_?$AAi?$AAn?$AAi?$AAt?$AA?$CI?$AA?$CJ?$AA?5?$AAw@| [ DATA ] ; `string'

  00010			 AREA	 |.pdata|, PDATA
|$T37092| DCD	|$LN6@validate_i|
	DCD	0x40001c02

  00000			 AREA	 |.rdata|, DATA, READONLY
|??_C@_1EG@GEKPGGFC@?$AAC?$AAM?$AAE?$AAM?$AA?5?$AAE?$AAr?$AAr?$AAo?$AAr?$AA?3?$AA?5?$AA?5?$AA?5?$AA?5?$AA?5?$AAf?$AAa?$AAi?$AAl?$AAu?$AAr?$AAe?$AA?5?$AAm?$AAe?$AAs?$AAs?$AAa?$AAg?$AAe?$AAs@| DCB "C"
	DCB	0x0, "M", 0x0, "E", 0x0, "M", 0x0, " ", 0x0, "E", 0x0, "r"
	DCB	0x0, "r", 0x0, "o", 0x0, "r", 0x0, ":", 0x0, " ", 0x0, " "
	DCB	0x0, " ", 0x0, " ", 0x0, " ", 0x0, "f", 0x0, "a", 0x0, "i"
	DCB	0x0, "l", 0x0, "u", 0x0, "r", 0x0, "e", 0x0, " ", 0x0, "m"
	DCB	0x0, "e", 0x0, "s", 0x0, "s", 0x0, "a", 0x0, "g", 0x0, "e"
	DCB	0x0, "s", 0x0, ".", 0x0, 0xa, 0x0, 0x0, 0x0 ; `string'

  00000			 AREA	 |.rdata|, DATA, READONLY
|??_C@_1IG@JBDDMLC@?$AAC?$AAM?$AAE?$AAM?$AA?5?$AAE?$AAr?$AAr?$AAo?$AAr?$AA?3?$AA?5?$AA?5?$AA?5?$AA?5?$AA?5?$AAI?$AAf?$AA?5?$AAC?$AAM?$AAE?$AAM?$AA_?$AAi?$AAn?$AAi?$AAt?$AA?$CI?$AA?$CJ?$AA?5?$AAw@| DCB "C"
	DCB	0x0, "M", 0x0, "E", 0x0, "M", 0x0, " ", 0x0, "E", 0x0, "r"
	DCB	0x0, "r", 0x0, "o", 0x0, "r", 0x0, ":", 0x0, " ", 0x0, " "
	DCB	0x0, " ", 0x0, " ", 0x0, " ", 0x0, "I", 0x0, "f", 0x0, " "
	DCB	0x0, "C", 0x0, "M", 0x0, "E", 0x0, "M", 0x0, "_", 0x0, "i"
	DCB	0x0, "n", 0x0, "i", 0x0, "t", 0x0, "(", 0x0, ")", 0x0, " "
	DCB	0x0, "w", 0x0, "a", 0x0, "s", 0x0, " ", 0x0, "c", 0x0, "a"
	DCB	0x0, "l", 0x0, "l", 0x0, "e", 0x0, "d", 0x0, ",", 0x0, " "
	DCB	0x0, "c", 0x0, "h", 0x0, "e", 0x0, "c", 0x0, "k", 0x0, " "
	DCB	0x0, "f", 0x0, "o", 0x0, "r", 0x0, " ", 0x0, "e", 0x0, "a"
	DCB	0x0, "r", 0x0, "l", 0x0, "i", 0x0, "e", 0x0, "r", 0x0, " "
	DCB	0x0, "C", 0x0, "M", 0x0, "E", 0x0, "M", 0x0, 0xa, 0x0, 0x0
	DCB	0x0					; `string'

  00000			 AREA	 |.rdata|, DATA, READONLY
|??_C@_1HO@NKGOPDHM@?$AAC?$AAM?$AAE?$AAM?$AA?5?$AAE?$AAr?$AAr?$AAo?$AAr?$AA?3?$AA?5?$AA?5?$AA?5?$AA?5?$AA?5?$AAi?$AAn?$AAi?$AAt?$AAi?$AAa?$AAl?$AAi?$AAz?$AAe?$AA?5?$AAC?$AAM?$AAE?$AAM?$AA?5@| DCB "C"
	DCB	0x0, "M", 0x0, "E", 0x0, "M", 0x0, " ", 0x0, "E", 0x0, "r"
	DCB	0x0, "r", 0x0, "o", 0x0, "r", 0x0, ":", 0x0, " ", 0x0, " "
	DCB	0x0, " ", 0x0, " ", 0x0, " ", 0x0, "i", 0x0, "n", 0x0, "i"
	DCB	0x0, "t", 0x0, "i", 0x0, "a", 0x0, "l", 0x0, "i", 0x0, "z"
	DCB	0x0, "e", 0x0, " ", 0x0, "C", 0x0, "M", 0x0, "E", 0x0, "M"
	DCB	0x0, " ", 0x0, "b", 0x0, "e", 0x0, "f", 0x0, "o", 0x0, "r"
	DCB	0x0, "e", 0x0, " ", 0x0, "m", 0x0, "a", 0x0, "k", 0x0, "i"
	DCB	0x0, "n", 0x0, "g", 0x0, " ", 0x0, "C", 0x0, "M", 0x0, "E"
	DCB	0x0, "M", 0x0, " ", 0x0, "A", 0x0, "P", 0x0, "I", 0x0, " "
	DCB	0x0, "c", 0x0, "a", 0x0, "l", 0x0, "l", 0x0, "s", 0x0, "."
	DCB	0x0, 0xa, 0x0, 0x0, 0x0			; `string'

  00000			 AREA	 |.rdata|, DATA, READONLY
|??_C@_1II@BDPOLLKM@?$AAC?$AAM?$AAE?$AAM?$AA?5?$AAE?$AAr?$AAr?$AAo?$AAr?$AA?3?$AA?5?$AAE?$AAi?$AAt?$AAh?$AAe?$AAr?$AA?5?$AAC?$AAM?$AAE?$AAM?$AA_?$AAi?$AAn?$AAi?$AAt?$AA?$CI?$AA?$CJ?$AA?5?$AAw@| DCB "C"
	DCB	0x0, "M", 0x0, "E", 0x0, "M", 0x0, " ", 0x0, "E", 0x0, "r"
	DCB	0x0, "r", 0x0, "o", 0x0, "r", 0x0, ":", 0x0, " ", 0x0, "E"
	DCB	0x0, "i", 0x0, "t", 0x0, "h", 0x0, "e", 0x0, "r", 0x0, " "
	DCB	0x0, "C", 0x0, "M", 0x0, "E", 0x0, "M", 0x0, "_", 0x0, "i"
	DCB	0x0, "n", 0x0, "i", 0x0, "t", 0x0, "(", 0x0, ")", 0x0, " "
	DCB	0x0, "w", 0x0, "a", 0x0, "s", 0x0, " ", 0x0, "n", 0x0, "o"
	DCB	0x0, "t", 0x0, " ", 0x0, "c", 0x0, "a", 0x0, "l", 0x0, "l"
	DCB	0x0, "e", 0x0, "d", 0x0, ",", 0x0, " ", 0x0, "o", 0x0, "r"
	DCB	0x0, " ", 0x0, "f", 0x0, "a", 0x0, "i", 0x0, "l", 0x0, "e"
	DCB	0x0, "d", 0x0, ".", 0x0, " ", 0x0, "Y", 0x0, "o", 0x0, "u"
	DCB	0x0, " ", 0x0, "m", 0x0, "u", 0x0, "s", 0x0, "t", 0x0, 0xa
	DCB	0x0, 0x0, 0x0				; `string'
; Function compile flags: /Odtp

  00368			 AREA	 |.text|, CODE, ARM

  00368		 |validate_init| PROC

; 79   : {

  00368		 |$LN6@validate_i|
  00368	e52de004	 str         lr, [sp, #-4]!
  0036c	e24dd004	 sub         sp, sp, #4
  00370		 |$M37089|

; 80   :     if (hCMEM == NULL) {

  00370	e59f305c	 ldr         r3, [pc, #0x5C]
  00374	e5933000	 ldr         r3, [r3]
  00378	e3530000	 cmp         r3, #0
  0037c	1a00000a	 bne         |$LN1@validate_i|

; 81   :         __E("Either CMEM_init() was not called, or failed. You must\n");

  00380	e59f0048	 ldr         r0, [pc, #0x48]
  00384	eb000000	 bl          NKDbgPrintfW

; 82   :         __E("    initialize CMEM before making CMEM API calls.\n");

  00388	e59f003c	 ldr         r0, [pc, #0x3C]
  0038c	eb000000	 bl          NKDbgPrintfW

; 83   :         __E("    If CMEM_init() was called, check for earlier CMEM\n");

  00390	e59f0030	 ldr         r0, [pc, #0x30]
  00394	eb000000	 bl          NKDbgPrintfW

; 84   :         __E("    failure messages.\n");

  00398	e59f0024	 ldr         r0, [pc, #0x24]
  0039c	eb000000	 bl          NKDbgPrintfW

; 85   :         return (FALSE);

  003a0	e3a03000	 mov         r3, #0
  003a4	e58d3000	 str         r3, [sp]
  003a8	ea000001	 b           |$LN2@validate_i|
  003ac		 |$LN1@validate_i|

; 86   :     }
; 87   :     return (TRUE);

  003ac	e3a03001	 mov         r3, #1
  003b0	e58d3000	 str         r3, [sp]
  003b4		 |$LN2@validate_i|

; 88   : }

  003b4	e59d0000	 ldr         r0, [sp]
  003b8	e28dd004	 add         sp, sp, #4
  003bc	e49de004	 ldr         lr, [sp], #4
  003c0	e12fff1e	 bx          lr
  003c4		 |$LN7@validate_i|
  003c4		 |$LN8@validate_i|
  003c4	00000000	 DCD         |??_C@_1EG@GEKPGGFC@?$AAC?$AAM?$AAE?$AAM?$AA?5?$AAE?$AAr?$AAr?$AAo?$AAr?$AA?3?$AA?5?$AA?5?$AA?5?$AA?5?$AA?5?$AAf?$AAa?$AAi?$AAl?$AAu?$AAr?$AAe?$AA?5?$AAm?$AAe?$AAs?$AAs?$AAa?$AAg?$AAe?$AAs@|
  003c8		 |$LN9@validate_i|
  003c8	00000000	 DCD         |??_C@_1IG@JBDDMLC@?$AAC?$AAM?$AAE?$AAM?$AA?5?$AAE?$AAr?$AAr?$AAo?$AAr?$AA?3?$AA?5?$AA?5?$AA?5?$AA?5?$AA?5?$AAI?$AAf?$AA?5?$AAC?$AAM?$AAE?$AAM?$AA_?$AAi?$AAn?$AAi?$AAt?$AA?$CI?$AA?$CJ?$AA?5?$AAw@|
  003cc		 |$LN10@validate_i|
  003cc	00000000	 DCD         |??_C@_1HO@NKGOPDHM@?$AAC?$AAM?$AAE?$AAM?$AA?5?$AAE?$AAr?$AAr?$AAo?$AAr?$AA?3?$AA?5?$AA?5?$AA?5?$AA?5?$AA?5?$AAi?$AAn?$AAi?$AAt?$AAi?$AAa?$AAl?$AAi?$AAz?$AAe?$AA?5?$AAC?$AAM?$AAE?$AAM?$AA?5@|
  003d0		 |$LN11@validate_i|
  003d0	00000000	 DCD         |??_C@_1II@BDPOLLKM@?$AAC?$AAM?$AAE?$AAM?$AA?5?$AAE?$AAr?$AAr?$AAo?$AAr?$AA?3?$AA?5?$AAE?$AAi?$AAt?$AAh?$AAe?$AAr?$AA?5?$AAC?$AAM?$AAE?$AAM?$AA_?$AAi?$AAn?$AAi?$AAt?$AA?$CI?$AA?$CJ?$AA?5?$AAw@|
  003d4		 |$LN12@validate_i|
  003d4	00000000	 DCD         |hCMEM|
  003d8		 |$M37090|

			 ENDP  ; |validate_init|

	EXPORT	|CMEM_getPool2|

  00018			 AREA	 |.pdata|, PDATA
|$T37104| DCD	|$LN8@getAndAllo|
	DCD	0x40002704
; Function compile flags: /Odtp

  003d8			 AREA	 |.text|, CODE, ARM

  003d8		 |getAndAllocFromPool| PROC

; 180  : {

  003d8		 |$LN8@getAndAllo|
  003d8	e1a0c00d	 mov         r12, sp
  003dc	e92d0007	 stmdb       sp!, {r0 - r2}
  003e0	e92d5000	 stmdb       sp!, {r12, lr}
  003e4	e24dd014	 sub         sp, sp, #0x14
  003e8		 |$M37101|

; 181  :     int poolid;
; 182  : 
; 183  :     poolid = CMEM_getPool2(blockid, size);

  003e8	e59d1020	 ldr         r1, [sp, #0x20]
  003ec	e59d001c	 ldr         r0, [sp, #0x1C]
  003f0	eb000000	 bl          CMEM_getPool2
  003f4	e58d0008	 str         r0, [sp, #8]
  003f8	e59d3008	 ldr         r3, [sp, #8]
  003fc	e58d3000	 str         r3, [sp]

; 184  : 
; 185  :     if (poolid == -1) {

  00400	e59d3000	 ldr         r3, [sp]
  00404	e3730001	 cmn         r3, #1
  00408	1a000002	 bne         |$LN3@getAndAllo|

; 186  :         return (NULL);

  0040c	e3a03000	 mov         r3, #0
  00410	e58d3004	 str         r3, [sp, #4]
  00414	ea000012	 b           |$LN4@getAndAllo|
  00418		 |$LN3@getAndAllo|

; 187  :     }
; 188  :     if (poolid == -2) {

  00418	e59d3000	 ldr         r3, [sp]
  0041c	e3730002	 cmn         r3, #2
  00420	1a000008	 bne         |$LN2@getAndAllo|

; 189  :         /*
; 190  :          *  No pool was big enough, but the heap is, and we're allowed to
; 191  :          *  use the heap if a pool allocation fails.
; 192  :          */
; 193  :         return (allocFromHeap(blockid, size, params));

  00424	e59d2024	 ldr         r2, [sp, #0x24]
  00428	e59d1020	 ldr         r1, [sp, #0x20]
  0042c	e59d001c	 ldr         r0, [sp, #0x1C]
  00430	eb000000	 bl          allocFromHeap
  00434	e58d000c	 str         r0, [sp, #0xC]
  00438	e59d300c	 ldr         r3, [sp, #0xC]
  0043c	e58d3004	 str         r3, [sp, #4]
  00440	ea000007	 b           |$LN4@getAndAllo|

; 194  :     }
; 195  :     else {

  00444	ea000006	 b           |$LN1@getAndAllo|
  00448		 |$LN2@getAndAllo|

; 196  :         return (allocFromPool(blockid, poolid, params));

  00448	e59d2024	 ldr         r2, [sp, #0x24]
  0044c	e59d1000	 ldr         r1, [sp]
  00450	e59d001c	 ldr         r0, [sp, #0x1C]
  00454	eb000000	 bl          allocFromPool
  00458	e58d0010	 str         r0, [sp, #0x10]
  0045c	e59d3010	 ldr         r3, [sp, #0x10]
  00460	e58d3004	 str         r3, [sp, #4]
  00464		 |$LN1@getAndAllo|
  00464		 |$LN4@getAndAllo|

; 197  :     }
; 198  : }

  00464	e59d0004	 ldr         r0, [sp, #4]
  00468	e28dd014	 add         sp, sp, #0x14
  0046c	e89d6000	 ldmia       sp, {sp, lr}
  00470	e12fff1e	 bx          lr
  00474		 |$M37102|

			 ENDP  ; |getAndAllocFromPool|

	EXPORT	|??_C@_1IC@KCLBHEIA@?$AAC?$AAM?$AAE?$AAM?$AA?5?$AAD?$AAe?$AAb?$AAu?$AAg?$AA?3?$AA?5?$AAa?$AAl?$AAl?$AAo?$AAc?$AAP?$AAo?$AAo?$AAl?$AA?3?$AA?5?$AAm?$AAm?$AAa?$AAp?$AA?5?$AAs?$AAu?$AAc?$AAc@| [ DATA ] ; `string'
	EXPORT	|??_C@_1HC@IJMDCIDN@?$AAC?$AAM?$AAE?$AAM?$AA?5?$AAE?$AAr?$AAr?$AAo?$AAr?$AA?3?$AA?5?$AAa?$AAl?$AAl?$AAo?$AAc?$AAP?$AAo?$AAo?$AAl?$AA?3?$AA?5?$AAi?$AAo?$AAc?$AAt?$AAl?$AA?5?$AA?$CF?$AAs?$AA?5@| [ DATA ] ; `string'
	EXPORT	|??_C@_0BE@KLPMOAPL@CMEM_IOCALLOCCACHED?$AA@| [ DATA ] ; `string'
	EXPORT	|??_C@_0O@MLAGLLMM@CMEM_IOCALLOC?$AA@| [ DATA ] ; `string'
	EXPORT	|GetCurrentProcessId|
	IMPORT	|DeviceIoControl|

  00020			 AREA	 |.pdata|, PDATA
|$T37116| DCD	|$LN8@allocFromP|
	DCD	0x40004304

  00000			 AREA	 |.rdata|, DATA, READONLY
|??_C@_1IC@KCLBHEIA@?$AAC?$AAM?$AAE?$AAM?$AA?5?$AAD?$AAe?$AAb?$AAu?$AAg?$AA?3?$AA?5?$AAa?$AAl?$AAl?$AAo?$AAc?$AAP?$AAo?$AAo?$AAl?$AA?3?$AA?5?$AAm?$AAm?$AAa?$AAp?$AA?5?$AAs?$AAu?$AAc?$AAc@| DCB "C"
	DCB	0x0, "M", 0x0, "E", 0x0, "M", 0x0, " ", 0x0, "D", 0x0, "e"
	DCB	0x0, "b", 0x0, "u", 0x0, "g", 0x0, ":", 0x0, " ", 0x0, "a"
	DCB	0x0, "l", 0x0, "l", 0x0, "o", 0x0, "c", 0x0, "P", 0x0, "o"
	DCB	0x0, "o", 0x0, "l", 0x0, ":", 0x0, " ", 0x0, "m", 0x0, "m"
	DCB	0x0, "a", 0x0, "p", 0x0, " ", 0x0, "s", 0x0, "u", 0x0, "c"
	DCB	0x0, "c", 0x0, "e", 0x0, "e", 0x0, "d", 0x0, "e", 0x0, "d"
	DCB	0x0, ",", 0x0, " ", 0x0, "r", 0x0, "e", 0x0, "t", 0x0, "u"
	DCB	0x0, "r", 0x0, "n", 0x0, "i", 0x0, "n", 0x0, "g", 0x0, " "
	DCB	0x0, "v", 0x0, "i", 0x0, "r", 0x0, "t", 0x0, " ", 0x0, "b"
	DCB	0x0, "u", 0x0, "f", 0x0, "f", 0x0, "e", 0x0, "r", 0x0, " "
	DCB	0x0, "%", 0x0, "p", 0x0, 0xa, 0x0, 0x0, 0x0 ; `string'

  00000			 AREA	 |.rdata|, DATA, READONLY
|??_C@_1HC@IJMDCIDN@?$AAC?$AAM?$AAE?$AAM?$AA?5?$AAE?$AAr?$AAr?$AAo?$AAr?$AA?3?$AA?5?$AAa?$AAl?$AAl?$AAo?$AAc?$AAP?$AAo?$AAo?$AAl?$AA?3?$AA?5?$AAi?$AAo?$AAc?$AAt?$AAl?$AA?5?$AA?$CF?$AAs?$AA?5@| DCB "C"
	DCB	0x0, "M", 0x0, "E", 0x0, "M", 0x0, " ", 0x0, "E", 0x0, "r"
	DCB	0x0, "r", 0x0, "o", 0x0, "r", 0x0, ":", 0x0, " ", 0x0, "a"
	DCB	0x0, "l", 0x0, "l", 0x0, "o", 0x0, "c", 0x0, "P", 0x0, "o"
	DCB	0x0, "o", 0x0, "l", 0x0, ":", 0x0, " ", 0x0, "i", 0x0, "o"
	DCB	0x0, "c", 0x0, "t", 0x0, "l", 0x0, " ", 0x0, "%", 0x0, "s"
	DCB	0x0, " ", 0x0, "f", 0x0, "a", 0x0, "i", 0x0, "l", 0x0, "e"
	DCB	0x0, "d", 0x0, " ", 0x0, "f", 0x0, "r", 0x0, "o", 0x0, "m"
	DCB	0x0, " ", 0x0, "p", 0x0, "o", 0x0, "o", 0x0, "l", 0x0, " "
	DCB	0x0, "%", 0x0, "d", 0x0, ":", 0x0, " ", 0x0, "%", 0x0, "d"
	DCB	0x0, 0xa, 0x0, 0x0, 0x0			; `string'

  00000			 AREA	 |.rdata|, DATA, READONLY
|??_C@_0BE@KLPMOAPL@CMEM_IOCALLOCCACHED?$AA@| DCB "CMEM_IOCALLOCCACHED", 0x0 ; `string'

  00000			 AREA	 |.rdata|, DATA, READONLY
|??_C@_0O@MLAGLLMM@CMEM_IOCALLOC?$AA@| DCB "CMEM_IOCALLOC", 0x0 ; `string'
; Function compile flags: /Odtp

  00474			 AREA	 |.text|, CODE, ARM

  00474		 |allocFromPool| PROC

; 153  : {

  00474		 |$LN8@allocFromP|
  00474	e1a0c00d	 mov         r12, sp
  00478	e92d0007	 stmdb       sp!, {r0 - r2}
  0047c	e92d5000	 stmdb       sp!, {r12, lr}
  00480	e24dd04c	 sub         sp, sp, #0x4C
  00484		 |$M37113|

; 154  :     union CMEM_AllocUnion allocDesc;
; 155  :     unsigned int cmd;
; 156  :     BOOL  rv;
; 157  :     DWORD dwBytesReturned;
; 158  : 
; 159  :     allocDesc.alloc_pool_inparams.poolid = poolid;

  00484	e59d3058	 ldr         r3, [sp, #0x58]
  00488	e58d301c	 str         r3, [sp, #0x1C]

; 160  :     allocDesc.alloc_pool_inparams.blockid = blockid;

  0048c	e59d3054	 ldr         r3, [sp, #0x54]
  00490	e58d3020	 str         r3, [sp, #0x20]

; 161  :     allocDesc.alloc_pool_inparams.dwProcId = (DWORD)GetCurrentProcessId();

  00494	eb000000	 bl          GetCurrentProcessId
  00498	e58d0040	 str         r0, [sp, #0x40]
  0049c	e59d3040	 ldr         r3, [sp, #0x40]
  004a0	e58d3024	 str         r3, [sp, #0x24]

; 162  :     cmd = CMEM_IOCALLOC | params->flags;

  004a4	e59d305c	 ldr         r3, [sp, #0x5C]
  004a8	e2833004	 add         r3, r3, #4
  004ac	e5933000	 ldr         r3, [r3]
  004b0	e3833001	 orr         r3, r3, #1
  004b4	e58d3010	 str         r3, [sp, #0x10]

; 163  :     rv = DeviceIoControl(hCMEM, cmd, &allocDesc, sizeof(allocDesc), NULL, 0,
; 164  :             &dwBytesReturned, NULL);

  004b8	e3a03000	 mov         r3, #0
  004bc	e58d300c	 str         r3, [sp, #0xC]
  004c0	e28d3014	 add         r3, sp, #0x14
  004c4	e58d3008	 str         r3, [sp, #8]
  004c8	e3a03000	 mov         r3, #0
  004cc	e58d3004	 str         r3, [sp, #4]
  004d0	e3a03000	 mov         r3, #0
  004d4	e58d3000	 str         r3, [sp]
  004d8	e3a03010	 mov         r3, #0x10
  004dc	e28d201c	 add         r2, sp, #0x1C
  004e0	e59d1010	 ldr         r1, [sp, #0x10]
  004e4	e59f0090	 ldr         r0, [pc, #0x90]
  004e8	e5900000	 ldr         r0, [r0]
  004ec	eb000000	 bl          DeviceIoControl
  004f0	e58d0044	 str         r0, [sp, #0x44]
  004f4	e59d3044	 ldr         r3, [sp, #0x44]
  004f8	e58d3018	 str         r3, [sp, #0x18]

; 165  :     if (!rv) {

  004fc	e59d3018	 ldr         r3, [sp, #0x18]
  00500	e3530000	 cmp         r3, #0
  00504	1a00000f	 bne         |$LN1@allocFromP|

; 166  :         __E("allocPool: ioctl %s failed from pool %d: %d\n",
; 167  :                 cmd == CMEM_IOCALLOC ? "CMEM_IOCALLOC" : "CMEM_IOCALLOCCACHED",
; 168  :                 poolid, rv);

  00508	e59d3010	 ldr         r3, [sp, #0x10]
  0050c	e3530001	 cmp         r3, #1
  00510	1a000002	 bne         |$LN4@allocFromP|
  00514	e59f305c	 ldr         r3, [pc, #0x5C]
  00518	e58d3048	 str         r3, [sp, #0x48]
  0051c	ea000001	 b           |$LN5@allocFromP|
  00520		 |$LN4@allocFromP|
  00520	e59f304c	 ldr         r3, [pc, #0x4C]
  00524	e58d3048	 str         r3, [sp, #0x48]
  00528		 |$LN5@allocFromP|
  00528	e59d3018	 ldr         r3, [sp, #0x18]
  0052c	e59d2058	 ldr         r2, [sp, #0x58]
  00530	e59d1048	 ldr         r1, [sp, #0x48]
  00534	e59f0034	 ldr         r0, [pc, #0x34]
  00538	eb000000	 bl          NKDbgPrintfW

; 169  :         return NULL;

  0053c	e3a03000	 mov         r3, #0
  00540	e58d303c	 str         r3, [sp, #0x3C]
  00544	ea000004	 b           |$LN2@allocFromP|
  00548		 |$LN1@allocFromP|

; 170  :     }
; 171  : 
; 172  :     __D("allocPool: mmap succeeded, returning virt buffer %p\n",
; 173  :             allocDesc.alloc_pool_outparams.virtp);

  00548	e59d1020	 ldr         r1, [sp, #0x20]
  0054c	e59f0018	 ldr         r0, [pc, #0x18]
  00550	eb000000	 bl          NKDbgPrintfW

; 174  : 
; 175  :     return (PVOID)allocDesc.alloc_pool_outparams.virtp;

  00554	e59d3020	 ldr         r3, [sp, #0x20]
  00558	e58d303c	 str         r3, [sp, #0x3C]
  0055c		 |$LN2@allocFromP|

; 176  : }

  0055c	e59d003c	 ldr         r0, [sp, #0x3C]
  00560	e28dd04c	 add         sp, sp, #0x4C
  00564	e89d6000	 ldmia       sp, {sp, lr}
  00568	e12fff1e	 bx          lr
  0056c		 |$LN9@allocFromP|
  0056c		 |$LN10@allocFromP|
  0056c	00000000	 DCD         |??_C@_1IC@KCLBHEIA@?$AAC?$AAM?$AAE?$AAM?$AA?5?$AAD?$AAe?$AAb?$AAu?$AAg?$AA?3?$AA?5?$AAa?$AAl?$AAl?$AAo?$AAc?$AAP?$AAo?$AAo?$AAl?$AA?3?$AA?5?$AAm?$AAm?$AAa?$AAp?$AA?5?$AAs?$AAu?$AAc?$AAc@|
  00570		 |$LN11@allocFromP|
  00570	00000000	 DCD         |??_C@_1HC@IJMDCIDN@?$AAC?$AAM?$AAE?$AAM?$AA?5?$AAE?$AAr?$AAr?$AAo?$AAr?$AA?3?$AA?5?$AAa?$AAl?$AAl?$AAo?$AAc?$AAP?$AAo?$AAo?$AAl?$AA?3?$AA?5?$AAi?$AAo?$AAc?$AAt?$AAl?$AA?5?$AA?$CF?$AAs?$AA?5@|
  00574		 |$LN12@allocFromP|
  00574	00000000	 DCD         |??_C@_0BE@KLPMOAPL@CMEM_IOCALLOCCACHED?$AA@|
  00578		 |$LN13@allocFromP|
  00578	00000000	 DCD         |??_C@_0O@MLAGLLMM@CMEM_IOCALLOC?$AA@|
  0057c		 |$LN14@allocFromP|
  0057c	00000000	 DCD         |hCMEM|
  00580		 |$M37114|

			 ENDP  ; |allocFromPool|

	IMPORT	|__GetUserKData|
; File c:\wince600\public\common\sdk\inc\kfuncs.h

  00000			 AREA	 |.pdata|, PDATA
|$T37128| DCD	|$LN5@GetCurrent|
	DCD	0x40000b02
; Function compile flags: /Odtp

  00000			 AREA	 |.text|, CODE, ARM

  00000		 |GetCurrentProcessId| PROC

; 373  : _inline DWORD GetCurrentProcessId(void) {

  00000		 |$LN5@GetCurrent|
  00000	e52de004	 str         lr, [sp, #-4]!
  00004	e24dd008	 sub         sp, sp, #8
  00008		 |$M37125|

; 374  :     return __GetUserKData (SYSHANDLE_OFFSET + (SH_CURPROC * sizeof(HANDLE)));

  00008	e3a0000c	 mov         r0, #0xC
  0000c	eb000000	 bl          __GetUserKData
  00010	e58d0004	 str         r0, [sp, #4]
  00014	e59d3004	 ldr         r3, [sp, #4]
  00018	e58d3000	 str         r3, [sp]

; 375  : }

  0001c	e59d0000	 ldr         r0, [sp]
  00020	e28dd008	 add         sp, sp, #8
  00024	e49de004	 ldr         lr, [sp], #4
  00028	e12fff1e	 bx          lr
  0002c		 |$M37126|

			 ENDP  ; |GetCurrentProcessId|

	EXPORT	|??_C@_1IC@GKACPFMN@?$AAC?$AAM?$AAE?$AAM?$AA?5?$AAD?$AAe?$AAb?$AAu?$AAg?$AA?3?$AA?5?$AAa?$AAl?$AAl?$AAo?$AAc?$AAH?$AAe?$AAa?$AAp?$AA?3?$AA?5?$AAm?$AAm?$AAa?$AAp?$AA?5?$AAs?$AAu?$AAc?$AAc@| [ DATA ] ; `string'
	EXPORT	|??_C@_1FI@PDJNAMOK@?$AAC?$AAM?$AAE?$AAM?$AA?5?$AAE?$AAr?$AAr?$AAo?$AAr?$AA?3?$AA?5?$AAa?$AAl?$AAl?$AAo?$AAc?$AAH?$AAe?$AAa?$AAp?$AA?3?$AA?5?$AAi?$AAo?$AAc?$AAt?$AAl?$AA?5?$AA?$CF?$AAs?$AA?5@| [ DATA ] ; `string'
	EXPORT	|??_C@_0BI@DKEAIDBJ@CMEM_IOCALLOCHEAPCACHED?$AA@| [ DATA ] ; `string'
	EXPORT	|??_C@_0BC@KANGPNNF@CMEM_IOCALLOCHEAP?$AA@| [ DATA ] ; `string'

  00028			 AREA	 |.pdata|, PDATA
|$T37144| DCD	|$LN10@allocFromH|
	DCD	0x40005004
; File i:\library\trees\winceutils\winceutils-b01x\src\ti\sdo\winceutils\cmem\user\cmem.c

  00000			 AREA	 |.rdata|, DATA, READONLY
|??_C@_1IC@GKACPFMN@?$AAC?$AAM?$AAE?$AAM?$AA?5?$AAD?$AAe?$AAb?$AAu?$AAg?$AA?3?$AA?5?$AAa?$AAl?$AAl?$AAo?$AAc?$AAH?$AAe?$AAa?$AAp?$AA?3?$AA?5?$AAm?$AAm?$AAa?$AAp?$AA?5?$AAs?$AAu?$AAc?$AAc@| DCB "C"
	DCB	0x0, "M", 0x0, "E", 0x0, "M", 0x0, " ", 0x0, "D", 0x0, "e"
	DCB	0x0, "b", 0x0, "u", 0x0, "g", 0x0, ":", 0x0, " ", 0x0, "a"
	DCB	0x0, "l", 0x0, "l", 0x0, "o", 0x0, "c", 0x0, "H", 0x0, "e"
	DCB	0x0, "a", 0x0, "p", 0x0, ":", 0x0, " ", 0x0, "m", 0x0, "m"
	DCB	0x0, "a", 0x0, "p", 0x0, " ", 0x0, "s", 0x0, "u", 0x0, "c"
	DCB	0x0, "c", 0x0, "e", 0x0, "e", 0x0, "d", 0x0, "e", 0x0, "d"
	DCB	0x0, ",", 0x0, " ", 0x0, "r", 0x0, "e", 0x0, "t", 0x0, "u"
	DCB	0x0, "r", 0x0, "n", 0x0, "i", 0x0, "n", 0x0, "g", 0x0, " "
	DCB	0x0, "v", 0x0, "i", 0x0, "r", 0x0, "t", 0x0, " ", 0x0, "b"
	DCB	0x0, "u", 0x0, "f", 0x0, "f", 0x0, "e", 0x0, "r", 0x0, " "
	DCB	0x0, "%", 0x0, "p", 0x0, 0xa, 0x0, 0x0, 0x0 ; `string'

  00000			 AREA	 |.rdata|, DATA, READONLY
|??_C@_1FI@PDJNAMOK@?$AAC?$AAM?$AAE?$AAM?$AA?5?$AAE?$AAr?$AAr?$AAo?$AAr?$AA?3?$AA?5?$AAa?$AAl?$AAl?$AAo?$AAc?$AAH?$AAe?$AAa?$AAp?$AA?3?$AA?5?$AAi?$AAo?$AAc?$AAt?$AAl?$AA?5?$AA?$CF?$AAs?$AA?5@| DCB "C"
	DCB	0x0, "M", 0x0, "E", 0x0, "M", 0x0, " ", 0x0, "E", 0x0, "r"
	DCB	0x0, "r", 0x0, "o", 0x0, "r", 0x0, ":", 0x0, " ", 0x0, "a"
	DCB	0x0, "l", 0x0, "l", 0x0, "o", 0x0, "c", 0x0, "H", 0x0, "e"
	DCB	0x0, "a", 0x0, "p", 0x0, ":", 0x0, " ", 0x0, "i", 0x0, "o"
	DCB	0x0, "c", 0x0, "t", 0x0, "l", 0x0, " ", 0x0, "%", 0x0, "s"
	DCB	0x0, " ", 0x0, "f", 0x0, "a", 0x0, "i", 0x0, "l", 0x0, "e"
	DCB	0x0, "d", 0x0, ":", 0x0, " ", 0x0, "%", 0x0, "d", 0x0, 0xa
	DCB	0x0, 0x0, 0x0				; `string'

  00000			 AREA	 |.rdata|, DATA, READONLY
|??_C@_0BI@DKEAIDBJ@CMEM_IOCALLOCHEAPCACHED?$AA@| DCB "CMEM_IOCALLOCHEAPC"
	DCB	"ACHED", 0x0				; `string'

  00000			 AREA	 |.rdata|, DATA, READONLY
|??_C@_0BC@KANGPNNF@CMEM_IOCALLOCHEAP?$AA@| DCB "CMEM_IOCALLOCHEAP", 0x0 ; `string'
; Function compile flags: /Odtp

  00580			 AREA	 |.text|, CODE, ARM

  00580		 |allocFromHeap| PROC

; 201  : {

  00580		 |$LN10@allocFromH|
  00580	e1a0c00d	 mov         r12, sp
  00584	e92d0007	 stmdb       sp!, {r0 - r2}
  00588	e92d5000	 stmdb       sp!, {r12, lr}
  0058c	e24dd050	 sub         sp, sp, #0x50
  00590		 |$M37141|

; 202  :     union CMEM_AllocUnion allocDesc;
; 203  :     unsigned int cmd;
; 204  :     BOOL rv;
; 205  :     DWORD dwBytesReturned;
; 206  : 
; 207  :     cmd = CMEM_IOCALLOCHEAP | params->flags;

  00590	e59d3060	 ldr         r3, [sp, #0x60]
  00594	e2833004	 add         r3, r3, #4
  00598	e5933000	 ldr         r3, [r3]
  0059c	e3833002	 orr         r3, r3, #2
  005a0	e58d3010	 str         r3, [sp, #0x10]

; 208  :     allocDesc.alloc_heap_inparams.size = size;

  005a4	e59d305c	 ldr         r3, [sp, #0x5C]
  005a8	e58d301c	 str         r3, [sp, #0x1C]

; 209  :     allocDesc.alloc_heap_inparams.align = params->alignment == 0 ?
; 210  :         1 : params->alignment;

  005ac	e59d3060	 ldr         r3, [sp, #0x60]
  005b0	e2833008	 add         r3, r3, #8
  005b4	e5933000	 ldr         r3, [r3]
  005b8	e3530000	 cmp         r3, #0
  005bc	1a000002	 bne         |$LN4@allocFromH|
  005c0	e3a03001	 mov         r3, #1
  005c4	e58d3040	 str         r3, [sp, #0x40]
  005c8	ea000003	 b           |$LN5@allocFromH|
  005cc		 |$LN4@allocFromH|
  005cc	e59d3060	 ldr         r3, [sp, #0x60]
  005d0	e2833008	 add         r3, r3, #8
  005d4	e5933000	 ldr         r3, [r3]
  005d8	e58d3040	 str         r3, [sp, #0x40]
  005dc		 |$LN5@allocFromH|
  005dc	e59d3040	 ldr         r3, [sp, #0x40]
  005e0	e58d3020	 str         r3, [sp, #0x20]

; 211  :     allocDesc.alloc_heap_inparams.blockid = blockid;

  005e4	e59d3058	 ldr         r3, [sp, #0x58]
  005e8	e58d3024	 str         r3, [sp, #0x24]

; 212  :     allocDesc.alloc_heap_inparams.dwProcId = (DWORD)GetCurrentProcessId();

  005ec	eb000000	 bl          GetCurrentProcessId
  005f0	e58d0044	 str         r0, [sp, #0x44]
  005f4	e59d3044	 ldr         r3, [sp, #0x44]
  005f8	e58d3028	 str         r3, [sp, #0x28]

; 213  : 
; 214  :     rv = DeviceIoControl(hCMEM, cmd, &allocDesc, sizeof(allocDesc), NULL, 0,
; 215  :             &dwBytesReturned, NULL);

  005fc	e3a03000	 mov         r3, #0
  00600	e58d300c	 str         r3, [sp, #0xC]
  00604	e28d3014	 add         r3, sp, #0x14
  00608	e58d3008	 str         r3, [sp, #8]
  0060c	e3a03000	 mov         r3, #0
  00610	e58d3004	 str         r3, [sp, #4]
  00614	e3a03000	 mov         r3, #0
  00618	e58d3000	 str         r3, [sp]
  0061c	e3a03010	 mov         r3, #0x10
  00620	e28d201c	 add         r2, sp, #0x1C
  00624	e59d1010	 ldr         r1, [sp, #0x10]
  00628	e59f008c	 ldr         r0, [pc, #0x8C]
  0062c	e5900000	 ldr         r0, [r0]
  00630	eb000000	 bl          DeviceIoControl
  00634	e58d0048	 str         r0, [sp, #0x48]
  00638	e59d3048	 ldr         r3, [sp, #0x48]
  0063c	e58d3018	 str         r3, [sp, #0x18]

; 216  :     if (!rv) {

  00640	e59d3018	 ldr         r3, [sp, #0x18]
  00644	e3530000	 cmp         r3, #0
  00648	1a00000e	 bne         |$LN1@allocFromH|

; 217  :         __E("allocHeap: ioctl %s failed: %d\n",
; 218  :                 cmd == CMEM_IOCALLOCHEAP ?
; 219  :                 "CMEM_IOCALLOCHEAP" : "CMEM_IOCALLOCHEAPCACHED",
; 220  :                 rv);

  0064c	e59d3010	 ldr         r3, [sp, #0x10]
  00650	e3530002	 cmp         r3, #2
  00654	1a000002	 bne         |$LN6@allocFromH|
  00658	e59f3058	 ldr         r3, [pc, #0x58]
  0065c	e58d304c	 str         r3, [sp, #0x4C]
  00660	ea000001	 b           |$LN7@allocFromH|
  00664		 |$LN6@allocFromH|
  00664	e59f3048	 ldr         r3, [pc, #0x48]
  00668	e58d304c	 str         r3, [sp, #0x4C]
  0066c		 |$LN7@allocFromH|
  0066c	e59d2018	 ldr         r2, [sp, #0x18]
  00670	e59d104c	 ldr         r1, [sp, #0x4C]
  00674	e59f0034	 ldr         r0, [pc, #0x34]
  00678	eb000000	 bl          NKDbgPrintfW

; 221  :         return NULL;

  0067c	e3a03000	 mov         r3, #0
  00680	e58d303c	 str         r3, [sp, #0x3C]
  00684	ea000004	 b           |$LN2@allocFromH|
  00688		 |$LN1@allocFromH|

; 222  :     }
; 223  : 
; 224  :     __D("allocHeap: mmap succeeded, returning virt buffer %p\n",
; 225  :             allocDesc.virtp);

  00688	e59d101c	 ldr         r1, [sp, #0x1C]
  0068c	e59f0018	 ldr         r0, [pc, #0x18]
  00690	eb000000	 bl          NKDbgPrintfW

; 226  : 
; 227  :     return (PVOID)allocDesc.virtp;

  00694	e59d301c	 ldr         r3, [sp, #0x1C]
  00698	e58d303c	 str         r3, [sp, #0x3C]
  0069c		 |$LN2@allocFromH|

; 228  : }

  0069c	e59d003c	 ldr         r0, [sp, #0x3C]
  006a0	e28dd050	 add         sp, sp, #0x50
  006a4	e89d6000	 ldmia       sp, {sp, lr}
  006a8	e12fff1e	 bx          lr
  006ac		 |$LN11@allocFromH|
  006ac		 |$LN12@allocFromH|
  006ac	00000000	 DCD         |??_C@_1IC@GKACPFMN@?$AAC?$AAM?$AAE?$AAM?$AA?5?$AAD?$AAe?$AAb?$AAu?$AAg?$AA?3?$AA?5?$AAa?$AAl?$AAl?$AAo?$AAc?$AAH?$AAe?$AAa?$AAp?$AA?3?$AA?5?$AAm?$AAm?$AAa?$AAp?$AA?5?$AAs?$AAu?$AAc?$AAc@|
  006b0		 |$LN13@allocFromH|
  006b0	00000000	 DCD         |??_C@_1FI@PDJNAMOK@?$AAC?$AAM?$AAE?$AAM?$AA?5?$AAE?$AAr?$AAr?$AAo?$AAr?$AA?3?$AA?5?$AAa?$AAl?$AAl?$AAo?$AAc?$AAH?$AAe?$AAa?$AAp?$AA?3?$AA?5?$AAi?$AAo?$AAc?$AAt?$AAl?$AA?5?$AA?$CF?$AAs?$AA?5@|
  006b4		 |$LN14@allocFromH|
  006b4	00000000	 DCD         |??_C@_0BI@DKEAIDBJ@CMEM_IOCALLOCHEAPCACHED?$AA@|
  006b8		 |$LN15@allocFromH|
  006b8	00000000	 DCD         |??_C@_0BC@KANGPNNF@CMEM_IOCALLOCHEAP?$AA@|
  006bc		 |$LN16@allocFromH|
  006bc	00000000	 DCD         |hCMEM|
  006c0		 |$M37142|

			 ENDP  ; |allocFromHeap|

	EXPORT	|CMEM_alloc|

  00030			 AREA	 |.pdata|, PDATA
|$T37156| DCD	|$LN5@CMEM_alloc|
	DCD	0x40000f04
; Function compile flags: /Odtp

  006c0			 AREA	 |.text|, CODE, ARM

  006c0		 |CMEM_alloc| PROC

; 263  : {

  006c0		 |$LN5@CMEM_alloc|
  006c0	e1a0c00d	 mov         r12, sp
  006c4	e92d0003	 stmdb       sp!, {r0, r1}
  006c8	e92d5000	 stmdb       sp!, {r12, lr}
  006cc	e24dd008	 sub         sp, sp, #8
  006d0		 |$M37153|

; 264  :     return alloc(0, size, params);

  006d0	e59d2014	 ldr         r2, [sp, #0x14]
  006d4	e59d1010	 ldr         r1, [sp, #0x10]
  006d8	e3a00000	 mov         r0, #0
  006dc	eb000000	 bl          alloc
  006e0	e58d0004	 str         r0, [sp, #4]
  006e4	e59d3004	 ldr         r3, [sp, #4]
  006e8	e58d3000	 str         r3, [sp]

; 265  : }

  006ec	e59d0000	 ldr         r0, [sp]
  006f0	e28dd008	 add         sp, sp, #8
  006f4	e89d6000	 ldmia       sp, {sp, lr}
  006f8	e12fff1e	 bx          lr
  006fc		 |$M37154|

			 ENDP  ; |CMEM_alloc|

	EXPORT	|CMEM_alloc2|

  00038			 AREA	 |.pdata|, PDATA
|$T37162| DCD	|$LN5@CMEM_alloc@2|
	DCD	0x40000f04
; Function compile flags: /Odtp

  006fc			 AREA	 |.text|, CODE, ARM

  006fc		 |CMEM_alloc2| PROC

; 268  : {

  006fc		 |$LN5@CMEM_alloc@2|
  006fc	e1a0c00d	 mov         r12, sp
  00700	e92d0007	 stmdb       sp!, {r0 - r2}
  00704	e92d5000	 stmdb       sp!, {r12, lr}
  00708	e24dd008	 sub         sp, sp, #8
  0070c		 |$M37159|

; 269  :     return alloc(blockid, size, params);

  0070c	e59d2018	 ldr         r2, [sp, #0x18]
  00710	e59d1014	 ldr         r1, [sp, #0x14]
  00714	e59d0010	 ldr         r0, [sp, #0x10]
  00718	eb000000	 bl          alloc
  0071c	e58d0004	 str         r0, [sp, #4]
  00720	e59d3004	 ldr         r3, [sp, #4]
  00724	e58d3000	 str         r3, [sp]

; 270  : }

  00728	e59d0000	 ldr         r0, [sp]
  0072c	e28dd008	 add         sp, sp, #8
  00730	e89d6000	 ldmia       sp, {sp, lr}
  00734	e12fff1e	 bx          lr
  00738		 |$M37160|

			 ENDP  ; |CMEM_alloc2|

	EXPORT	|CMEM_allocPool|

  00040			 AREA	 |.pdata|, PDATA
|$T37168| DCD	|$LN5@CMEM_alloc@3|
	DCD	0x40000f04
; Function compile flags: /Odtp

  00738			 AREA	 |.text|, CODE, ARM

  00738		 |CMEM_allocPool| PROC

; 290  : {

  00738		 |$LN5@CMEM_alloc@3|
  00738	e1a0c00d	 mov         r12, sp
  0073c	e92d0003	 stmdb       sp!, {r0, r1}
  00740	e92d5000	 stmdb       sp!, {r12, lr}
  00744	e24dd008	 sub         sp, sp, #8
  00748		 |$M37165|

; 291  :     return allocPool(0, poolid, params);

  00748	e59d2014	 ldr         r2, [sp, #0x14]
  0074c	e59d1010	 ldr         r1, [sp, #0x10]
  00750	e3a00000	 mov         r0, #0
  00754	eb000000	 bl          allocPool
  00758	e58d0004	 str         r0, [sp, #4]
  0075c	e59d3004	 ldr         r3, [sp, #4]
  00760	e58d3000	 str         r3, [sp]

; 292  : }

  00764	e59d0000	 ldr         r0, [sp]
  00768	e28dd008	 add         sp, sp, #8
  0076c	e89d6000	 ldmia       sp, {sp, lr}
  00770	e12fff1e	 bx          lr
  00774		 |$M37166|

			 ENDP  ; |CMEM_allocPool|

	EXPORT	|??_C@_1IE@CPIFFGMG@?$AAC?$AAM?$AAE?$AAM?$AA?5?$AAD?$AAe?$AAb?$AAu?$AAg?$AA?3?$AA?5?$AAa?$AAl?$AAl?$AAo?$AAc?$AAP?$AAo?$AAo?$AAl?$AA?3?$AA?5?$AAe?$AAn?$AAt?$AAe?$AAr?$AAe?$AAd?$AA?5?$AAw@| [ DATA ] ; `string'

  00048			 AREA	 |.pdata|, PDATA
|$T37178| DCD	|$LN11@allocPool|
	DCD	0x40003a04

  00000			 AREA	 |.rdata|, DATA, READONLY
|??_C@_1IE@CPIFFGMG@?$AAC?$AAM?$AAE?$AAM?$AA?5?$AAD?$AAe?$AAb?$AAu?$AAg?$AA?3?$AA?5?$AAa?$AAl?$AAl?$AAo?$AAc?$AAP?$AAo?$AAo?$AAl?$AA?3?$AA?5?$AAe?$AAn?$AAt?$AAe?$AAr?$AAe?$AAd?$AA?5?$AAw@| DCB "C"
	DCB	0x0, "M", 0x0, "E", 0x0, "M", 0x0, " ", 0x0, "D", 0x0, "e"
	DCB	0x0, "b", 0x0, "u", 0x0, "g", 0x0, ":", 0x0, " ", 0x0, "a"
	DCB	0x0, "l", 0x0, "l", 0x0, "o", 0x0, "c", 0x0, "P", 0x0, "o"
	DCB	0x0, "o", 0x0, "l", 0x0, ":", 0x0, " ", 0x0, "e", 0x0, "n"
	DCB	0x0, "t", 0x0, "e", 0x0, "r", 0x0, "e", 0x0, "d", 0x0, " "
	DCB	0x0, "w", 0x0, "/", 0x0, " ", 0x0, "p", 0x0, "o", 0x0, "o"
	DCB	0x0, "l", 0x0, "i", 0x0, "d", 0x0, " ", 0x0, "%", 0x0, "d"
	DCB	0x0, ",", 0x0, " ", 0x0, "p", 0x0, "a", 0x0, "r", 0x0, "a"
	DCB	0x0, "m", 0x0, "s", 0x0, " ", 0x0, "-", 0x0, " ", 0x0, "f"
	DCB	0x0, "l", 0x0, "a", 0x0, "g", 0x0, "s", 0x0, " ", 0x0, "%"
	DCB	0x0, "s", 0x0, "%", 0x0, "s", 0x0, 0xa, 0x0, 0x0, 0x0 ; `string'
; Function compile flags: /Odtp

  00774			 AREA	 |.text|, CODE, ARM

  00774		 |allocPool| PROC

; 273  : {

  00774		 |$LN11@allocPool|
  00774	e1a0c00d	 mov         r12, sp
  00778	e92d0007	 stmdb       sp!, {r0 - r2}
  0077c	e92d5000	 stmdb       sp!, {r12, lr}
  00780	e24dd014	 sub         sp, sp, #0x14
  00784		 |$M37175|

; 274  :     if (params == NULL) {

  00784	e59d3024	 ldr         r3, [sp, #0x24]
  00788	e3530000	 cmp         r3, #0
  0078c	1a000001	 bne         |$LN2@allocPool|

; 275  :         params = &CMEM_DEFAULTPARAMS;

  00790	e59f30c0	 ldr         r3, [pc, #0xC0]
  00794	e58d3024	 str         r3, [sp, #0x24]
  00798		 |$LN2@allocPool|

; 276  :     }
; 277  : 
; 278  :     __D("allocPool: entered w/ poolid %d, params - flags %s%s\n", poolid,
; 279  :             params->flags & CMEM_CACHED ? L"CACHED" : L"NONCACHED",
; 280  :             params == &CMEM_DEFAULTPARAMS ? L" (default)" : L"");

  00798	e59d2024	 ldr         r2, [sp, #0x24]
  0079c	e59f30b4	 ldr         r3, [pc, #0xB4]
  007a0	e1520003	 cmp         r2, r3
  007a4	1a000002	 bne         |$LN5@allocPool|
  007a8	e59f30a4	 ldr         r3, [pc, #0xA4]
  007ac	e58d3004	 str         r3, [sp, #4]
  007b0	ea000001	 b           |$LN6@allocPool|
  007b4		 |$LN5@allocPool|
  007b4	e59f3094	 ldr         r3, [pc, #0x94]
  007b8	e58d3004	 str         r3, [sp, #4]
  007bc		 |$LN6@allocPool|
  007bc	e59d3024	 ldr         r3, [sp, #0x24]
  007c0	e2833004	 add         r3, r3, #4
  007c4	e5933000	 ldr         r3, [r3]
  007c8	e3130b02	 tst         r3, #2, 22
  007cc	0a000002	 beq         |$LN7@allocPool|
  007d0	e59f3074	 ldr         r3, [pc, #0x74]
  007d4	e58d3008	 str         r3, [sp, #8]
  007d8	ea000001	 b           |$LN8@allocPool|
  007dc		 |$LN7@allocPool|
  007dc	e59f3064	 ldr         r3, [pc, #0x64]
  007e0	e58d3008	 str         r3, [sp, #8]
  007e4		 |$LN8@allocPool|
  007e4	e59d3004	 ldr         r3, [sp, #4]
  007e8	e59d2008	 ldr         r2, [sp, #8]
  007ec	e59d1020	 ldr         r1, [sp, #0x20]
  007f0	e59f004c	 ldr         r0, [pc, #0x4C]
  007f4	eb000000	 bl          NKDbgPrintfW

; 281  : 
; 282  :     if (!validate_init()) {

  007f8	eb000000	 bl          validate_init
  007fc	e58d000c	 str         r0, [sp, #0xC]
  00800	e59d300c	 ldr         r3, [sp, #0xC]
  00804	e3530000	 cmp         r3, #0
  00808	1a000002	 bne         |$LN1@allocPool|

; 283  :         return NULL;

  0080c	e3a03000	 mov         r3, #0
  00810	e58d3000	 str         r3, [sp]
  00814	ea000006	 b           |$LN3@allocPool|
  00818		 |$LN1@allocPool|

; 284  :     }
; 285  : 
; 286  :     return allocFromPool(blockid, poolid, params);

  00818	e59d2024	 ldr         r2, [sp, #0x24]
  0081c	e59d1020	 ldr         r1, [sp, #0x20]
  00820	e59d001c	 ldr         r0, [sp, #0x1C]
  00824	eb000000	 bl          allocFromPool
  00828	e58d0010	 str         r0, [sp, #0x10]
  0082c	e59d3010	 ldr         r3, [sp, #0x10]
  00830	e58d3000	 str         r3, [sp]
  00834		 |$LN3@allocPool|

; 287  : }

  00834	e59d0000	 ldr         r0, [sp]
  00838	e28dd014	 add         sp, sp, #0x14
  0083c	e89d6000	 ldmia       sp, {sp, lr}
  00840	e12fff1e	 bx          lr
  00844		 |$LN12@allocPool|
  00844		 |$LN13@allocPool|
  00844	00000000	 DCD         |??_C@_1IE@CPIFFGMG@?$AAC?$AAM?$AAE?$AAM?$AA?5?$AAD?$AAe?$AAb?$AAu?$AAg?$AA?3?$AA?5?$AAa?$AAl?$AAl?$AAo?$AAc?$AAP?$AAo?$AAo?$AAl?$AA?3?$AA?5?$AAe?$AAn?$AAt?$AAe?$AAr?$AAe?$AAd?$AA?5?$AAw@|
  00848		 |$LN14@allocPool|
  00848	00000000	 DCD         |??_C@_1BE@MMCMEDKB@?$AAN?$AAO?$AAN?$AAC?$AAA?$AAC?$AAH?$AAE?$AAD?$AA?$AA@|
  0084c		 |$LN15@allocPool|
  0084c	00000000	 DCD         |??_C@_1O@HMEMJOMD@?$AAC?$AAA?$AAC?$AAH?$AAE?$AAD?$AA?$AA@|
  00850		 |$LN16@allocPool|
  00850	00000000	 DCD         |??_C@_11LOCGONAA@?$AA?$AA@|
  00854		 |$LN17@allocPool|
  00854	00000000	 DCD         |??_C@_1BG@OKFAKFBB@?$AA?5?$AA?$CI?$AAd?$AAe?$AAf?$AAa?$AAu?$AAl?$AAt?$AA?$CJ?$AA?$AA@|
  00858		 |$LN18@allocPool|
  00858	00000000	 DCD         |CMEM_DEFAULTPARAMS|
  0085c		 |$M37176|

			 ENDP  ; |allocPool|

	EXPORT	|CMEM_allocPool2|

  00050			 AREA	 |.pdata|, PDATA
|$T37191| DCD	|$LN5@CMEM_alloc@4|
	DCD	0x40000f04
; Function compile flags: /Odtp

  0085c			 AREA	 |.text|, CODE, ARM

  0085c		 |CMEM_allocPool2| PROC

; 295  : {

  0085c		 |$LN5@CMEM_alloc@4|
  0085c	e1a0c00d	 mov         r12, sp
  00860	e92d0007	 stmdb       sp!, {r0 - r2}
  00864	e92d5000	 stmdb       sp!, {r12, lr}
  00868	e24dd008	 sub         sp, sp, #8
  0086c		 |$M37188|

; 296  :     return allocPool(blockid, poolid, params);

  0086c	e59d2018	 ldr         r2, [sp, #0x18]
  00870	e59d1014	 ldr         r1, [sp, #0x14]
  00874	e59d0010	 ldr         r0, [sp, #0x10]
  00878	eb000000	 bl          allocPool
  0087c	e58d0004	 str         r0, [sp, #4]
  00880	e59d3004	 ldr         r3, [sp, #4]
  00884	e58d3000	 str         r3, [sp]

; 297  : }

  00888	e59d0000	 ldr         r0, [sp]
  0088c	e28dd008	 add         sp, sp, #8
  00890	e89d6000	 ldmia       sp, {sp, lr}
  00894	e12fff1e	 bx          lr
  00898		 |$M37189|

			 ENDP  ; |CMEM_allocPool2|

	EXPORT	|??_C@_1GC@JLKOFGPM@?$AAC?$AAM?$AAE?$AAM?$AA?5?$AAD?$AAe?$AAb?$AAu?$AAg?$AA?3?$AA?5?$AAf?$AAr?$AAe?$AAe?$AA?3?$AA?5?$AAm?$AAu?$AAn?$AAm?$AAa?$AAp?$AA?5?$AAs?$AAu?$AAc?$AAc?$AAe?$AAe?$AAd@| [ DATA ] ; `string'
	EXPORT	|??_C@_1HI@OHHOKKM@?$AAC?$AAM?$AAE?$AAM?$AA?5?$AAD?$AAe?$AAb?$AAu?$AAg?$AA?3?$AA?5?$AAf?$AAr?$AAe?$AAe?$AA?3?$AA?5?$AAi?$AAo?$AAc?$AAt?$AAl?$AA?5?$AAC?$AAM?$AAE?$AAM?$AA_?$AAI?$AAO?$AAC@| [ DATA ] ; `string'
	EXPORT	|??_C@_04DGHHAJMG@HEAP?$AA@| [ DATA ]	; `string'
	EXPORT	|??_C@_04OFLDEFLG@POOL?$AA@| [ DATA ]	; `string'
	EXPORT	|??_C@_1EM@BJEPMKEE@?$AAC?$AAM?$AAE?$AAM?$AA?5?$AAE?$AAr?$AAr?$AAo?$AAr?$AA?3?$AA?5?$AAf?$AAr?$AAe?$AAe?$AA?3?$AA?5?$AAf?$AAa?$AAi?$AAl?$AAe?$AAd?$AA?5?$AAt?$AAo?$AA?5?$AAf?$AAr?$AAe?$AAe@| [ DATA ] ; `string'
	EXPORT	|??_C@_1HC@PLPAKFLC@?$AAC?$AAM?$AAE?$AAM?$AA?5?$AAD?$AAe?$AAb?$AAu?$AAg?$AA?3?$AA?5?$AAf?$AAr?$AAe?$AAe?$AA?3?$AA?5?$AAe?$AAn?$AAt?$AAe?$AAr?$AAe?$AAd?$AA?5?$AAw?$AA?1?$AA?5?$AAp?$AAt?$AAr@| [ DATA ] ; `string'
	EXPORT	|CMEM_free|

  00058			 AREA	 |.pdata|, PDATA
|$T37207| DCD	|$LN14@CMEM_free|
	DCD	0x40006904

  00000			 AREA	 |.rdata|, DATA, READONLY
|??_C@_1GC@JLKOFGPM@?$AAC?$AAM?$AAE?$AAM?$AA?5?$AAD?$AAe?$AAb?$AAu?$AAg?$AA?3?$AA?5?$AAf?$AAr?$AAe?$AAe?$AA?3?$AA?5?$AAm?$AAu?$AAn?$AAm?$AAa?$AAp?$AA?5?$AAs?$AAu?$AAc?$AAc?$AAe?$AAe?$AAd@| DCB "C"
	DCB	0x0, "M", 0x0, "E", 0x0, "M", 0x0, " ", 0x0, "D", 0x0, "e"
	DCB	0x0, "b", 0x0, "u", 0x0, "g", 0x0, ":", 0x0, " ", 0x0, "f"
	DCB	0x0, "r", 0x0, "e", 0x0, "e", 0x0, ":", 0x0, " ", 0x0, "m"
	DCB	0x0, "u", 0x0, "n", 0x0, "m", 0x0, "a", 0x0, "p", 0x0, " "
	DCB	0x0, "s", 0x0, "u", 0x0, "c", 0x0, "c", 0x0, "e", 0x0, "e"
	DCB	0x0, "d", 0x0, "e", 0x0, "d", 0x0, ",", 0x0, " ", 0x0, "r"
	DCB	0x0, "e", 0x0, "t", 0x0, "u", 0x0, "r", 0x0, "n", 0x0, "i"
	DCB	0x0, "n", 0x0, "g", 0x0, " ", 0x0, "0", 0x0, 0xa, 0x0, 0x0
	DCB	0x0					; `string'

  00000			 AREA	 |.rdata|, DATA, READONLY
|??_C@_1HI@OHHOKKM@?$AAC?$AAM?$AAE?$AAM?$AA?5?$AAD?$AAe?$AAb?$AAu?$AAg?$AA?3?$AA?5?$AAf?$AAr?$AAe?$AAe?$AA?3?$AA?5?$AAi?$AAo?$AAc?$AAt?$AAl?$AA?5?$AAC?$AAM?$AAE?$AAM?$AA_?$AAI?$AAO?$AAC@| DCB "C"
	DCB	0x0, "M", 0x0, "E", 0x0, "M", 0x0, " ", 0x0, "D", 0x0, "e"
	DCB	0x0, "b", 0x0, "u", 0x0, "g", 0x0, ":", 0x0, " ", 0x0, "f"
	DCB	0x0, "r", 0x0, "e", 0x0, "e", 0x0, ":", 0x0, " ", 0x0, "i"
	DCB	0x0, "o", 0x0, "c", 0x0, "t", 0x0, "l", 0x0, " ", 0x0, "C"
	DCB	0x0, "M", 0x0, "E", 0x0, "M", 0x0, "_", 0x0, "I", 0x0, "O"
	DCB	0x0, "C", 0x0, "F", 0x0, "R", 0x0, "E", 0x0, "E", 0x0, "%"
	DCB	0x0, "s", 0x0, " ", 0x0, "s", 0x0, "u", 0x0, "c", 0x0, "c"
	DCB	0x0, "e", 0x0, "e", 0x0, "d", 0x0, "e", 0x0, "d", 0x0, ","
	DCB	0x0, " ", 0x0, "s", 0x0, "i", 0x0, "z", 0x0, "e", 0x0, " "
	DCB	0x0, "%", 0x0, "#", 0x0, "x", 0x0, 0xa, 0x0, 0x0, 0x0 ; `string'

  00000			 AREA	 |.rdata|, DATA, READONLY
|??_C@_04DGHHAJMG@HEAP?$AA@| DCB "HEAP", 0x0		; `string'

  00000			 AREA	 |.rdata|, DATA, READONLY
|??_C@_04OFLDEFLG@POOL?$AA@| DCB "POOL", 0x0		; `string'

  00000			 AREA	 |.rdata|, DATA, READONLY
|??_C@_1EM@BJEPMKEE@?$AAC?$AAM?$AAE?$AAM?$AA?5?$AAE?$AAr?$AAr?$AAo?$AAr?$AA?3?$AA?5?$AAf?$AAr?$AAe?$AAe?$AA?3?$AA?5?$AAf?$AAa?$AAi?$AAl?$AAe?$AAd?$AA?5?$AAt?$AAo?$AA?5?$AAf?$AAr?$AAe?$AAe@| DCB "C"
	DCB	0x0, "M", 0x0, "E", 0x0, "M", 0x0, " ", 0x0, "E", 0x0, "r"
	DCB	0x0, "r", 0x0, "o", 0x0, "r", 0x0, ":", 0x0, " ", 0x0, "f"
	DCB	0x0, "r", 0x0, "e", 0x0, "e", 0x0, ":", 0x0, " ", 0x0, "f"
	DCB	0x0, "a", 0x0, "i", 0x0, "l", 0x0, "e", 0x0, "d", 0x0, " "
	DCB	0x0, "t", 0x0, "o", 0x0, " ", 0x0, "f", 0x0, "r", 0x0, "e"
	DCB	0x0, "e", 0x0, " ", 0x0, "%", 0x0, "#", 0x0, "x", 0x0, 0xa
	DCB	0x0, 0x0, 0x0				; `string'

  00000			 AREA	 |.rdata|, DATA, READONLY
|??_C@_1HC@PLPAKFLC@?$AAC?$AAM?$AAE?$AAM?$AA?5?$AAD?$AAe?$AAb?$AAu?$AAg?$AA?3?$AA?5?$AAf?$AAr?$AAe?$AAe?$AA?3?$AA?5?$AAe?$AAn?$AAt?$AAe?$AAr?$AAe?$AAd?$AA?5?$AAw?$AA?1?$AA?5?$AAp?$AAt?$AAr@| DCB "C"
	DCB	0x0, "M", 0x0, "E", 0x0, "M", 0x0, " ", 0x0, "D", 0x0, "e"
	DCB	0x0, "b", 0x0, "u", 0x0, "g", 0x0, ":", 0x0, " ", 0x0, "f"
	DCB	0x0, "r", 0x0, "e", 0x0, "e", 0x0, ":", 0x0, " ", 0x0, "e"
	DCB	0x0, "n", 0x0, "t", 0x0, "e", 0x0, "r", 0x0, "e", 0x0, "d"
	DCB	0x0, " ", 0x0, "w", 0x0, "/", 0x0, " ", 0x0, "p", 0x0, "t"
	DCB	0x0, "r", 0x0, " ", 0x0, "%", 0x0, "p", 0x0, ",", 0x0, " "
	DCB	0x0, "p", 0x0, "a", 0x0, "r", 0x0, "a", 0x0, "m", 0x0, "s"
	DCB	0x0, " ", 0x0, "-", 0x0, " ", 0x0, "t", 0x0, "y", 0x0, "p"
	DCB	0x0, "e", 0x0, " ", 0x0, "%", 0x0, "s", 0x0, "%", 0x0, "s"
	DCB	0x0, 0xa, 0x0, 0x0, 0x0			; `string'
; Function compile flags: /Odtp

  00898			 AREA	 |.text|, CODE, ARM

  00898		 |CMEM_free| PROC

; 300  : {

  00898		 |$LN14@CMEM_free|
  00898	e1a0c00d	 mov         r12, sp
  0089c	e92d0003	 stmdb       sp!, {r0, r1}
  008a0	e92d5000	 stmdb       sp!, {r12, lr}
  008a4	e24dd054	 sub         sp, sp, #0x54
  008a8		 |$M37204|

; 301  :     union CMEM_AllocUnion freeDesc;
; 302  :     unsigned int cmd;
; 303  :     size_t size;
; 304  :     DWORD dwBytesReturned;
; 305  : 
; 306  :     if (params == NULL) {

  008a8	e59d3060	 ldr         r3, [sp, #0x60]
  008ac	e3530000	 cmp         r3, #0
  008b0	1a000001	 bne         |$LN3@CMEM_free|

; 307  :         params = &CMEM_DEFAULTPARAMS;

  008b4	e59f317c	 ldr         r3, [pc, #0x17C]
  008b8	e58d3060	 str         r3, [sp, #0x60]
  008bc		 |$LN3@CMEM_free|

; 308  :     }
; 309  : 
; 310  :     __D("free: entered w/ ptr %p, params - type %s%s\n",
; 311  :             ptr,
; 312  :             params->type == CMEM_POOL ? L"POOL" : L"HEAP",
; 313  :             params == &CMEM_DEFAULTPARAMS ? L" (default)" : L"");

  008bc	e59d2060	 ldr         r2, [sp, #0x60]
  008c0	e59f3170	 ldr         r3, [pc, #0x170]
  008c4	e1520003	 cmp         r2, r3
  008c8	1a000002	 bne         |$LN6@CMEM_free|
  008cc	e59f3160	 ldr         r3, [pc, #0x160]
  008d0	e58d3040	 str         r3, [sp, #0x40]
  008d4	ea000001	 b           |$LN7@CMEM_free|
  008d8		 |$LN6@CMEM_free|
  008d8	e59f3150	 ldr         r3, [pc, #0x150]
  008dc	e58d3040	 str         r3, [sp, #0x40]
  008e0		 |$LN7@CMEM_free|
  008e0	e59d3060	 ldr         r3, [sp, #0x60]
  008e4	e5933000	 ldr         r3, [r3]
  008e8	e3530000	 cmp         r3, #0
  008ec	1a000002	 bne         |$LN8@CMEM_free|
  008f0	e59f3134	 ldr         r3, [pc, #0x134]
  008f4	e58d3044	 str         r3, [sp, #0x44]
  008f8	ea000001	 b           |$LN9@CMEM_free|
  008fc		 |$LN8@CMEM_free|
  008fc	e59f3124	 ldr         r3, [pc, #0x124]
  00900	e58d3044	 str         r3, [sp, #0x44]
  00904		 |$LN9@CMEM_free|
  00904	e59d3040	 ldr         r3, [sp, #0x40]
  00908	e59d2044	 ldr         r2, [sp, #0x44]
  0090c	e59d105c	 ldr         r1, [sp, #0x5C]
  00910	e59f010c	 ldr         r0, [pc, #0x10C]
  00914	eb000000	 bl          NKDbgPrintfW

; 314  : 
; 315  :     if (!validate_init()) {

  00918	eb000000	 bl          validate_init
  0091c	e58d0048	 str         r0, [sp, #0x48]
  00920	e59d3048	 ldr         r3, [sp, #0x48]
  00924	e3530000	 cmp         r3, #0
  00928	1a000002	 bne         |$LN2@CMEM_free|

; 316  :         return -1;

  0092c	e3e03000	 mvn         r3, #0
  00930	e58d302c	 str         r3, [sp, #0x2C]
  00934	ea000030	 b           |$LN4@CMEM_free|
  00938		 |$LN2@CMEM_free|

; 317  :     }
; 318  : 
; 319  :     freeDesc.virtp = (int)ptr;

  00938	e59d305c	 ldr         r3, [sp, #0x5C]
  0093c	e58d301c	 str         r3, [sp, #0x1C]

; 320  :     cmd = CMEM_IOCFREE | params->type;

  00940	e59d3060	 ldr         r3, [sp, #0x60]
  00944	e5933000	 ldr         r3, [r3]
  00948	e3833003	 orr         r3, r3, #3
  0094c	e58d3010	 str         r3, [sp, #0x10]

; 321  :     if (!DeviceIoControl(hCMEM, cmd, &freeDesc, sizeof(freeDesc), NULL, 0,
; 322  :                 &dwBytesReturned, NULL)) {

  00950	e3a03000	 mov         r3, #0
  00954	e58d300c	 str         r3, [sp, #0xC]
  00958	e28d3018	 add         r3, sp, #0x18
  0095c	e58d3008	 str         r3, [sp, #8]
  00960	e3a03000	 mov         r3, #0
  00964	e58d3004	 str         r3, [sp, #4]
  00968	e3a03000	 mov         r3, #0
  0096c	e58d3000	 str         r3, [sp]
  00970	e3a03010	 mov         r3, #0x10
  00974	e28d201c	 add         r2, sp, #0x1C
  00978	e59d1010	 ldr         r1, [sp, #0x10]
  0097c	e59f009c	 ldr         r0, [pc, #0x9C]
  00980	e5900000	 ldr         r0, [r0]
  00984	eb000000	 bl          DeviceIoControl
  00988	e58d004c	 str         r0, [sp, #0x4C]
  0098c	e59d304c	 ldr         r3, [sp, #0x4C]
  00990	e3530000	 cmp         r3, #0
  00994	1a000005	 bne         |$LN1@CMEM_free|

; 323  :         __E("free: failed to free %#x\n", (unsigned int) ptr);

  00998	e59d105c	 ldr         r1, [sp, #0x5C]
  0099c	e59f0078	 ldr         r0, [pc, #0x78]
  009a0	eb000000	 bl          NKDbgPrintfW

; 324  :         return -1;

  009a4	e3e03000	 mvn         r3, #0
  009a8	e58d302c	 str         r3, [sp, #0x2C]
  009ac	ea000012	 b           |$LN4@CMEM_free|
  009b0		 |$LN1@CMEM_free|

; 325  :     }
; 326  :     size = freeDesc.free_outparams.size;

  009b0	e59d3020	 ldr         r3, [sp, #0x20]
  009b4	e58d3014	 str         r3, [sp, #0x14]

; 327  : 
; 328  :     __D("free: ioctl CMEM_IOCFREE%s succeeded, size %#x\n",
; 329  :             params->type == CMEM_POOL ? "POOL" : "HEAP", size);

  009b8	e59d3060	 ldr         r3, [sp, #0x60]
  009bc	e5933000	 ldr         r3, [r3]
  009c0	e3530000	 cmp         r3, #0
  009c4	1a000002	 bne         |$LN10@CMEM_free|
  009c8	e59f3048	 ldr         r3, [pc, #0x48]
  009cc	e58d3050	 str         r3, [sp, #0x50]
  009d0	ea000001	 b           |$LN11@CMEM_free|
  009d4		 |$LN10@CMEM_free|
  009d4	e59f3038	 ldr         r3, [pc, #0x38]
  009d8	e58d3050	 str         r3, [sp, #0x50]
  009dc		 |$LN11@CMEM_free|
  009dc	e59d2014	 ldr         r2, [sp, #0x14]
  009e0	e59d1050	 ldr         r1, [sp, #0x50]
  009e4	e59f0024	 ldr         r0, [pc, #0x24]
  009e8	eb000000	 bl          NKDbgPrintfW

; 330  : 
; 331  :     __D("free: munmap succeeded, returning 0\n");

  009ec	e59f0018	 ldr         r0, [pc, #0x18]
  009f0	eb000000	 bl          NKDbgPrintfW

; 332  : 
; 333  :     return 0;

  009f4	e3a03000	 mov         r3, #0
  009f8	e58d302c	 str         r3, [sp, #0x2C]
  009fc		 |$LN4@CMEM_free|

; 334  : }

  009fc	e59d002c	 ldr         r0, [sp, #0x2C]
  00a00	e28dd054	 add         sp, sp, #0x54
  00a04	e89d6000	 ldmia       sp, {sp, lr}
  00a08	e12fff1e	 bx          lr
  00a0c		 |$LN15@CMEM_free|
  00a0c		 |$LN16@CMEM_free|
  00a0c	00000000	 DCD         |??_C@_1GC@JLKOFGPM@?$AAC?$AAM?$AAE?$AAM?$AA?5?$AAD?$AAe?$AAb?$AAu?$AAg?$AA?3?$AA?5?$AAf?$AAr?$AAe?$AAe?$AA?3?$AA?5?$AAm?$AAu?$AAn?$AAm?$AAa?$AAp?$AA?5?$AAs?$AAu?$AAc?$AAc?$AAe?$AAe?$AAd@|
  00a10		 |$LN17@CMEM_free|
  00a10	00000000	 DCD         |??_C@_1HI@OHHOKKM@?$AAC?$AAM?$AAE?$AAM?$AA?5?$AAD?$AAe?$AAb?$AAu?$AAg?$AA?3?$AA?5?$AAf?$AAr?$AAe?$AAe?$AA?3?$AA?5?$AAi?$AAo?$AAc?$AAt?$AAl?$AA?5?$AAC?$AAM?$AAE?$AAM?$AA_?$AAI?$AAO?$AAC@|
  00a14		 |$LN18@CMEM_free|
  00a14	00000000	 DCD         |??_C@_04DGHHAJMG@HEAP?$AA@|
  00a18		 |$LN19@CMEM_free|
  00a18	00000000	 DCD         |??_C@_04OFLDEFLG@POOL?$AA@|
  00a1c		 |$LN20@CMEM_free|
  00a1c	00000000	 DCD         |??_C@_1EM@BJEPMKEE@?$AAC?$AAM?$AAE?$AAM?$AA?5?$AAE?$AAr?$AAr?$AAo?$AAr?$AA?3?$AA?5?$AAf?$AAr?$AAe?$AAe?$AA?3?$AA?5?$AAf?$AAa?$AAi?$AAl?$AAe?$AAd?$AA?5?$AAt?$AAo?$AA?5?$AAf?$AAr?$AAe?$AAe@|
  00a20		 |$LN21@CMEM_free|
  00a20	00000000	 DCD         |hCMEM|
  00a24		 |$LN22@CMEM_free|
  00a24	00000000	 DCD         |??_C@_1HC@PLPAKFLC@?$AAC?$AAM?$AAE?$AAM?$AA?5?$AAD?$AAe?$AAb?$AAu?$AAg?$AA?3?$AA?5?$AAf?$AAr?$AAe?$AAe?$AA?3?$AA?5?$AAe?$AAn?$AAt?$AAe?$AAr?$AAe?$AAd?$AA?5?$AAw?$AA?1?$AA?5?$AAp?$AAt?$AAr@|
  00a28		 |$LN23@CMEM_free|
  00a28	00000000	 DCD         |??_C@_19PPGMMKDP@?$AAH?$AAE?$AAA?$AAP?$AA?$AA@|
  00a2c		 |$LN24@CMEM_free|
  00a2c	00000000	 DCD         |??_C@_19HKBAJOLM@?$AAP?$AAO?$AAO?$AAL?$AA?$AA@|
  00a30		 |$LN25@CMEM_free|
  00a30	00000000	 DCD         |??_C@_11LOCGONAA@?$AA?$AA@|
  00a34		 |$LN26@CMEM_free|
  00a34	00000000	 DCD         |??_C@_1BG@OKFAKFBB@?$AA?5?$AA?$CI?$AAd?$AAe?$AAf?$AAa?$AAu?$AAl?$AAt?$AA?$CJ?$AA?$AA@|
  00a38		 |$LN27@CMEM_free|
  00a38	00000000	 DCD         |CMEM_DEFAULTPARAMS|
  00a3c		 |$M37205|

			 ENDP  ; |CMEM_free|

	EXPORT	|??_C@_1FE@LIJFHPGF@?$AAC?$AAM?$AAE?$AAM?$AA?5?$AAD?$AAe?$AAb?$AAu?$AAg?$AA?3?$AA?5?$AAg?$AAe?$AAt?$AAP?$AAo?$AAo?$AAl?$AA?3?$AA?5?$AAe?$AAn?$AAt?$AAe?$AAr?$AAe?$AAd?$AA?5?$AAw?$AA?1?$AA?5@| [ DATA ] ; `string'
	EXPORT	|CMEM_getPool|

  00060			 AREA	 |.pdata|, PDATA
|$T37226| DCD	|$LN5@CMEM_getPo|
	DCD	0x40001204

  00000			 AREA	 |.rdata|, DATA, READONLY
|??_C@_1FE@LIJFHPGF@?$AAC?$AAM?$AAE?$AAM?$AA?5?$AAD?$AAe?$AAb?$AAu?$AAg?$AA?3?$AA?5?$AAg?$AAe?$AAt?$AAP?$AAo?$AAo?$AAl?$AA?3?$AA?5?$AAe?$AAn?$AAt?$AAe?$AAr?$AAe?$AAd?$AA?5?$AAw?$AA?1?$AA?5@| DCB "C"
	DCB	0x0, "M", 0x0, "E", 0x0, "M", 0x0, " ", 0x0, "D", 0x0, "e"
	DCB	0x0, "b", 0x0, "u", 0x0, "g", 0x0, ":", 0x0, " ", 0x0, "g"
	DCB	0x0, "e", 0x0, "t", 0x0, "P", 0x0, "o", 0x0, "o", 0x0, "l"
	DCB	0x0, ":", 0x0, " ", 0x0, "e", 0x0, "n", 0x0, "t", 0x0, "e"
	DCB	0x0, "r", 0x0, "e", 0x0, "d", 0x0, " ", 0x0, "w", 0x0, "/"
	DCB	0x0, " ", 0x0, "s", 0x0, "i", 0x0, "z", 0x0, "e", 0x0, " "
	DCB	0x0, "%", 0x0, "#", 0x0, "x", 0x0, 0xa, 0x0, 0x0, 0x0 ; `string'
; Function compile flags: /Odtp

  00a3c			 AREA	 |.text|, CODE, ARM

  00a3c		 |CMEM_getPool| PROC

; 360  : {

  00a3c		 |$LN5@CMEM_getPo|
  00a3c	e1a0c00d	 mov         r12, sp
  00a40	e92d0001	 stmdb       sp!, {r0}
  00a44	e92d5000	 stmdb       sp!, {r12, lr}
  00a48	e24dd008	 sub         sp, sp, #8
  00a4c		 |$M37223|

; 361  :     __D("getPool: entered w/ size %#x\n", size);

  00a4c	e59d1010	 ldr         r1, [sp, #0x10]
  00a50	e59f0028	 ldr         r0, [pc, #0x28]
  00a54	eb000000	 bl          NKDbgPrintfW

; 362  : 
; 363  :     return getPoolFromBlock(0, size);

  00a58	e59d1010	 ldr         r1, [sp, #0x10]
  00a5c	e3a00000	 mov         r0, #0
  00a60	eb000000	 bl          getPoolFromBlock
  00a64	e58d0004	 str         r0, [sp, #4]
  00a68	e59d3004	 ldr         r3, [sp, #4]
  00a6c	e58d3000	 str         r3, [sp]

; 364  : }

  00a70	e59d0000	 ldr         r0, [sp]
  00a74	e28dd008	 add         sp, sp, #8
  00a78	e89d6000	 ldmia       sp, {sp, lr}
  00a7c	e12fff1e	 bx          lr
  00a80		 |$LN6@CMEM_getPo|
  00a80		 |$LN7@CMEM_getPo|
  00a80	00000000	 DCD         |??_C@_1FE@LIJFHPGF@?$AAC?$AAM?$AAE?$AAM?$AA?5?$AAD?$AAe?$AAb?$AAu?$AAg?$AA?3?$AA?5?$AAg?$AAe?$AAt?$AAP?$AAo?$AAo?$AAl?$AA?3?$AA?5?$AAe?$AAn?$AAt?$AAe?$AAr?$AAe?$AAd?$AA?5?$AAw?$AA?1?$AA?5@|
  00a84		 |$M37224|

			 ENDP  ; |CMEM_getPool|

	EXPORT	|??_C@_1JK@LLCINNI@?$AAC?$AAM?$AAE?$AAM?$AA?5?$AAD?$AAe?$AAb?$AAu?$AAg?$AA?3?$AA?5?$AAg?$AAe?$AAt?$AAP?$AAo?$AAo?$AAl?$AA?3?$AA?5?$AAe?$AAx?$AAi?$AAt?$AAi?$AAn?$AAg?$AA?0?$AA?5?$AAi?$AAo@| [ DATA ] ; `string'
	EXPORT	|??_C@_1HK@PAIBBAAG@?$AAC?$AAM?$AAE?$AAM?$AA?5?$AAE?$AAr?$AAr?$AAo?$AAr?$AA?3?$AA?5?$AAg?$AAe?$AAt?$AAP?$AAo?$AAo?$AAl?$AA?3?$AA?5?$AAF?$AAa?$AAi?$AAl?$AAe?$AAd?$AA?5?$AAt?$AAo?$AA?5?$AAg@| [ DATA ] ; `string'

  00068			 AREA	 |.pdata|, PDATA
|$T37238| DCD	|$LN7@getPoolFro|
	DCD	0x40003404

  00000			 AREA	 |.rdata|, DATA, READONLY
|??_C@_1JK@LLCINNI@?$AAC?$AAM?$AAE?$AAM?$AA?5?$AAD?$AAe?$AAb?$AAu?$AAg?$AA?3?$AA?5?$AAg?$AAe?$AAt?$AAP?$AAo?$AAo?$AAl?$AA?3?$AA?5?$AAe?$AAx?$AAi?$AAt?$AAi?$AAn?$AAg?$AA?0?$AA?5?$AAi?$AAo@| DCB "C"
	DCB	0x0, "M", 0x0, "E", 0x0, "M", 0x0, " ", 0x0, "D", 0x0, "e"
	DCB	0x0, "b", 0x0, "u", 0x0, "g", 0x0, ":", 0x0, " ", 0x0, "g"
	DCB	0x0, "e", 0x0, "t", 0x0, "P", 0x0, "o", 0x0, "o", 0x0, "l"
	DCB	0x0, ":", 0x0, " ", 0x0, "e", 0x0, "x", 0x0, "i", 0x0, "t"
	DCB	0x0, "i", 0x0, "n", 0x0, "g", 0x0, ",", 0x0, " ", 0x0, "i"
	DCB	0x0, "o", 0x0, "c", 0x0, "t", 0x0, "l", 0x0, " ", 0x0, "C"
	DCB	0x0, "M", 0x0, "E", 0x0, "M", 0x0, "_", 0x0, "I", 0x0, "O"
	DCB	0x0, "C", 0x0, "G", 0x0, "E", 0x0, "T", 0x0, "P", 0x0, "O"
	DCB	0x0, "O", 0x0, "L", 0x0, " ", 0x0, "s", 0x0, "u", 0x0, "c"
	DCB	0x0, "c", 0x0, "e", 0x0, "e", 0x0, "d", 0x0, "e", 0x0, "d"
	DCB	0x0, ",", 0x0, " ", 0x0, "r", 0x0, "e", 0x0, "t", 0x0, "u"
	DCB	0x0, "r", 0x0, "n", 0x0, "i", 0x0, "n", 0x0, "g", 0x0, " "
	DCB	0x0, "%", 0x0, "d", 0x0, 0xa, 0x0, 0x0, 0x0 ; `string'

  00000			 AREA	 |.rdata|, DATA, READONLY
|??_C@_1HK@PAIBBAAG@?$AAC?$AAM?$AAE?$AAM?$AA?5?$AAE?$AAr?$AAr?$AAo?$AAr?$AA?3?$AA?5?$AAg?$AAe?$AAt?$AAP?$AAo?$AAo?$AAl?$AA?3?$AA?5?$AAF?$AAa?$AAi?$AAl?$AAe?$AAd?$AA?5?$AAt?$AAo?$AA?5?$AAg@| DCB "C"
	DCB	0x0, "M", 0x0, "E", 0x0, "M", 0x0, " ", 0x0, "E", 0x0, "r"
	DCB	0x0, "r", 0x0, "o", 0x0, "r", 0x0, ":", 0x0, " ", 0x0, "g"
	DCB	0x0, "e", 0x0, "t", 0x0, "P", 0x0, "o", 0x0, "o", 0x0, "l"
	DCB	0x0, ":", 0x0, " ", 0x0, "F", 0x0, "a", 0x0, "i", 0x0, "l"
	DCB	0x0, "e", 0x0, "d", 0x0, " ", 0x0, "t", 0x0, "o", 0x0, " "
	DCB	0x0, "g", 0x0, "e", 0x0, "t", 0x0, " ", 0x0, "a", 0x0, " "
	DCB	0x0, "p", 0x0, "o", 0x0, "o", 0x0, "l", 0x0, " ", 0x0, "f"
	DCB	0x0, "i", 0x0, "t", 0x0, "t", 0x0, "i", 0x0, "n", 0x0, "g"
	DCB	0x0, " ", 0x0, "a", 0x0, " ", 0x0, "s", 0x0, "i", 0x0, "z"
	DCB	0x0, "e", 0x0, " ", 0x0, "%", 0x0, "d", 0x0, 0xa, 0x0, 0x0
	DCB	0x0					; `string'
; Function compile flags: /Odtp

  00a84			 AREA	 |.text|, CODE, ARM

  00a84		 |getPoolFromBlock| PROC

; 337  : {

  00a84		 |$LN7@getPoolFro|
  00a84	e1a0c00d	 mov         r12, sp
  00a88	e92d0003	 stmdb       sp!, {r0, r1}
  00a8c	e92d5000	 stmdb       sp!, {r12, lr}
  00a90	e24dd040	 sub         sp, sp, #0x40
  00a94		 |$M37235|

; 338  :     union CMEM_AllocUnion poolDesc; 
; 339  :     DWORD dwBytesReturned;
; 340  : 
; 341  :     if (!validate_init()) {

  00a94	eb000000	 bl          validate_init
  00a98	e58d0038	 str         r0, [sp, #0x38]
  00a9c	e59d3038	 ldr         r3, [sp, #0x38]
  00aa0	e3530000	 cmp         r3, #0
  00aa4	1a000002	 bne         |$LN2@getPoolFro|

; 342  :         return -1;

  00aa8	e3e03000	 mvn         r3, #0
  00aac	e58d3024	 str         r3, [sp, #0x24]
  00ab0	ea000020	 b           |$LN3@getPoolFro|
  00ab4		 |$LN2@getPoolFro|

; 343  :     }
; 344  : 
; 345  :     poolDesc.get_pool_inparams.size = size;

  00ab4	e59d304c	 ldr         r3, [sp, #0x4C]
  00ab8	e58d3014	 str         r3, [sp, #0x14]

; 346  :     poolDesc.get_pool_inparams.blockid = blockid;

  00abc	e59d3048	 ldr         r3, [sp, #0x48]
  00ac0	e58d3018	 str         r3, [sp, #0x18]

; 347  :     if (!DeviceIoControl(hCMEM, CMEM_IOCGETPOOL, &poolDesc, sizeof(poolDesc),
; 348  :                 NULL, 0, &dwBytesReturned, NULL)) {

  00ac4	e3a03000	 mov         r3, #0
  00ac8	e58d300c	 str         r3, [sp, #0xC]
  00acc	e28d3010	 add         r3, sp, #0x10
  00ad0	e58d3008	 str         r3, [sp, #8]
  00ad4	e3a03000	 mov         r3, #0
  00ad8	e58d3004	 str         r3, [sp, #4]
  00adc	e3a03000	 mov         r3, #0
  00ae0	e58d3000	 str         r3, [sp]
  00ae4	e3a03010	 mov         r3, #0x10
  00ae8	e28d2014	 add         r2, sp, #0x14
  00aec	e3a01006	 mov         r1, #6
  00af0	e59f0058	 ldr         r0, [pc, #0x58]
  00af4	e5900000	 ldr         r0, [r0]
  00af8	eb000000	 bl          DeviceIoControl
  00afc	e58d003c	 str         r0, [sp, #0x3C]
  00b00	e59d303c	 ldr         r3, [sp, #0x3C]
  00b04	e3530000	 cmp         r3, #0
  00b08	1a000005	 bne         |$LN1@getPoolFro|

; 349  :         __E("getPool: Failed to get a pool fitting a size %d\n", size);

  00b0c	e59d104c	 ldr         r1, [sp, #0x4C]
  00b10	e59f0034	 ldr         r0, [pc, #0x34]
  00b14	eb000000	 bl          NKDbgPrintfW

; 350  :         return -1;

  00b18	e3e03000	 mvn         r3, #0
  00b1c	e58d3024	 str         r3, [sp, #0x24]
  00b20	ea000004	 b           |$LN3@getPoolFro|
  00b24		 |$LN1@getPoolFro|

; 351  :     }
; 352  : 
; 353  :     __D("getPool: exiting, ioctl CMEM_IOCGETPOOL succeeded, returning %d\n",
; 354  :             poolDesc.poolid);

  00b24	e59d1014	 ldr         r1, [sp, #0x14]
  00b28	e59f0018	 ldr         r0, [pc, #0x18]
  00b2c	eb000000	 bl          NKDbgPrintfW

; 355  : 
; 356  :     return poolDesc.poolid;

  00b30	e59d3014	 ldr         r3, [sp, #0x14]
  00b34	e58d3024	 str         r3, [sp, #0x24]
  00b38		 |$LN3@getPoolFro|

; 357  : }

  00b38	e59d0024	 ldr         r0, [sp, #0x24]
  00b3c	e28dd040	 add         sp, sp, #0x40
  00b40	e89d6000	 ldmia       sp, {sp, lr}
  00b44	e12fff1e	 bx          lr
  00b48		 |$LN8@getPoolFro|
  00b48		 |$LN9@getPoolFro|
  00b48	00000000	 DCD         |??_C@_1JK@LLCINNI@?$AAC?$AAM?$AAE?$AAM?$AA?5?$AAD?$AAe?$AAb?$AAu?$AAg?$AA?3?$AA?5?$AAg?$AAe?$AAt?$AAP?$AAo?$AAo?$AAl?$AA?3?$AA?5?$AAe?$AAx?$AAi?$AAt?$AAi?$AAn?$AAg?$AA?0?$AA?5?$AAi?$AAo@|
  00b4c		 |$LN10@getPoolFro|
  00b4c	00000000	 DCD         |??_C@_1HK@PAIBBAAG@?$AAC?$AAM?$AAE?$AAM?$AA?5?$AAE?$AAr?$AAr?$AAo?$AAr?$AA?3?$AA?5?$AAg?$AAe?$AAt?$AAP?$AAo?$AAo?$AAl?$AA?3?$AA?5?$AAF?$AAa?$AAi?$AAl?$AAe?$AAd?$AA?5?$AAt?$AAo?$AA?5?$AAg@|
  00b50		 |$LN11@getPoolFro|
  00b50	00000000	 DCD         |hCMEM|
  00b54		 |$M37236|

			 ENDP  ; |getPoolFromBlock|

	EXPORT	|??_C@_1FG@CHPLFONO@?$AAC?$AAM?$AAE?$AAM?$AA?5?$AAD?$AAe?$AAb?$AAu?$AAg?$AA?3?$AA?5?$AAg?$AAe?$AAt?$AAP?$AAo?$AAo?$AAl?$AA2?$AA?3?$AA?5?$AAe?$AAn?$AAt?$AAe?$AAr?$AAe?$AAd?$AA?5?$AAw?$AA?1@| [ DATA ] ; `string'

  00070			 AREA	 |.pdata|, PDATA
|$T37248| DCD	|$LN5@CMEM_getPo@2|
	DCD	0x40001204

  00000			 AREA	 |.rdata|, DATA, READONLY
|??_C@_1FG@CHPLFONO@?$AAC?$AAM?$AAE?$AAM?$AA?5?$AAD?$AAe?$AAb?$AAu?$AAg?$AA?3?$AA?5?$AAg?$AAe?$AAt?$AAP?$AAo?$AAo?$AAl?$AA2?$AA?3?$AA?5?$AAe?$AAn?$AAt?$AAe?$AAr?$AAe?$AAd?$AA?5?$AAw?$AA?1@| DCB "C"
	DCB	0x0, "M", 0x0, "E", 0x0, "M", 0x0, " ", 0x0, "D", 0x0, "e"
	DCB	0x0, "b", 0x0, "u", 0x0, "g", 0x0, ":", 0x0, " ", 0x0, "g"
	DCB	0x0, "e", 0x0, "t", 0x0, "P", 0x0, "o", 0x0, "o", 0x0, "l"
	DCB	0x0, "2", 0x0, ":", 0x0, " ", 0x0, "e", 0x0, "n", 0x0, "t"
	DCB	0x0, "e", 0x0, "r", 0x0, "e", 0x0, "d", 0x0, " ", 0x0, "w"
	DCB	0x0, "/", 0x0, " ", 0x0, "s", 0x0, "i", 0x0, "z", 0x0, "e"
	DCB	0x0, " ", 0x0, "%", 0x0, "#", 0x0, "x", 0x0, 0xa, 0x0, 0x0
	DCB	0x0					; `string'
; Function compile flags: /Odtp

  00b54			 AREA	 |.text|, CODE, ARM

  00b54		 |CMEM_getPool2| PROC

; 367  : {

  00b54		 |$LN5@CMEM_getPo@2|
  00b54	e1a0c00d	 mov         r12, sp
  00b58	e92d0003	 stmdb       sp!, {r0, r1}
  00b5c	e92d5000	 stmdb       sp!, {r12, lr}
  00b60	e24dd008	 sub         sp, sp, #8
  00b64		 |$M37245|

; 368  :     __D("getPool2: entered w/ size %#x\n", size);

  00b64	e59d1014	 ldr         r1, [sp, #0x14]
  00b68	e59f0028	 ldr         r0, [pc, #0x28]
  00b6c	eb000000	 bl          NKDbgPrintfW

; 369  : 
; 370  :     return getPoolFromBlock(blockid, size);

  00b70	e59d1014	 ldr         r1, [sp, #0x14]
  00b74	e59d0010	 ldr         r0, [sp, #0x10]
  00b78	eb000000	 bl          getPoolFromBlock
  00b7c	e58d0004	 str         r0, [sp, #4]
  00b80	e59d3004	 ldr         r3, [sp, #4]
  00b84	e58d3000	 str         r3, [sp]

; 371  : }

  00b88	e59d0000	 ldr         r0, [sp]
  00b8c	e28dd008	 add         sp, sp, #8
  00b90	e89d6000	 ldmia       sp, {sp, lr}
  00b94	e12fff1e	 bx          lr
  00b98		 |$LN6@CMEM_getPo@2|
  00b98		 |$LN7@CMEM_getPo@2|
  00b98	00000000	 DCD         |??_C@_1FG@CHPLFONO@?$AAC?$AAM?$AAE?$AAM?$AA?5?$AAD?$AAe?$AAb?$AAu?$AAg?$AA?3?$AA?5?$AAg?$AAe?$AAt?$AAP?$AAo?$AAo?$AAl?$AA2?$AA?3?$AA?5?$AAe?$AAn?$AAt?$AAe?$AAr?$AAe?$AAd?$AA?5?$AAw?$AA?1@|
  00b9c		 |$M37246|

			 ENDP  ; |CMEM_getPool2|

	EXPORT	|??_C@_1JO@NLJALCKO@?$AAC?$AAM?$AAE?$AAM?$AA?5?$AAD?$AAe?$AAb?$AAu?$AAg?$AA?3?$AA?5?$AAg?$AAe?$AAt?$AAP?$AAh?$AAy?$AAs?$AA?3?$AA?5?$AAe?$AAx?$AAi?$AAt?$AAi?$AAn?$AAg?$AA?0?$AA?5?$AAi?$AAo@| [ DATA ] ; `string'
	EXPORT	|??_C@_1HI@OPGJOMO@?$AAC?$AAM?$AAE?$AAM?$AA?5?$AAE?$AAr?$AAr?$AAo?$AAr?$AA?3?$AA?5?$AAg?$AAe?$AAt?$AAP?$AAh?$AAy?$AAs?$AA?3?$AA?5?$AAF?$AAa?$AAi?$AAl?$AAe?$AAd?$AA?5?$AAt?$AAo?$AA?5?$AAg@| [ DATA ] ; `string'
	EXPORT	|??_C@_1FC@CJFGBFOI@?$AAC?$AAM?$AAE?$AAM?$AA?5?$AAD?$AAe?$AAb?$AAu?$AAg?$AA?3?$AA?5?$AAg?$AAe?$AAt?$AAP?$AAh?$AAy?$AAs?$AA?3?$AA?5?$AAe?$AAn?$AAt?$AAe?$AAr?$AAe?$AAd?$AA?5?$AAw?$AA?1?$AA?5@| [ DATA ] ; `string'
	EXPORT	|CMEM_getPhys|

  00078			 AREA	 |.pdata|, PDATA
|$T37260| DCD	|$LN7@CMEM_getPh|
	DCD	0x40003604

  00000			 AREA	 |.rdata|, DATA, READONLY
|??_C@_1JO@NLJALCKO@?$AAC?$AAM?$AAE?$AAM?$AA?5?$AAD?$AAe?$AAb?$AAu?$AAg?$AA?3?$AA?5?$AAg?$AAe?$AAt?$AAP?$AAh?$AAy?$AAs?$AA?3?$AA?5?$AAe?$AAx?$AAi?$AAt?$AAi?$AAn?$AAg?$AA?0?$AA?5?$AAi?$AAo@| DCB "C"
	DCB	0x0, "M", 0x0, "E", 0x0, "M", 0x0, " ", 0x0, "D", 0x0, "e"
	DCB	0x0, "b", 0x0, "u", 0x0, "g", 0x0, ":", 0x0, " ", 0x0, "g"
	DCB	0x0, "e", 0x0, "t", 0x0, "P", 0x0, "h", 0x0, "y", 0x0, "s"
	DCB	0x0, ":", 0x0, " ", 0x0, "e", 0x0, "x", 0x0, "i", 0x0, "t"
	DCB	0x0, "i", 0x0, "n", 0x0, "g", 0x0, ",", 0x0, " ", 0x0, "i"
	DCB	0x0, "o", 0x0, "c", 0x0, "t", 0x0, "l", 0x0, " ", 0x0, "C"
	DCB	0x0, "M", 0x0, "E", 0x0, "M", 0x0, "_", 0x0, "I", 0x0, "O"
	DCB	0x0, "C", 0x0, "G", 0x0, "E", 0x0, "T", 0x0, "P", 0x0, "H"
	DCB	0x0, "Y", 0x0, "S", 0x0, " ", 0x0, "s", 0x0, "u", 0x0, "c"
	DCB	0x0, "c", 0x0, "e", 0x0, "e", 0x0, "d", 0x0, "e", 0x0, "d"
	DCB	0x0, ",", 0x0, " ", 0x0, "r", 0x0, "e", 0x0, "t", 0x0, "u"
	DCB	0x0, "r", 0x0, "n", 0x0, "i", 0x0, "n", 0x0, "g", 0x0, " "
	DCB	0x0, "%", 0x0, "#", 0x0, "l", 0x0, "x", 0x0, 0xa, 0x0, 0x0
	DCB	0x0					; `string'

  00000			 AREA	 |.rdata|, DATA, READONLY
|??_C@_1HI@OPGJOMO@?$AAC?$AAM?$AAE?$AAM?$AA?5?$AAE?$AAr?$AAr?$AAo?$AAr?$AA?3?$AA?5?$AAg?$AAe?$AAt?$AAP?$AAh?$AAy?$AAs?$AA?3?$AA?5?$AAF?$AAa?$AAi?$AAl?$AAe?$AAd?$AA?5?$AAt?$AAo?$AA?5?$AAg@| DCB "C"
	DCB	0x0, "M", 0x0, "E", 0x0, "M", 0x0, " ", 0x0, "E", 0x0, "r"
	DCB	0x0, "r", 0x0, "o", 0x0, "r", 0x0, ":", 0x0, " ", 0x0, "g"
	DCB	0x0, "e", 0x0, "t", 0x0, "P", 0x0, "h", 0x0, "y", 0x0, "s"
	DCB	0x0, ":", 0x0, " ", 0x0, "F", 0x0, "a", 0x0, "i", 0x0, "l"
	DCB	0x0, "e", 0x0, "d", 0x0, " ", 0x0, "t", 0x0, "o", 0x0, " "
	DCB	0x0, "g", 0x0, "e", 0x0, "t", 0x0, " ", 0x0, "p", 0x0, "h"
	DCB	0x0, "y", 0x0, "s", 0x0, "i", 0x0, "c", 0x0, "a", 0x0, "l"
	DCB	0x0, " ", 0x0, "a", 0x0, "d", 0x0, "d", 0x0, "r", 0x0, "e"
	DCB	0x0, "s", 0x0, "s", 0x0, " ", 0x0, "o", 0x0, "f", 0x0, " "
	DCB	0x0, "%", 0x0, "#", 0x0, "x", 0x0, 0xa, 0x0, 0x0, 0x0 ; `string'

  00000			 AREA	 |.rdata|, DATA, READONLY
|??_C@_1FC@CJFGBFOI@?$AAC?$AAM?$AAE?$AAM?$AA?5?$AAD?$AAe?$AAb?$AAu?$AAg?$AA?3?$AA?5?$AAg?$AAe?$AAt?$AAP?$AAh?$AAy?$AAs?$AA?3?$AA?5?$AAe?$AAn?$AAt?$AAe?$AAr?$AAe?$AAd?$AA?5?$AAw?$AA?1?$AA?5@| DCB "C"
	DCB	0x0, "M", 0x0, "E", 0x0, "M", 0x0, " ", 0x0, "D", 0x0, "e"
	DCB	0x0, "b", 0x0, "u", 0x0, "g", 0x0, ":", 0x0, " ", 0x0, "g"
	DCB	0x0, "e", 0x0, "t", 0x0, "P", 0x0, "h", 0x0, "y", 0x0, "s"
	DCB	0x0, ":", 0x0, " ", 0x0, "e", 0x0, "n", 0x0, "t", 0x0, "e"
	DCB	0x0, "r", 0x0, "e", 0x0, "d", 0x0, " ", 0x0, "w", 0x0, "/"
	DCB	0x0, " ", 0x0, "a", 0x0, "d", 0x0, "d", 0x0, "r", 0x0, " "
	DCB	0x0, "%", 0x0, "p", 0x0, 0xa, 0x0, 0x0, 0x0 ; `string'
; Function compile flags: /Odtp

  00b9c			 AREA	 |.text|, CODE, ARM

  00b9c		 |CMEM_getPhys| PROC

; 374  : {

  00b9c		 |$LN7@CMEM_getPh|
  00b9c	e1a0c00d	 mov         r12, sp
  00ba0	e92d0001	 stmdb       sp!, {r0}
  00ba4	e92d5000	 stmdb       sp!, {r12, lr}
  00ba8	e24dd040	 sub         sp, sp, #0x40
  00bac		 |$M37257|

; 375  :     union CMEM_AllocUnion getDesc;
; 376  :     DWORD dwBytesReturned;
; 377  : 
; 378  :     __D("getPhys: entered w/ addr %p\n", ptr);

  00bac	e59d1048	 ldr         r1, [sp, #0x48]
  00bb0	e59f00b8	 ldr         r0, [pc, #0xB8]
  00bb4	eb000000	 bl          NKDbgPrintfW

; 379  : 
; 380  :     if (!validate_init()) {

  00bb8	eb000000	 bl          validate_init
  00bbc	e58d0038	 str         r0, [sp, #0x38]
  00bc0	e59d3038	 ldr         r3, [sp, #0x38]
  00bc4	e3530000	 cmp         r3, #0
  00bc8	1a000002	 bne         |$LN2@CMEM_getPh|

; 381  :         return 0;

  00bcc	e3a03000	 mov         r3, #0
  00bd0	e58d3024	 str         r3, [sp, #0x24]
  00bd4	ea00001e	 b           |$LN3@CMEM_getPh|
  00bd8		 |$LN2@CMEM_getPh|

; 382  :     }
; 383  : 
; 384  :     getDesc.virtp = (unsigned long)ptr;

  00bd8	e59d3048	 ldr         r3, [sp, #0x48]
  00bdc	e58d3010	 str         r3, [sp, #0x10]

; 385  :     if (!DeviceIoControl(hCMEM, CMEM_IOCGETPHYS, &getDesc, sizeof(getDesc),
; 386  :                 NULL, 0, &dwBytesReturned, NULL)) {

  00be0	e3a03000	 mov         r3, #0
  00be4	e58d300c	 str         r3, [sp, #0xC]
  00be8	e28d3020	 add         r3, sp, #0x20
  00bec	e58d3008	 str         r3, [sp, #8]
  00bf0	e3a03000	 mov         r3, #0
  00bf4	e58d3004	 str         r3, [sp, #4]
  00bf8	e3a03000	 mov         r3, #0
  00bfc	e58d3000	 str         r3, [sp]
  00c00	e3a03010	 mov         r3, #0x10
  00c04	e28d2010	 add         r2, sp, #0x10
  00c08	e3a01004	 mov         r1, #4
  00c0c	e59f0058	 ldr         r0, [pc, #0x58]
  00c10	e5900000	 ldr         r0, [r0]
  00c14	eb000000	 bl          DeviceIoControl
  00c18	e58d003c	 str         r0, [sp, #0x3C]
  00c1c	e59d303c	 ldr         r3, [sp, #0x3C]
  00c20	e3530000	 cmp         r3, #0
  00c24	1a000005	 bne         |$LN1@CMEM_getPh|

; 387  :         __E("getPhys: Failed to get physical address of %#x\n",
; 388  :                 (unsigned int) ptr);

  00c28	e59d1048	 ldr         r1, [sp, #0x48]
  00c2c	e59f0034	 ldr         r0, [pc, #0x34]
  00c30	eb000000	 bl          NKDbgPrintfW

; 389  :         return 0;

  00c34	e3a03000	 mov         r3, #0
  00c38	e58d3024	 str         r3, [sp, #0x24]
  00c3c	ea000004	 b           |$LN3@CMEM_getPh|
  00c40		 |$LN1@CMEM_getPh|

; 390  :     }
; 391  : 
; 392  :     __D("getPhys: exiting, ioctl CMEM_IOCGETPHYS succeeded, returning %#lx\n",
; 393  :             getDesc.physp);

  00c40	e59d1010	 ldr         r1, [sp, #0x10]
  00c44	e59f0018	 ldr         r0, [pc, #0x18]
  00c48	eb000000	 bl          NKDbgPrintfW

; 394  : 
; 395  :     return getDesc.physp;

  00c4c	e59d3010	 ldr         r3, [sp, #0x10]
  00c50	e58d3024	 str         r3, [sp, #0x24]
  00c54		 |$LN3@CMEM_getPh|

; 396  : }

  00c54	e59d0024	 ldr         r0, [sp, #0x24]
  00c58	e28dd040	 add         sp, sp, #0x40
  00c5c	e89d6000	 ldmia       sp, {sp, lr}
  00c60	e12fff1e	 bx          lr
  00c64		 |$LN8@CMEM_getPh|
  00c64		 |$LN9@CMEM_getPh|
  00c64	00000000	 DCD         |??_C@_1JO@NLJALCKO@?$AAC?$AAM?$AAE?$AAM?$AA?5?$AAD?$AAe?$AAb?$AAu?$AAg?$AA?3?$AA?5?$AAg?$AAe?$AAt?$AAP?$AAh?$AAy?$AAs?$AA?3?$AA?5?$AAe?$AAx?$AAi?$AAt?$AAi?$AAn?$AAg?$AA?0?$AA?5?$AAi?$AAo@|
  00c68		 |$LN10@CMEM_getPh|
  00c68	00000000	 DCD         |??_C@_1HI@OPGJOMO@?$AAC?$AAM?$AAE?$AAM?$AA?5?$AAE?$AAr?$AAr?$AAo?$AAr?$AA?3?$AA?5?$AAg?$AAe?$AAt?$AAP?$AAh?$AAy?$AAs?$AA?3?$AA?5?$AAF?$AAa?$AAi?$AAl?$AAe?$AAd?$AA?5?$AAt?$AAo?$AA?5?$AAg@|
  00c6c		 |$LN11@CMEM_getPh|
  00c6c	00000000	 DCD         |hCMEM|
  00c70		 |$LN12@CMEM_getPh|
  00c70	00000000	 DCD         |??_C@_1FC@CJFGBFOI@?$AAC?$AAM?$AAE?$AAM?$AA?5?$AAD?$AAe?$AAb?$AAu?$AAg?$AA?3?$AA?5?$AAg?$AAe?$AAt?$AAP?$AAh?$AAy?$AAs?$AA?3?$AA?5?$AAe?$AAn?$AAt?$AAe?$AAr?$AAe?$AAd?$AA?5?$AAw?$AA?1?$AA?5@|
  00c74		 |$M37258|

			 ENDP  ; |CMEM_getPhys|

	EXPORT	|??_C@_1JI@PNLPBHDB@?$AAC?$AAM?$AAE?$AAM?$AA?5?$AAD?$AAe?$AAb?$AAu?$AAg?$AA?3?$AA?5?$AAc?$AAa?$AAc?$AAh?$AAe?$AAW?$AAb?$AA?3?$AA?5?$AAe?$AAx?$AAi?$AAt?$AAi?$AAn?$AAg?$AA?0?$AA?5?$AAi?$AAo@| [ DATA ] ; `string'
	EXPORT	|??_C@_1FM@CCMAPMKD@?$AAC?$AAM?$AAE?$AAM?$AA?5?$AAE?$AAr?$AAr?$AAo?$AAr?$AA?3?$AA?5?$AAc?$AAa?$AAc?$AAh?$AAe?$AAW?$AAb?$AA?3?$AA?5?$AAF?$AAa?$AAi?$AAl?$AAe?$AAd?$AA?5?$AAt?$AAo?$AA?5?$AAw@| [ DATA ] ; `string'
	EXPORT	|??_C@_1GG@FKCDJMGM@?$AAC?$AAM?$AAE?$AAM?$AA?5?$AAD?$AAe?$AAb?$AAu?$AAg?$AA?3?$AA?5?$AAc?$AAa?$AAc?$AAh?$AAe?$AAW?$AAb?$AA?3?$AA?5?$AAe?$AAn?$AAt?$AAe?$AAr?$AAe?$AAd?$AA?5?$AAw?$AA?1?$AA?5@| [ DATA ] ; `string'
	EXPORT	|CMEM_cacheWb|

  00080			 AREA	 |.pdata|, PDATA
|$T37275| DCD	|$LN7@CMEM_cache|
	DCD	0x40003904

  00000			 AREA	 |.rdata|, DATA, READONLY
|??_C@_1JI@PNLPBHDB@?$AAC?$AAM?$AAE?$AAM?$AA?5?$AAD?$AAe?$AAb?$AAu?$AAg?$AA?3?$AA?5?$AAc?$AAa?$AAc?$AAh?$AAe?$AAW?$AAb?$AA?3?$AA?5?$AAe?$AAx?$AAi?$AAt?$AAi?$AAn?$AAg?$AA?0?$AA?5?$AAi?$AAo@| DCB "C"
	DCB	0x0, "M", 0x0, "E", 0x0, "M", 0x0, " ", 0x0, "D", 0x0, "e"
	DCB	0x0, "b", 0x0, "u", 0x0, "g", 0x0, ":", 0x0, " ", 0x0, "c"
	DCB	0x0, "a", 0x0, "c", 0x0, "h", 0x0, "e", 0x0, "W", 0x0, "b"
	DCB	0x0, ":", 0x0, " ", 0x0, "e", 0x0, "x", 0x0, "i", 0x0, "t"
	DCB	0x0, "i", 0x0, "n", 0x0, "g", 0x0, ",", 0x0, " ", 0x0, "i"
	DCB	0x0, "o", 0x0, "c", 0x0, "t", 0x0, "l", 0x0, " ", 0x0, "C"
	DCB	0x0, "M", 0x0, "E", 0x0, "M", 0x0, "_", 0x0, "I", 0x0, "O"
	DCB	0x0, "C", 0x0, "C", 0x0, "A", 0x0, "C", 0x0, "H", 0x0, "E"
	DCB	0x0, "W", 0x0, "B", 0x0, " ", 0x0, "s", 0x0, "u", 0x0, "c"
	DCB	0x0, "c", 0x0, "e", 0x0, "e", 0x0, "d", 0x0, "e", 0x0, "d"
	DCB	0x0, ",", 0x0, " ", 0x0, "r", 0x0, "e", 0x0, "t", 0x0, "u"
	DCB	0x0, "r", 0x0, "n", 0x0, "i", 0x0, "n", 0x0, "g", 0x0, " "
	DCB	0x0, "0", 0x0, 0xa, 0x0, 0x0, 0x0	; `string'

  00000			 AREA	 |.rdata|, DATA, READONLY
|??_C@_1FM@CCMAPMKD@?$AAC?$AAM?$AAE?$AAM?$AA?5?$AAE?$AAr?$AAr?$AAo?$AAr?$AA?3?$AA?5?$AAc?$AAa?$AAc?$AAh?$AAe?$AAW?$AAb?$AA?3?$AA?5?$AAF?$AAa?$AAi?$AAl?$AAe?$AAd?$AA?5?$AAt?$AAo?$AA?5?$AAw@| DCB "C"
	DCB	0x0, "M", 0x0, "E", 0x0, "M", 0x0, " ", 0x0, "E", 0x0, "r"
	DCB	0x0, "r", 0x0, "o", 0x0, "r", 0x0, ":", 0x0, " ", 0x0, "c"
	DCB	0x0, "a", 0x0, "c", 0x0, "h", 0x0, "e", 0x0, "W", 0x0, "b"
	DCB	0x0, ":", 0x0, " ", 0x0, "F", 0x0, "a", 0x0, "i", 0x0, "l"
	DCB	0x0, "e", 0x0, "d", 0x0, " ", 0x0, "t", 0x0, "o", 0x0, " "
	DCB	0x0, "w", 0x0, "r", 0x0, "i", 0x0, "t", 0x0, "e", 0x0, "b"
	DCB	0x0, "a", 0x0, "c", 0x0, "k", 0x0, " ", 0x0, "%", 0x0, "#"
	DCB	0x0, "x", 0x0, 0xa, 0x0, 0x0, 0x0	; `string'

  00000			 AREA	 |.rdata|, DATA, READONLY
|??_C@_1GG@FKCDJMGM@?$AAC?$AAM?$AAE?$AAM?$AA?5?$AAD?$AAe?$AAb?$AAu?$AAg?$AA?3?$AA?5?$AAc?$AAa?$AAc?$AAh?$AAe?$AAW?$AAb?$AA?3?$AA?5?$AAe?$AAn?$AAt?$AAe?$AAr?$AAe?$AAd?$AA?5?$AAw?$AA?1?$AA?5@| DCB "C"
	DCB	0x0, "M", 0x0, "E", 0x0, "M", 0x0, " ", 0x0, "D", 0x0, "e"
	DCB	0x0, "b", 0x0, "u", 0x0, "g", 0x0, ":", 0x0, " ", 0x0, "c"
	DCB	0x0, "a", 0x0, "c", 0x0, "h", 0x0, "e", 0x0, "W", 0x0, "b"
	DCB	0x0, ":", 0x0, " ", 0x0, "e", 0x0, "n", 0x0, "t", 0x0, "e"
	DCB	0x0, "r", 0x0, "e", 0x0, "d", 0x0, " ", 0x0, "w", 0x0, "/"
	DCB	0x0, " ", 0x0, "a", 0x0, "d", 0x0, "d", 0x0, "r", 0x0, " "
	DCB	0x0, "%", 0x0, "p", 0x0, ",", 0x0, " ", 0x0, "s", 0x0, "i"
	DCB	0x0, "z", 0x0, "e", 0x0, " ", 0x0, "%", 0x0, "#", 0x0, "x"
	DCB	0x0, 0xa, 0x0, 0x0, 0x0			; `string'
; Function compile flags: /Odtp

  00c74			 AREA	 |.text|, CODE, ARM

  00c74		 |CMEM_cacheWb| PROC

; 399  : {

  00c74		 |$LN7@CMEM_cache|
  00c74	e1a0c00d	 mov         r12, sp
  00c78	e92d0003	 stmdb       sp!, {r0, r1}
  00c7c	e92d5000	 stmdb       sp!, {r12, lr}
  00c80	e24dd038	 sub         sp, sp, #0x38
  00c84		 |$M37272|

; 400  :     struct block_struct block;
; 401  :     DWORD  dwBytesReturned;
; 402  : 
; 403  :     __D("cacheWb: entered w/ addr %p, size %#x\n", ptr, size);

  00c84	e59d2044	 ldr         r2, [sp, #0x44]
  00c88	e59d1040	 ldr         r1, [sp, #0x40]
  00c8c	e59f00c0	 ldr         r0, [pc, #0xC0]
  00c90	eb000000	 bl          NKDbgPrintfW

; 404  : 
; 405  :     if (!validate_init()) {

  00c94	eb000000	 bl          validate_init
  00c98	e58d0030	 str         r0, [sp, #0x30]
  00c9c	e59d3030	 ldr         r3, [sp, #0x30]
  00ca0	e3530000	 cmp         r3, #0
  00ca4	1a000002	 bne         |$LN2@CMEM_cache|

; 406  :         return -1;

  00ca8	e3e03000	 mvn         r3, #0
  00cac	e58d301c	 str         r3, [sp, #0x1C]
  00cb0	ea000020	 b           |$LN3@CMEM_cache|
  00cb4		 |$LN2@CMEM_cache|

; 407  :     }
; 408  : 
; 409  :     block.addr = (unsigned long)ptr;

  00cb4	e59d3040	 ldr         r3, [sp, #0x40]
  00cb8	e58d3014	 str         r3, [sp, #0x14]

; 410  :     block.size = size;

  00cbc	e59d3044	 ldr         r3, [sp, #0x44]
  00cc0	e58d3018	 str         r3, [sp, #0x18]

; 411  :     if (!DeviceIoControl(hCMEM, CMEM_IOCCACHEWB, &block, sizeof(block), NULL,
; 412  :                 0, &dwBytesReturned, NULL)) {

  00cc4	e3a03000	 mov         r3, #0
  00cc8	e58d300c	 str         r3, [sp, #0xC]
  00ccc	e28d3010	 add         r3, sp, #0x10
  00cd0	e58d3008	 str         r3, [sp, #8]
  00cd4	e3a03000	 mov         r3, #0
  00cd8	e58d3004	 str         r3, [sp, #4]
  00cdc	e3a03000	 mov         r3, #0
  00ce0	e58d3000	 str         r3, [sp]
  00ce4	e3a03008	 mov         r3, #8
  00ce8	e28d2014	 add         r2, sp, #0x14
  00cec	e3a01c01	 mov         r1, #1, 24
  00cf0	e3811007	 orr         r1, r1, #7
  00cf4	e59f0054	 ldr         r0, [pc, #0x54]
  00cf8	e5900000	 ldr         r0, [r0]
  00cfc	eb000000	 bl          DeviceIoControl
  00d00	e58d0034	 str         r0, [sp, #0x34]
  00d04	e59d3034	 ldr         r3, [sp, #0x34]
  00d08	e3530000	 cmp         r3, #0
  00d0c	1a000005	 bne         |$LN1@CMEM_cache|

; 413  :         __E("cacheWb: Failed to writeback %#x\n", (unsigned int) ptr);

  00d10	e59d1040	 ldr         r1, [sp, #0x40]
  00d14	e59f0030	 ldr         r0, [pc, #0x30]
  00d18	eb000000	 bl          NKDbgPrintfW

; 414  : 
; 415  :         return -1;

  00d1c	e3e03000	 mvn         r3, #0
  00d20	e58d301c	 str         r3, [sp, #0x1C]
  00d24	ea000003	 b           |$LN3@CMEM_cache|
  00d28		 |$LN1@CMEM_cache|

; 416  :     }
; 417  : 
; 418  :     __D("cacheWb: exiting, ioctl CMEM_IOCCACHEWB succeeded, returning 0\n");

  00d28	e59f0018	 ldr         r0, [pc, #0x18]
  00d2c	eb000000	 bl          NKDbgPrintfW

; 419  : 
; 420  :     return 0;

  00d30	e3a03000	 mov         r3, #0
  00d34	e58d301c	 str         r3, [sp, #0x1C]
  00d38		 |$LN3@CMEM_cache|

; 421  : }

  00d38	e59d001c	 ldr         r0, [sp, #0x1C]
  00d3c	e28dd038	 add         sp, sp, #0x38
  00d40	e89d6000	 ldmia       sp, {sp, lr}
  00d44	e12fff1e	 bx          lr
  00d48		 |$LN8@CMEM_cache|
  00d48		 |$LN9@CMEM_cache|
  00d48	00000000	 DCD         |??_C@_1JI@PNLPBHDB@?$AAC?$AAM?$AAE?$AAM?$AA?5?$AAD?$AAe?$AAb?$AAu?$AAg?$AA?3?$AA?5?$AAc?$AAa?$AAc?$AAh?$AAe?$AAW?$AAb?$AA?3?$AA?5?$AAe?$AAx?$AAi?$AAt?$AAi?$AAn?$AAg?$AA?0?$AA?5?$AAi?$AAo@|
  00d4c		 |$LN10@CMEM_cache|
  00d4c	00000000	 DCD         |??_C@_1FM@CCMAPMKD@?$AAC?$AAM?$AAE?$AAM?$AA?5?$AAE?$AAr?$AAr?$AAo?$AAr?$AA?3?$AA?5?$AAc?$AAa?$AAc?$AAh?$AAe?$AAW?$AAb?$AA?3?$AA?5?$AAF?$AAa?$AAi?$AAl?$AAe?$AAd?$AA?5?$AAt?$AAo?$AA?5?$AAw@|
  00d50		 |$LN11@CMEM_cache|
  00d50	00000000	 DCD         |hCMEM|
  00d54		 |$LN12@CMEM_cache|
  00d54	00000000	 DCD         |??_C@_1GG@FKCDJMGM@?$AAC?$AAM?$AAE?$AAM?$AA?5?$AAD?$AAe?$AAb?$AAu?$AAg?$AA?3?$AA?5?$AAc?$AAa?$AAc?$AAh?$AAe?$AAW?$AAb?$AA?3?$AA?5?$AAe?$AAn?$AAt?$AAe?$AAr?$AAe?$AAd?$AA?5?$AAw?$AA?1?$AA?5@|
  00d58		 |$M37273|

			 ENDP  ; |CMEM_cacheWb|

	EXPORT	|??_C@_1KE@GLMPMHFH@?$AAC?$AAM?$AAE?$AAM?$AA?5?$AAD?$AAe?$AAb?$AAu?$AAg?$AA?3?$AA?5?$AAc?$AAa?$AAc?$AAh?$AAe?$AAW?$AAb?$AAI?$AAn?$AAv?$AA?3?$AA?5?$AAe?$AAx?$AAi?$AAt?$AAi?$AAn?$AAg?$AA?0@| [ DATA ] ; `string'
	EXPORT	|??_C@_1HM@PFJPPOEN@?$AAC?$AAM?$AAE?$AAM?$AA?5?$AAE?$AAr?$AAr?$AAo?$AAr?$AA?3?$AA?5?$AAc?$AAa?$AAc?$AAh?$AAe?$AAW?$AAb?$AAI?$AAn?$AAv?$AA?3?$AA?5?$AAF?$AAa?$AAi?$AAl?$AAe?$AAd?$AA?5?$AAt@| [ DATA ] ; `string'
	EXPORT	|??_C@_1GM@MECOEFMO@?$AAC?$AAM?$AAE?$AAM?$AA?5?$AAD?$AAe?$AAb?$AAu?$AAg?$AA?3?$AA?5?$AAc?$AAa?$AAc?$AAh?$AAe?$AAW?$AAb?$AAI?$AAn?$AAv?$AA?3?$AA?5?$AAe?$AAn?$AAt?$AAe?$AAr?$AAe?$AAd?$AA?5@| [ DATA ] ; `string'
	EXPORT	|CMEM_cacheWbInv|

  00088			 AREA	 |.pdata|, PDATA
|$T37290| DCD	|$LN7@CMEM_cache@2|
	DCD	0x40003904

  00000			 AREA	 |.rdata|, DATA, READONLY
|??_C@_1KE@GLMPMHFH@?$AAC?$AAM?$AAE?$AAM?$AA?5?$AAD?$AAe?$AAb?$AAu?$AAg?$AA?3?$AA?5?$AAc?$AAa?$AAc?$AAh?$AAe?$AAW?$AAb?$AAI?$AAn?$AAv?$AA?3?$AA?5?$AAe?$AAx?$AAi?$AAt?$AAi?$AAn?$AAg?$AA?0@| DCB "C"
	DCB	0x0, "M", 0x0, "E", 0x0, "M", 0x0, " ", 0x0, "D", 0x0, "e"
	DCB	0x0, "b", 0x0, "u", 0x0, "g", 0x0, ":", 0x0, " ", 0x0, "c"
	DCB	0x0, "a", 0x0, "c", 0x0, "h", 0x0, "e", 0x0, "W", 0x0, "b"
	DCB	0x0, "I", 0x0, "n", 0x0, "v", 0x0, ":", 0x0, " ", 0x0, "e"
	DCB	0x0, "x", 0x0, "i", 0x0, "t", 0x0, "i", 0x0, "n", 0x0, "g"
	DCB	0x0, ",", 0x0, " ", 0x0, "i", 0x0, "o", 0x0, "c", 0x0, "t"
	DCB	0x0, "l", 0x0, " ", 0x0, "C", 0x0, "M", 0x0, "E", 0x0, "M"
	DCB	0x0, "_", 0x0, "I", 0x0, "O", 0x0, "C", 0x0, "C", 0x0, "A"
	DCB	0x0, "C", 0x0, "H", 0x0, "E", 0x0, "W", 0x0, "B", 0x0, "I"
	DCB	0x0, "N", 0x0, "V", 0x0, " ", 0x0, "s", 0x0, "u", 0x0, "c"
	DCB	0x0, "c", 0x0, "e", 0x0, "e", 0x0, "d", 0x0, "e", 0x0, "d"
	DCB	0x0, ",", 0x0, " ", 0x0, "r", 0x0, "e", 0x0, "t", 0x0, "u"
	DCB	0x0, "r", 0x0, "n", 0x0, "i", 0x0, "n", 0x0, "g", 0x0, " "
	DCB	0x0, "0", 0x0, 0xa, 0x0, 0x0, 0x0	; `string'

  00000			 AREA	 |.rdata|, DATA, READONLY
|??_C@_1HM@PFJPPOEN@?$AAC?$AAM?$AAE?$AAM?$AA?5?$AAE?$AAr?$AAr?$AAo?$AAr?$AA?3?$AA?5?$AAc?$AAa?$AAc?$AAh?$AAe?$AAW?$AAb?$AAI?$AAn?$AAv?$AA?3?$AA?5?$AAF?$AAa?$AAi?$AAl?$AAe?$AAd?$AA?5?$AAt@| DCB "C"
	DCB	0x0, "M", 0x0, "E", 0x0, "M", 0x0, " ", 0x0, "E", 0x0, "r"
	DCB	0x0, "r", 0x0, "o", 0x0, "r", 0x0, ":", 0x0, " ", 0x0, "c"
	DCB	0x0, "a", 0x0, "c", 0x0, "h", 0x0, "e", 0x0, "W", 0x0, "b"
	DCB	0x0, "I", 0x0, "n", 0x0, "v", 0x0, ":", 0x0, " ", 0x0, "F"
	DCB	0x0, "a", 0x0, "i", 0x0, "l", 0x0, "e", 0x0, "d", 0x0, " "
	DCB	0x0, "t", 0x0, "o", 0x0, " ", 0x0, "w", 0x0, "r", 0x0, "i"
	DCB	0x0, "t", 0x0, "e", 0x0, "b", 0x0, "a", 0x0, "c", 0x0, "k"
	DCB	0x0, " ", 0x0, "&", 0x0, " ", 0x0, "i", 0x0, "n", 0x0, "v"
	DCB	0x0, "a", 0x0, "l", 0x0, "i", 0x0, "d", 0x0, "a", 0x0, "t"
	DCB	0x0, "e", 0x0, " ", 0x0, "%", 0x0, "#", 0x0, "x", 0x0, 0xa
	DCB	0x0, 0x0, 0x0				; `string'

  00000			 AREA	 |.rdata|, DATA, READONLY
|??_C@_1GM@MECOEFMO@?$AAC?$AAM?$AAE?$AAM?$AA?5?$AAD?$AAe?$AAb?$AAu?$AAg?$AA?3?$AA?5?$AAc?$AAa?$AAc?$AAh?$AAe?$AAW?$AAb?$AAI?$AAn?$AAv?$AA?3?$AA?5?$AAe?$AAn?$AAt?$AAe?$AAr?$AAe?$AAd?$AA?5@| DCB "C"
	DCB	0x0, "M", 0x0, "E", 0x0, "M", 0x0, " ", 0x0, "D", 0x0, "e"
	DCB	0x0, "b", 0x0, "u", 0x0, "g", 0x0, ":", 0x0, " ", 0x0, "c"
	DCB	0x0, "a", 0x0, "c", 0x0, "h", 0x0, "e", 0x0, "W", 0x0, "b"
	DCB	0x0, "I", 0x0, "n", 0x0, "v", 0x0, ":", 0x0, " ", 0x0, "e"
	DCB	0x0, "n", 0x0, "t", 0x0, "e", 0x0, "r", 0x0, "e", 0x0, "d"
	DCB	0x0, " ", 0x0, "w", 0x0, "/", 0x0, " ", 0x0, "a", 0x0, "d"
	DCB	0x0, "d", 0x0, "r", 0x0, " ", 0x0, "%", 0x0, "p", 0x0, ","
	DCB	0x0, " ", 0x0, "s", 0x0, "i", 0x0, "z", 0x0, "e", 0x0, " "
	DCB	0x0, "%", 0x0, "#", 0x0, "x", 0x0, 0xa, 0x0, 0x0, 0x0 ; `string'
; Function compile flags: /Odtp

  00d58			 AREA	 |.text|, CODE, ARM

  00d58		 |CMEM_cacheWbInv| PROC

; 424  : {

  00d58		 |$LN7@CMEM_cache@2|
  00d58	e1a0c00d	 mov         r12, sp
  00d5c	e92d0003	 stmdb       sp!, {r0, r1}
  00d60	e92d5000	 stmdb       sp!, {r12, lr}
  00d64	e24dd038	 sub         sp, sp, #0x38
  00d68		 |$M37287|

; 425  :     struct block_struct block;
; 426  :     DWORD dwBytesReturned;
; 427  : 
; 428  :     __D("cacheWbInv: entered w/ addr %p, size %#x\n", ptr, size);

  00d68	e59d2044	 ldr         r2, [sp, #0x44]
  00d6c	e59d1040	 ldr         r1, [sp, #0x40]
  00d70	e59f00c0	 ldr         r0, [pc, #0xC0]
  00d74	eb000000	 bl          NKDbgPrintfW

; 429  : 
; 430  :     if (!validate_init()) {

  00d78	eb000000	 bl          validate_init
  00d7c	e58d0030	 str         r0, [sp, #0x30]
  00d80	e59d3030	 ldr         r3, [sp, #0x30]
  00d84	e3530000	 cmp         r3, #0
  00d88	1a000002	 bne         |$LN2@CMEM_cache@2|

; 431  :         return -1;

  00d8c	e3e03000	 mvn         r3, #0
  00d90	e58d301c	 str         r3, [sp, #0x1C]
  00d94	ea000020	 b           |$LN3@CMEM_cache@2|
  00d98		 |$LN2@CMEM_cache@2|

; 432  :     }
; 433  : 
; 434  :     block.addr = (unsigned long)ptr;

  00d98	e59d3040	 ldr         r3, [sp, #0x40]
  00d9c	e58d3014	 str         r3, [sp, #0x14]

; 435  :     block.size = size;

  00da0	e59d3044	 ldr         r3, [sp, #0x44]
  00da4	e58d3018	 str         r3, [sp, #0x18]

; 436  :     if (!DeviceIoControl(hCMEM, CMEM_IOCCACHEWBINV, &block, sizeof(block),
; 437  :                 NULL, 0, &dwBytesReturned, NULL)) {

  00da8	e3a03000	 mov         r3, #0
  00dac	e58d300c	 str         r3, [sp, #0xC]
  00db0	e28d3010	 add         r3, sp, #0x10
  00db4	e58d3008	 str         r3, [sp, #8]
  00db8	e3a03000	 mov         r3, #0
  00dbc	e58d3004	 str         r3, [sp, #4]
  00dc0	e3a03000	 mov         r3, #0
  00dc4	e58d3000	 str         r3, [sp]
  00dc8	e3a03008	 mov         r3, #8
  00dcc	e28d2014	 add         r2, sp, #0x14
  00dd0	e3a01c03	 mov         r1, #3, 24
  00dd4	e3811007	 orr         r1, r1, #7
  00dd8	e59f0054	 ldr         r0, [pc, #0x54]
  00ddc	e5900000	 ldr         r0, [r0]
  00de0	eb000000	 bl          DeviceIoControl
  00de4	e58d0034	 str         r0, [sp, #0x34]
  00de8	e59d3034	 ldr         r3, [sp, #0x34]
  00dec	e3530000	 cmp         r3, #0
  00df0	1a000005	 bne         |$LN1@CMEM_cache@2|

; 438  :         __E("cacheWbInv: Failed to writeback & invalidate %#x\n",
; 439  :                 (unsigned int) ptr);

  00df4	e59d1040	 ldr         r1, [sp, #0x40]
  00df8	e59f0030	 ldr         r0, [pc, #0x30]
  00dfc	eb000000	 bl          NKDbgPrintfW

; 440  : 
; 441  :         return -1;

  00e00	e3e03000	 mvn         r3, #0
  00e04	e58d301c	 str         r3, [sp, #0x1C]
  00e08	ea000003	 b           |$LN3@CMEM_cache@2|
  00e0c		 |$LN1@CMEM_cache@2|

; 442  :     }
; 443  : 
; 444  :     __D("cacheWbInv: exiting, ioctl CMEM_IOCCACHEWBINV succeeded, returning 0\n");

  00e0c	e59f0018	 ldr         r0, [pc, #0x18]
  00e10	eb000000	 bl          NKDbgPrintfW

; 445  : 
; 446  :     return 0;

  00e14	e3a03000	 mov         r3, #0
  00e18	e58d301c	 str         r3, [sp, #0x1C]
  00e1c		 |$LN3@CMEM_cache@2|

; 447  : }

  00e1c	e59d001c	 ldr         r0, [sp, #0x1C]
  00e20	e28dd038	 add         sp, sp, #0x38
  00e24	e89d6000	 ldmia       sp, {sp, lr}
  00e28	e12fff1e	 bx          lr
  00e2c		 |$LN8@CMEM_cache@2|
  00e2c		 |$LN9@CMEM_cache@2|
  00e2c	00000000	 DCD         |??_C@_1KE@GLMPMHFH@?$AAC?$AAM?$AAE?$AAM?$AA?5?$AAD?$AAe?$AAb?$AAu?$AAg?$AA?3?$AA?5?$AAc?$AAa?$AAc?$AAh?$AAe?$AAW?$AAb?$AAI?$AAn?$AAv?$AA?3?$AA?5?$AAe?$AAx?$AAi?$AAt?$AAi?$AAn?$AAg?$AA?0@|
  00e30		 |$LN10@CMEM_cache@2|
  00e30	00000000	 DCD         |??_C@_1HM@PFJPPOEN@?$AAC?$AAM?$AAE?$AAM?$AA?5?$AAE?$AAr?$AAr?$AAo?$AAr?$AA?3?$AA?5?$AAc?$AAa?$AAc?$AAh?$AAe?$AAW?$AAb?$AAI?$AAn?$AAv?$AA?3?$AA?5?$AAF?$AAa?$AAi?$AAl?$AAe?$AAd?$AA?5?$AAt@|
  00e34		 |$LN11@CMEM_cache@2|
  00e34	00000000	 DCD         |hCMEM|
  00e38		 |$LN12@CMEM_cache@2|
  00e38	00000000	 DCD         |??_C@_1GM@MECOEFMO@?$AAC?$AAM?$AAE?$AAM?$AA?5?$AAD?$AAe?$AAb?$AAu?$AAg?$AA?3?$AA?5?$AAc?$AAa?$AAc?$AAh?$AAe?$AAW?$AAb?$AAI?$AAn?$AAv?$AA?3?$AA?5?$AAe?$AAn?$AAt?$AAe?$AAr?$AAe?$AAd?$AA?5@|
  00e3c		 |$M37288|

			 ENDP  ; |CMEM_cacheWbInv|

	EXPORT	|??_C@_1JM@GDFLOFEM@?$AAC?$AAM?$AAE?$AAM?$AA?5?$AAD?$AAe?$AAb?$AAu?$AAg?$AA?3?$AA?5?$AAc?$AAa?$AAc?$AAh?$AAe?$AAI?$AAn?$AAv?$AA?3?$AA?5?$AAe?$AAx?$AAi?$AAt?$AAi?$AAn?$AAg?$AA?0?$AA?5?$AAi@| [ DATA ] ; `string'
	EXPORT	|??_C@_1GA@FIBMONO@?$AAC?$AAM?$AAE?$AAM?$AA?5?$AAE?$AAr?$AAr?$AAo?$AAr?$AA?3?$AA?5?$AAc?$AAa?$AAc?$AAh?$AAe?$AAI?$AAn?$AAv?$AA?3?$AA?5?$AAF?$AAa?$AAi?$AAl?$AAe?$AAd?$AA?5?$AAt?$AAo?$AA?5@| [ DATA ] ; `string'
	EXPORT	|??_C@_1GI@GBODELAF@?$AAC?$AAM?$AAE?$AAM?$AA?5?$AAD?$AAe?$AAb?$AAu?$AAg?$AA?3?$AA?5?$AAc?$AAa?$AAc?$AAh?$AAe?$AAI?$AAn?$AAv?$AA?3?$AA?5?$AAe?$AAn?$AAt?$AAe?$AAr?$AAe?$AAd?$AA?5?$AAw?$AA?1@| [ DATA ] ; `string'
	EXPORT	|CMEM_cacheInv|

  00090			 AREA	 |.pdata|, PDATA
|$T37305| DCD	|$LN7@CMEM_cache@3|
	DCD	0x40003904

  00000			 AREA	 |.rdata|, DATA, READONLY
|??_C@_1JM@GDFLOFEM@?$AAC?$AAM?$AAE?$AAM?$AA?5?$AAD?$AAe?$AAb?$AAu?$AAg?$AA?3?$AA?5?$AAc?$AAa?$AAc?$AAh?$AAe?$AAI?$AAn?$AAv?$AA?3?$AA?5?$AAe?$AAx?$AAi?$AAt?$AAi?$AAn?$AAg?$AA?0?$AA?5?$AAi@| DCB "C"
	DCB	0x0, "M", 0x0, "E", 0x0, "M", 0x0, " ", 0x0, "D", 0x0, "e"
	DCB	0x0, "b", 0x0, "u", 0x0, "g", 0x0, ":", 0x0, " ", 0x0, "c"
	DCB	0x0, "a", 0x0, "c", 0x0, "h", 0x0, "e", 0x0, "I", 0x0, "n"
	DCB	0x0, "v", 0x0, ":", 0x0, " ", 0x0, "e", 0x0, "x", 0x0, "i"
	DCB	0x0, "t", 0x0, "i", 0x0, "n", 0x0, "g", 0x0, ",", 0x0, " "
	DCB	0x0, "i", 0x0, "o", 0x0, "c", 0x0, "t", 0x0, "l", 0x0, " "
	DCB	0x0, "C", 0x0, "M", 0x0, "E", 0x0, "M", 0x0, "_", 0x0, "I"
	DCB	0x0, "O", 0x0, "C", 0x0, "C", 0x0, "A", 0x0, "C", 0x0, "H"
	DCB	0x0, "E", 0x0, "I", 0x0, "N", 0x0, "V", 0x0, " ", 0x0, "s"
	DCB	0x0, "u", 0x0, "c", 0x0, "c", 0x0, "e", 0x0, "e", 0x0, "d"
	DCB	0x0, "e", 0x0, "d", 0x0, ",", 0x0, " ", 0x0, "r", 0x0, "e"
	DCB	0x0, "t", 0x0, "u", 0x0, "r", 0x0, "n", 0x0, "i", 0x0, "n"
	DCB	0x0, "g", 0x0, " ", 0x0, "0", 0x0, 0xa, 0x0, 0x0, 0x0 ; `string'

  00000			 AREA	 |.rdata|, DATA, READONLY
|??_C@_1GA@FIBMONO@?$AAC?$AAM?$AAE?$AAM?$AA?5?$AAE?$AAr?$AAr?$AAo?$AAr?$AA?3?$AA?5?$AAc?$AAa?$AAc?$AAh?$AAe?$AAI?$AAn?$AAv?$AA?3?$AA?5?$AAF?$AAa?$AAi?$AAl?$AAe?$AAd?$AA?5?$AAt?$AAo?$AA?5@| DCB "C"
	DCB	0x0, "M", 0x0, "E", 0x0, "M", 0x0, " ", 0x0, "E", 0x0, "r"
	DCB	0x0, "r", 0x0, "o", 0x0, "r", 0x0, ":", 0x0, " ", 0x0, "c"
	DCB	0x0, "a", 0x0, "c", 0x0, "h", 0x0, "e", 0x0, "I", 0x0, "n"
	DCB	0x0, "v", 0x0, ":", 0x0, " ", 0x0, "F", 0x0, "a", 0x0, "i"
	DCB	0x0, "l", 0x0, "e", 0x0, "d", 0x0, " ", 0x0, "t", 0x0, "o"
	DCB	0x0, " ", 0x0, "i", 0x0, "n", 0x0, "v", 0x0, "a", 0x0, "l"
	DCB	0x0, "i", 0x0, "d", 0x0, "a", 0x0, "t", 0x0, "e", 0x0, " "
	DCB	0x0, "%", 0x0, "#", 0x0, "x", 0x0, 0xa, 0x0, 0x0, 0x0 ; `string'

  00000			 AREA	 |.rdata|, DATA, READONLY
|??_C@_1GI@GBODELAF@?$AAC?$AAM?$AAE?$AAM?$AA?5?$AAD?$AAe?$AAb?$AAu?$AAg?$AA?3?$AA?5?$AAc?$AAa?$AAc?$AAh?$AAe?$AAI?$AAn?$AAv?$AA?3?$AA?5?$AAe?$AAn?$AAt?$AAe?$AAr?$AAe?$AAd?$AA?5?$AAw?$AA?1@| DCB "C"
	DCB	0x0, "M", 0x0, "E", 0x0, "M", 0x0, " ", 0x0, "D", 0x0, "e"
	DCB	0x0, "b", 0x0, "u", 0x0, "g", 0x0, ":", 0x0, " ", 0x0, "c"
	DCB	0x0, "a", 0x0, "c", 0x0, "h", 0x0, "e", 0x0, "I", 0x0, "n"
	DCB	0x0, "v", 0x0, ":", 0x0, " ", 0x0, "e", 0x0, "n", 0x0, "t"
	DCB	0x0, "e", 0x0, "r", 0x0, "e", 0x0, "d", 0x0, " ", 0x0, "w"
	DCB	0x0, "/", 0x0, " ", 0x0, "a", 0x0, "d", 0x0, "d", 0x0, "r"
	DCB	0x0, " ", 0x0, "%", 0x0, "p", 0x0, ",", 0x0, " ", 0x0, "s"
	DCB	0x0, "i", 0x0, "z", 0x0, "e", 0x0, " ", 0x0, "%", 0x0, "#"
	DCB	0x0, "x", 0x0, 0xa, 0x0, 0x0, 0x0	; `string'
; Function compile flags: /Odtp

  00e3c			 AREA	 |.text|, CODE, ARM

  00e3c		 |CMEM_cacheInv| PROC

; 450  : {

  00e3c		 |$LN7@CMEM_cache@3|
  00e3c	e1a0c00d	 mov         r12, sp
  00e40	e92d0003	 stmdb       sp!, {r0, r1}
  00e44	e92d5000	 stmdb       sp!, {r12, lr}
  00e48	e24dd038	 sub         sp, sp, #0x38
  00e4c		 |$M37302|

; 451  :     struct block_struct block;
; 452  :     DWORD  dwBytesReturned;
; 453  : 
; 454  :     __D("cacheInv: entered w/ addr %p, size %#x\n", ptr, size);

  00e4c	e59d2044	 ldr         r2, [sp, #0x44]
  00e50	e59d1040	 ldr         r1, [sp, #0x40]
  00e54	e59f00c0	 ldr         r0, [pc, #0xC0]
  00e58	eb000000	 bl          NKDbgPrintfW

; 455  : 
; 456  :     if (!validate_init()) {

  00e5c	eb000000	 bl          validate_init
  00e60	e58d0030	 str         r0, [sp, #0x30]
  00e64	e59d3030	 ldr         r3, [sp, #0x30]
  00e68	e3530000	 cmp         r3, #0
  00e6c	1a000002	 bne         |$LN2@CMEM_cache@3|

; 457  :         return -1;

  00e70	e3e03000	 mvn         r3, #0
  00e74	e58d301c	 str         r3, [sp, #0x1C]
  00e78	ea000020	 b           |$LN3@CMEM_cache@3|
  00e7c		 |$LN2@CMEM_cache@3|

; 458  :     }
; 459  : 
; 460  :     block.addr = (unsigned long)ptr;

  00e7c	e59d3040	 ldr         r3, [sp, #0x40]
  00e80	e58d3014	 str         r3, [sp, #0x14]

; 461  :     block.size = size;

  00e84	e59d3044	 ldr         r3, [sp, #0x44]
  00e88	e58d3018	 str         r3, [sp, #0x18]

; 462  :     if (!DeviceIoControl(hCMEM, CMEM_IOCCACHEINV, &block, sizeof(block), NULL,
; 463  :                 0, &dwBytesReturned, NULL)) {

  00e8c	e3a03000	 mov         r3, #0
  00e90	e58d300c	 str         r3, [sp, #0xC]
  00e94	e28d3010	 add         r3, sp, #0x10
  00e98	e58d3008	 str         r3, [sp, #8]
  00e9c	e3a03000	 mov         r3, #0
  00ea0	e58d3004	 str         r3, [sp, #4]
  00ea4	e3a03000	 mov         r3, #0
  00ea8	e58d3000	 str         r3, [sp]
  00eac	e3a03008	 mov         r3, #8
  00eb0	e28d2014	 add         r2, sp, #0x14
  00eb4	e3a01c02	 mov         r1, #2, 24
  00eb8	e3811007	 orr         r1, r1, #7
  00ebc	e59f0054	 ldr         r0, [pc, #0x54]
  00ec0	e5900000	 ldr         r0, [r0]
  00ec4	eb000000	 bl          DeviceIoControl
  00ec8	e58d0034	 str         r0, [sp, #0x34]
  00ecc	e59d3034	 ldr         r3, [sp, #0x34]
  00ed0	e3530000	 cmp         r3, #0
  00ed4	1a000005	 bne         |$LN1@CMEM_cache@3|

; 464  :         __E("cacheInv: Failed to invalidate %#x\n", (unsigned int) ptr);

  00ed8	e59d1040	 ldr         r1, [sp, #0x40]
  00edc	e59f0030	 ldr         r0, [pc, #0x30]
  00ee0	eb000000	 bl          NKDbgPrintfW

; 465  : 
; 466  :         return -1;

  00ee4	e3e03000	 mvn         r3, #0
  00ee8	e58d301c	 str         r3, [sp, #0x1C]
  00eec	ea000003	 b           |$LN3@CMEM_cache@3|
  00ef0		 |$LN1@CMEM_cache@3|

; 467  :     }
; 468  : 
; 469  :     __D("cacheInv: exiting, ioctl CMEM_IOCCACHEINV succeeded, returning 0\n");

  00ef0	e59f0018	 ldr         r0, [pc, #0x18]
  00ef4	eb000000	 bl          NKDbgPrintfW

; 470  : 
; 471  :     return 0;

  00ef8	e3a03000	 mov         r3, #0
  00efc	e58d301c	 str         r3, [sp, #0x1C]
  00f00		 |$LN3@CMEM_cache@3|

; 472  : }

  00f00	e59d001c	 ldr         r0, [sp, #0x1C]
  00f04	e28dd038	 add         sp, sp, #0x38
  00f08	e89d6000	 ldmia       sp, {sp, lr}
  00f0c	e12fff1e	 bx          lr
  00f10		 |$LN8@CMEM_cache@3|
  00f10		 |$LN9@CMEM_cache@3|
  00f10	00000000	 DCD         |??_C@_1JM@GDFLOFEM@?$AAC?$AAM?$AAE?$AAM?$AA?5?$AAD?$AAe?$AAb?$AAu?$AAg?$AA?3?$AA?5?$AAc?$AAa?$AAc?$AAh?$AAe?$AAI?$AAn?$AAv?$AA?3?$AA?5?$AAe?$AAx?$AAi?$AAt?$AAi?$AAn?$AAg?$AA?0?$AA?5?$AAi@|
  00f14		 |$LN10@CMEM_cache@3|
  00f14	00000000	 DCD         |??_C@_1GA@FIBMONO@?$AAC?$AAM?$AAE?$AAM?$AA?5?$AAE?$AAr?$AAr?$AAo?$AAr?$AA?3?$AA?5?$AAc?$AAa?$AAc?$AAh?$AAe?$AAI?$AAn?$AAv?$AA?3?$AA?5?$AAF?$AAa?$AAi?$AAl?$AAe?$AAd?$AA?5?$AAt?$AAo?$AA?5@|
  00f18		 |$LN11@CMEM_cache@3|
  00f18	00000000	 DCD         |hCMEM|
  00f1c		 |$LN12@CMEM_cache@3|
  00f1c	00000000	 DCD         |??_C@_1GI@GBODELAF@?$AAC?$AAM?$AAE?$AAM?$AA?5?$AAD?$AAe?$AAb?$AAu?$AAg?$AA?3?$AA?5?$AAc?$AAa?$AAc?$AAh?$AAe?$AAI?$AAn?$AAv?$AA?3?$AA?5?$AAe?$AAn?$AAt?$AAe?$AAr?$AAe?$AAd?$AA?5?$AAw?$AA?1@|
  00f20		 |$M37303|

			 ENDP  ; |CMEM_cacheInv|

	EXPORT	|??_C@_1JA@CNIJNJKB@?$AAC?$AAM?$AAE?$AAM?$AA?5?$AAD?$AAe?$AAb?$AAu?$AAg?$AA?3?$AA?5?$AAg?$AAe?$AAt?$AAV?$AAe?$AAr?$AAs?$AAi?$AAo?$AAn?$AA?3?$AA?5?$AAe?$AAx?$AAi?$AAt?$AAi?$AAn?$AAg?$AA?0@| [ DATA ] ; `string'
	EXPORT	|??_C@_1IA@CHBIPLAM@?$AAC?$AAM?$AAE?$AAM?$AA?5?$AAE?$AAr?$AAr?$AAo?$AAr?$AA?3?$AA?5?$AAg?$AAe?$AAt?$AAV?$AAe?$AAr?$AAs?$AAi?$AAo?$AAn?$AA?3?$AA?5?$AAF?$AAa?$AAi?$AAl?$AAe?$AAd?$AA?5?$AAt@| [ DATA ] ; `string'
	EXPORT	|??_C@_1EC@GDDMOEBJ@?$AAC?$AAM?$AAE?$AAM?$AA?5?$AAD?$AAe?$AAb?$AAu?$AAg?$AA?3?$AA?5?$AAg?$AAe?$AAt?$AAV?$AAe?$AAr?$AAs?$AAi?$AAo?$AAn?$AA?3?$AA?5?$AAe?$AAn?$AAt?$AAe?$AAr?$AAe?$AAd?$AA?6@| [ DATA ] ; `string'

  00098			 AREA	 |.pdata|, PDATA
|$T37320| DCD	|$LN7@CMEM_getVe|
	DCD	0x40003002

  00000			 AREA	 |.rdata|, DATA, READONLY
|??_C@_1JA@CNIJNJKB@?$AAC?$AAM?$AAE?$AAM?$AA?5?$AAD?$AAe?$AAb?$AAu?$AAg?$AA?3?$AA?5?$AAg?$AAe?$AAt?$AAV?$AAe?$AAr?$AAs?$AAi?$AAo?$AAn?$AA?3?$AA?5?$AAe?$AAx?$AAi?$AAt?$AAi?$AAn?$AAg?$AA?0@| DCB "C"
	DCB	0x0, "M", 0x0, "E", 0x0, "M", 0x0, " ", 0x0, "D", 0x0, "e"
	DCB	0x0, "b", 0x0, "u", 0x0, "g", 0x0, ":", 0x0, " ", 0x0, "g"
	DCB	0x0, "e", 0x0, "t", 0x0, "V", 0x0, "e", 0x0, "r", 0x0, "s"
	DCB	0x0, "i", 0x0, "o", 0x0, "n", 0x0, ":", 0x0, " ", 0x0, "e"
	DCB	0x0, "x", 0x0, "i", 0x0, "t", 0x0, "i", 0x0, "n", 0x0, "g"
	DCB	0x0, ",", 0x0, " ", 0x0, "i", 0x0, "o", 0x0, "c", 0x0, "t"
	DCB	0x0, "l", 0x0, " ", 0x0, "C", 0x0, "M", 0x0, "E", 0x0, "M"
	DCB	0x0, "_", 0x0, "I", 0x0, "O", 0x0, "C", 0x0, "G", 0x0, "E"
	DCB	0x0, "T", 0x0, "V", 0x0, "E", 0x0, "R", 0x0, "S", 0x0, "I"
	DCB	0x0, "O", 0x0, "N", 0x0, " ", 0x0, "r", 0x0, "e", 0x0, "t"
	DCB	0x0, "u", 0x0, "r", 0x0, "n", 0x0, "e", 0x0, "d", 0x0, " "
	DCB	0x0, "%", 0x0, "#", 0x0, "x", 0x0, 0xa, 0x0, 0x0, 0x0 ; `string'

  00000			 AREA	 |.rdata|, DATA, READONLY
|??_C@_1IA@CHBIPLAM@?$AAC?$AAM?$AAE?$AAM?$AA?5?$AAE?$AAr?$AAr?$AAo?$AAr?$AA?3?$AA?5?$AAg?$AAe?$AAt?$AAV?$AAe?$AAr?$AAs?$AAi?$AAo?$AAn?$AA?3?$AA?5?$AAF?$AAa?$AAi?$AAl?$AAe?$AAd?$AA?5?$AAt@| DCB "C"
	DCB	0x0, "M", 0x0, "E", 0x0, "M", 0x0, " ", 0x0, "E", 0x0, "r"
	DCB	0x0, "r", 0x0, "o", 0x0, "r", 0x0, ":", 0x0, " ", 0x0, "g"
	DCB	0x0, "e", 0x0, "t", 0x0, "V", 0x0, "e", 0x0, "r", 0x0, "s"
	DCB	0x0, "i", 0x0, "o", 0x0, "n", 0x0, ":", 0x0, " ", 0x0, "F"
	DCB	0x0, "a", 0x0, "i", 0x0, "l", 0x0, "e", 0x0, "d", 0x0, " "
	DCB	0x0, "t", 0x0, "o", 0x0, " ", 0x0, "r", 0x0, "e", 0x0, "t"
	DCB	0x0, "r", 0x0, "i", 0x0, "e", 0x0, "v", 0x0, "e", 0x0, " "
	DCB	0x0, "v", 0x0, "e", 0x0, "r", 0x0, "s", 0x0, "i", 0x0, "o"
	DCB	0x0, "n", 0x0, " ", 0x0, "f", 0x0, "r", 0x0, "o", 0x0, "m"
	DCB	0x0, " ", 0x0, "d", 0x0, "r", 0x0, "i", 0x0, "v", 0x0, "e"
	DCB	0x0, "r", 0x0, 0xa, 0x0, 0x0, 0x0	; `string'

  00000			 AREA	 |.rdata|, DATA, READONLY
|??_C@_1EC@GDDMOEBJ@?$AAC?$AAM?$AAE?$AAM?$AA?5?$AAD?$AAe?$AAb?$AAu?$AAg?$AA?3?$AA?5?$AAg?$AAe?$AAt?$AAV?$AAe?$AAr?$AAs?$AAi?$AAo?$AAn?$AA?3?$AA?5?$AAe?$AAn?$AAt?$AAe?$AAr?$AAe?$AAd?$AA?6@| DCB "C"
	DCB	0x0, "M", 0x0, "E", 0x0, "M", 0x0, " ", 0x0, "D", 0x0, "e"
	DCB	0x0, "b", 0x0, "u", 0x0, "g", 0x0, ":", 0x0, " ", 0x0, "g"
	DCB	0x0, "e", 0x0, "t", 0x0, "V", 0x0, "e", 0x0, "r", 0x0, "s"
	DCB	0x0, "i", 0x0, "o", 0x0, "n", 0x0, ":", 0x0, " ", 0x0, "e"
	DCB	0x0, "n", 0x0, "t", 0x0, "e", 0x0, "r", 0x0, "e", 0x0, "d"
	DCB	0x0, 0xa, 0x0, 0x0, 0x0			; `string'
; Function compile flags: /Odtp

  00f20			 AREA	 |.text|, CODE, ARM

  00f20		 |CMEM_getVersion| PROC

; 475  : {

  00f20		 |$LN7@CMEM_getVe|
  00f20	e52de004	 str         lr, [sp, #-4]!
  00f24	e24dd034	 sub         sp, sp, #0x34
  00f28		 |$M37317|

; 476  :     unsigned int version;
; 477  :     DWORD dwBytesReturned;
; 478  : 
; 479  :     __D("getVersion: entered\n");

  00f28	e59f00ac	 ldr         r0, [pc, #0xAC]
  00f2c	eb000000	 bl          NKDbgPrintfW

; 480  : 
; 481  :     if (!validate_init()) {

  00f30	eb000000	 bl          validate_init
  00f34	e58d002c	 str         r0, [sp, #0x2C]
  00f38	e59d302c	 ldr         r3, [sp, #0x2C]
  00f3c	e3530000	 cmp         r3, #0
  00f40	1a000002	 bne         |$LN2@CMEM_getVe|

; 482  :         return -1;

  00f44	e3e03000	 mvn         r3, #0
  00f48	e58d3018	 str         r3, [sp, #0x18]
  00f4c	ea00001b	 b           |$LN3@CMEM_getVe|
  00f50		 |$LN2@CMEM_getVe|

; 483  :     }
; 484  : 
; 485  :     if (!DeviceIoControl(hCMEM, CMEM_IOCGETVERSION, &version, sizeof(version),
; 486  :                 NULL, 0, &dwBytesReturned, NULL)) {

  00f50	e3a03000	 mov         r3, #0
  00f54	e58d300c	 str         r3, [sp, #0xC]
  00f58	e28d3010	 add         r3, sp, #0x10
  00f5c	e58d3008	 str         r3, [sp, #8]
  00f60	e3a03000	 mov         r3, #0
  00f64	e58d3004	 str         r3, [sp, #4]
  00f68	e3a03000	 mov         r3, #0
  00f6c	e58d3000	 str         r3, [sp]
  00f70	e3a03004	 mov         r3, #4
  00f74	e28d2014	 add         r2, sp, #0x14
  00f78	e3a01008	 mov         r1, #8
  00f7c	e59f0054	 ldr         r0, [pc, #0x54]
  00f80	e5900000	 ldr         r0, [r0]
  00f84	eb000000	 bl          DeviceIoControl
  00f88	e58d0030	 str         r0, [sp, #0x30]
  00f8c	e59d3030	 ldr         r3, [sp, #0x30]
  00f90	e3530000	 cmp         r3, #0
  00f94	1a000004	 bne         |$LN1@CMEM_getVe|

; 487  :         __E("getVersion: Failed to retrieve version from driver\n");

  00f98	e59f0034	 ldr         r0, [pc, #0x34]
  00f9c	eb000000	 bl          NKDbgPrintfW

; 488  : 
; 489  :         return -1;

  00fa0	e3e03000	 mvn         r3, #0
  00fa4	e58d3018	 str         r3, [sp, #0x18]
  00fa8	ea000004	 b           |$LN3@CMEM_getVe|
  00fac		 |$LN1@CMEM_getVe|

; 490  :     }
; 491  : 
; 492  :     __D("getVersion: exiting, ioctl CMEM_IOCGETVERSION returned %#x\n",
; 493  :             version);

  00fac	e59d1014	 ldr         r1, [sp, #0x14]
  00fb0	e59f0018	 ldr         r0, [pc, #0x18]
  00fb4	eb000000	 bl          NKDbgPrintfW

; 494  : 
; 495  :     return version;

  00fb8	e59d3014	 ldr         r3, [sp, #0x14]
  00fbc	e58d3018	 str         r3, [sp, #0x18]
  00fc0		 |$LN3@CMEM_getVe|

; 496  : }

  00fc0	e59d0018	 ldr         r0, [sp, #0x18]
  00fc4	e28dd034	 add         sp, sp, #0x34
  00fc8	e49de004	 ldr         lr, [sp], #4
  00fcc	e12fff1e	 bx          lr
  00fd0		 |$LN8@CMEM_getVe|
  00fd0		 |$LN9@CMEM_getVe|
  00fd0	00000000	 DCD         |??_C@_1JA@CNIJNJKB@?$AAC?$AAM?$AAE?$AAM?$AA?5?$AAD?$AAe?$AAb?$AAu?$AAg?$AA?3?$AA?5?$AAg?$AAe?$AAt?$AAV?$AAe?$AAr?$AAs?$AAi?$AAo?$AAn?$AA?3?$AA?5?$AAe?$AAx?$AAi?$AAt?$AAi?$AAn?$AAg?$AA?0@|
  00fd4		 |$LN10@CMEM_getVe|
  00fd4	00000000	 DCD         |??_C@_1IA@CHBIPLAM@?$AAC?$AAM?$AAE?$AAM?$AA?5?$AAE?$AAr?$AAr?$AAo?$AAr?$AA?3?$AA?5?$AAg?$AAe?$AAt?$AAV?$AAe?$AAr?$AAs?$AAi?$AAo?$AAn?$AA?3?$AA?5?$AAF?$AAa?$AAi?$AAl?$AAe?$AAd?$AA?5?$AAt@|
  00fd8		 |$LN11@CMEM_getVe|
  00fd8	00000000	 DCD         |hCMEM|
  00fdc		 |$LN12@CMEM_getVe|
  00fdc	00000000	 DCD         |??_C@_1EC@GDDMOEBJ@?$AAC?$AAM?$AAE?$AAM?$AA?5?$AAD?$AAe?$AAb?$AAu?$AAg?$AA?3?$AA?5?$AAg?$AAe?$AAt?$AAV?$AAe?$AAr?$AAs?$AAi?$AAo?$AAn?$AA?3?$AA?5?$AAe?$AAn?$AAt?$AAe?$AAr?$AAe?$AAd?$AA?6@|
  00fe0		 |$M37318|

			 ENDP  ; |CMEM_getVersion|

	EXPORT	|CMEM_getBlock|

  000a0			 AREA	 |.pdata|, PDATA
|$T37331| DCD	|$LN5@CMEM_getBl|
	DCD	0x40000f04
; Function compile flags: /Odtp

  00fe0			 AREA	 |.text|, CODE, ARM

  00fe0		 |CMEM_getBlock| PROC

; 528  : {

  00fe0		 |$LN5@CMEM_getBl|
  00fe0	e1a0c00d	 mov         r12, sp
  00fe4	e92d0003	 stmdb       sp!, {r0, r1}
  00fe8	e92d5000	 stmdb       sp!, {r12, lr}
  00fec	e24dd008	 sub         sp, sp, #8
  00ff0		 |$M37328|

; 529  :     return getBlock(0, pphys_base, psize);

  00ff0	e59d2014	 ldr         r2, [sp, #0x14]
  00ff4	e59d1010	 ldr         r1, [sp, #0x10]
  00ff8	e3a00000	 mov         r0, #0
  00ffc	eb000000	 bl          getBlock
  01000	e58d0004	 str         r0, [sp, #4]
  01004	e59d3004	 ldr         r3, [sp, #4]
  01008	e58d3000	 str         r3, [sp]

; 530  : }

  0100c	e59d0000	 ldr         r0, [sp]
  01010	e28dd008	 add         sp, sp, #8
  01014	e89d6000	 ldmia       sp, {sp, lr}
  01018	e12fff1e	 bx          lr
  0101c		 |$M37329|

			 ENDP  ; |CMEM_getBlock|

	EXPORT	|??_C@_1HA@CAPACFLF@?$AAC?$AAM?$AAE?$AAM?$AA?5?$AAD?$AAe?$AAb?$AAu?$AAg?$AA?3?$AA?5?$AA?5?$AA?5?$AAr?$AAe?$AAt?$AAu?$AAr?$AAn?$AAi?$AAn?$AAg?$AA?5?$AA?$CK?$AAp?$AAp?$AAh?$AAy?$AAs?$AA_?$AAb@| [ DATA ] ; `string'
	EXPORT	|??_C@_1II@OBAGDEJF@?$AAC?$AAM?$AAE?$AAM?$AA?5?$AAD?$AAe?$AAb?$AAu?$AAg?$AA?3?$AA?5?$AAg?$AAe?$AAt?$AAV?$AAe?$AAr?$AAs?$AAi?$AAo?$AAn?$AA?3?$AA?5?$AAe?$AAx?$AAi?$AAt?$AAi?$AAn?$AAg?$AA?0@| [ DATA ] ; `string'
	EXPORT	|??_C@_1EI@EKMONBBA@?$AAC?$AAM?$AAE?$AAM?$AA?5?$AAE?$AAr?$AAr?$AAo?$AAr?$AA?3?$AA?5?$AA?5?$AA?5?$AAb?$AAl?$AAo?$AAc?$AAk?$AA?5?$AA?$CF?$AAd?$AA?5?$AAf?$AAr?$AAo?$AAm?$AA?5?$AAd?$AAr?$AAi?$AAv@| [ DATA ] ; `string'
	EXPORT	|??_C@_1IE@PAKGNLMK@?$AAC?$AAM?$AAE?$AAM?$AA?5?$AAE?$AAr?$AAr?$AAo?$AAr?$AA?3?$AA?5?$AAg?$AAe?$AAt?$AAB?$AAl?$AAo?$AAc?$AAk?$AA?3?$AA?5?$AAF?$AAa?$AAi?$AAl?$AAe?$AAd?$AA?5?$AAt?$AAo?$AA?5@| [ DATA ] ; `string'
	EXPORT	|??_C@_1DO@HNDIFKFF@?$AAC?$AAM?$AAE?$AAM?$AA?5?$AAD?$AAe?$AAb?$AAu?$AAg?$AA?3?$AA?5?$AAg?$AAe?$AAt?$AAB?$AAl?$AAo?$AAc?$AAk?$AA?3?$AA?5?$AAe?$AAn?$AAt?$AAe?$AAr?$AAe?$AAd?$AA?6?$AA?$AA@| [ DATA ] ; `string'

  000a8			 AREA	 |.pdata|, PDATA
|$T37341| DCD	|$LN7@getBlock|
	DCD	0x40004404

  00000			 AREA	 |.rdata|, DATA, READONLY
|??_C@_1HA@CAPACFLF@?$AAC?$AAM?$AAE?$AAM?$AA?5?$AAD?$AAe?$AAb?$AAu?$AAg?$AA?3?$AA?5?$AA?5?$AA?5?$AAr?$AAe?$AAt?$AAu?$AAr?$AAn?$AAi?$AAn?$AAg?$AA?5?$AA?$CK?$AAp?$AAp?$AAh?$AAy?$AAs?$AA_?$AAb@| DCB "C"
	DCB	0x0, "M", 0x0, "E", 0x0, "M", 0x0, " ", 0x0, "D", 0x0, "e"
	DCB	0x0, "b", 0x0, "u", 0x0, "g", 0x0, ":", 0x0, " ", 0x0, " "
	DCB	0x0, " ", 0x0, "r", 0x0, "e", 0x0, "t", 0x0, "u", 0x0, "r"
	DCB	0x0, "n", 0x0, "i", 0x0, "n", 0x0, "g", 0x0, " ", 0x0, "*"
	DCB	0x0, "p", 0x0, "p", 0x0, "h", 0x0, "y", 0x0, "s", 0x0, "_"
	DCB	0x0, "b", 0x0, "a", 0x0, "s", 0x0, "e", 0x0, "=", 0x0, "0"
	DCB	0x0, "x", 0x0, "%", 0x0, "l", 0x0, "x", 0x0, ",", 0x0, " "
	DCB	0x0, "*", 0x0, "p", 0x0, "s", 0x0, "i", 0x0, "z", 0x0, "e"
	DCB	0x0, "=", 0x0, "0", 0x0, "x", 0x0, "%", 0x0, "x", 0x0, 0xa
	DCB	0x0, 0x0, 0x0				; `string'

  00000			 AREA	 |.rdata|, DATA, READONLY
|??_C@_1II@OBAGDEJF@?$AAC?$AAM?$AAE?$AAM?$AA?5?$AAD?$AAe?$AAb?$AAu?$AAg?$AA?3?$AA?5?$AAg?$AAe?$AAt?$AAV?$AAe?$AAr?$AAs?$AAi?$AAo?$AAn?$AA?3?$AA?5?$AAe?$AAx?$AAi?$AAt?$AAi?$AAn?$AAg?$AA?0@| DCB "C"
	DCB	0x0, "M", 0x0, "E", 0x0, "M", 0x0, " ", 0x0, "D", 0x0, "e"
	DCB	0x0, "b", 0x0, "u", 0x0, "g", 0x0, ":", 0x0, " ", 0x0, "g"
	DCB	0x0, "e", 0x0, "t", 0x0, "V", 0x0, "e", 0x0, "r", 0x0, "s"
	DCB	0x0, "i", 0x0, "o", 0x0, "n", 0x0, ":", 0x0, " ", 0x0, "e"
	DCB	0x0, "x", 0x0, "i", 0x0, "t", 0x0, "i", 0x0, "n", 0x0, "g"
	DCB	0x0, ",", 0x0, " ", 0x0, "i", 0x0, "o", 0x0, "c", 0x0, "t"
	DCB	0x0, "l", 0x0, " ", 0x0, "C", 0x0, "M", 0x0, "E", 0x0, "M"
	DCB	0x0, "_", 0x0, "I", 0x0, "O", 0x0, "C", 0x0, "G", 0x0, "E"
	DCB	0x0, "T", 0x0, "B", 0x0, "L", 0x0, "O", 0x0, "C", 0x0, "K"
	DCB	0x0, " ", 0x0, "s", 0x0, "u", 0x0, "c", 0x0, "c", 0x0, "e"
	DCB	0x0, "e", 0x0, "d", 0x0, "e", 0x0, "d", 0x0, ",", 0x0, 0xa
	DCB	0x0, 0x0, 0x0				; `string'

  00000			 AREA	 |.rdata|, DATA, READONLY
|??_C@_1EI@EKMONBBA@?$AAC?$AAM?$AAE?$AAM?$AA?5?$AAE?$AAr?$AAr?$AAo?$AAr?$AA?3?$AA?5?$AA?5?$AA?5?$AAb?$AAl?$AAo?$AAc?$AAk?$AA?5?$AA?$CF?$AAd?$AA?5?$AAf?$AAr?$AAo?$AAm?$AA?5?$AAd?$AAr?$AAi?$AAv@| DCB "C"
	DCB	0x0, "M", 0x0, "E", 0x0, "M", 0x0, " ", 0x0, "E", 0x0, "r"
	DCB	0x0, "r", 0x0, "o", 0x0, "r", 0x0, ":", 0x0, " ", 0x0, " "
	DCB	0x0, " ", 0x0, "b", 0x0, "l", 0x0, "o", 0x0, "c", 0x0, "k"
	DCB	0x0, " ", 0x0, "%", 0x0, "d", 0x0, " ", 0x0, "f", 0x0, "r"
	DCB	0x0, "o", 0x0, "m", 0x0, " ", 0x0, "d", 0x0, "r", 0x0, "i"
	DCB	0x0, "v", 0x0, "e", 0x0, "r", 0x0, 0xa, 0x0, 0x0, 0x0 ; `string'

  00000			 AREA	 |.rdata|, DATA, READONLY
|??_C@_1IE@PAKGNLMK@?$AAC?$AAM?$AAE?$AAM?$AA?5?$AAE?$AAr?$AAr?$AAo?$AAr?$AA?3?$AA?5?$AAg?$AAe?$AAt?$AAB?$AAl?$AAo?$AAc?$AAk?$AA?3?$AA?5?$AAF?$AAa?$AAi?$AAl?$AAe?$AAd?$AA?5?$AAt?$AAo?$AA?5@| DCB "C"
	DCB	0x0, "M", 0x0, "E", 0x0, "M", 0x0, " ", 0x0, "E", 0x0, "r"
	DCB	0x0, "r", 0x0, "o", 0x0, "r", 0x0, ":", 0x0, " ", 0x0, "g"
	DCB	0x0, "e", 0x0, "t", 0x0, "B", 0x0, "l", 0x0, "o", 0x0, "c"
	DCB	0x0, "k", 0x0, ":", 0x0, " ", 0x0, "F", 0x0, "a", 0x0, "i"
	DCB	0x0, "l", 0x0, "e", 0x0, "d", 0x0, " ", 0x0, "t", 0x0, "o"
	DCB	0x0, " ", 0x0, "r", 0x0, "e", 0x0, "t", 0x0, "r", 0x0, "i"
	DCB	0x0, "e", 0x0, "v", 0x0, "e", 0x0, " ", 0x0, "m", 0x0, "e"
	DCB	0x0, "m", 0x0, "o", 0x0, "r", 0x0, "y", 0x0, " ", 0x0, "b"
	DCB	0x0, "l", 0x0, "o", 0x0, "c", 0x0, "k", 0x0, " ", 0x0, "b"
	DCB	0x0, "o", 0x0, "u", 0x0, "n", 0x0, "d", 0x0, "s", 0x0, " "
	DCB	0x0, "f", 0x0, "o", 0x0, "r", 0x0, 0xa, 0x0, 0x0, 0x0 ; `string'

  00000			 AREA	 |.rdata|, DATA, READONLY
|??_C@_1DO@HNDIFKFF@?$AAC?$AAM?$AAE?$AAM?$AA?5?$AAD?$AAe?$AAb?$AAu?$AAg?$AA?3?$AA?5?$AAg?$AAe?$AAt?$AAB?$AAl?$AAo?$AAc?$AAk?$AA?3?$AA?5?$AAe?$AAn?$AAt?$AAe?$AAr?$AAe?$AAd?$AA?6?$AA?$AA@| DCB "C"
	DCB	0x0, "M", 0x0, "E", 0x0, "M", 0x0, " ", 0x0, "D", 0x0, "e"
	DCB	0x0, "b", 0x0, "u", 0x0, "g", 0x0, ":", 0x0, " ", 0x0, "g"
	DCB	0x0, "e", 0x0, "t", 0x0, "B", 0x0, "l", 0x0, "o", 0x0, "c"
	DCB	0x0, "k", 0x0, ":", 0x0, " ", 0x0, "e", 0x0, "n", 0x0, "t"
	DCB	0x0, "e", 0x0, "r", 0x0, "e", 0x0, "d", 0x0, 0xa, 0x0, 0x0
	DCB	0x0					; `string'
; Function compile flags: /Odtp

  0101c			 AREA	 |.text|, CODE, ARM

  0101c		 |getBlock| PROC

; 499  : {

  0101c		 |$LN7@getBlock|
  0101c	e1a0c00d	 mov         r12, sp
  01020	e92d0007	 stmdb       sp!, {r0 - r2}
  01024	e92d5000	 stmdb       sp!, {r12, lr}
  01028	e24dd040	 sub         sp, sp, #0x40
  0102c		 |$M37338|

; 500  :     union CMEM_AllocUnion block;
; 501  :     DWORD dwBytesReturned;
; 502  : 
; 503  :     __D("getBlock: entered\n");

  0102c	e59f00f4	 ldr         r0, [pc, #0xF4]
  01030	eb000000	 bl          NKDbgPrintfW

; 504  : 
; 505  :     if (!validate_init()) {

  01034	eb000000	 bl          validate_init
  01038	e58d0038	 str         r0, [sp, #0x38]
  0103c	e59d3038	 ldr         r3, [sp, #0x38]
  01040	e3530000	 cmp         r3, #0
  01044	1a000002	 bne         |$LN2@getBlock|

; 506  :         return -1;

  01048	e3e03000	 mvn         r3, #0
  0104c	e58d3024	 str         r3, [sp, #0x24]
  01050	ea00002b	 b           |$LN3@getBlock|
  01054		 |$LN2@getBlock|

; 507  :     }
; 508  : 
; 509  :     block.blockid = blockid;

  01054	e59d3048	 ldr         r3, [sp, #0x48]
  01058	e58d3014	 str         r3, [sp, #0x14]

; 510  :     if (!DeviceIoControl(hCMEM, CMEM_IOCGETBLOCK, &block, sizeof(block), NULL,
; 511  :                 0, &dwBytesReturned, NULL)) {

  0105c	e3a03000	 mov         r3, #0
  01060	e58d300c	 str         r3, [sp, #0xC]
  01064	e28d3010	 add         r3, sp, #0x10
  01068	e58d3008	 str         r3, [sp, #8]
  0106c	e3a03000	 mov         r3, #0
  01070	e58d3004	 str         r3, [sp, #4]
  01074	e3a03000	 mov         r3, #0
  01078	e58d3000	 str         r3, [sp]
  0107c	e3a03010	 mov         r3, #0x10
  01080	e28d2014	 add         r2, sp, #0x14
  01084	e3a01009	 mov         r1, #9
  01088	e59f0094	 ldr         r0, [pc, #0x94]
  0108c	e5900000	 ldr         r0, [r0]
  01090	eb000000	 bl          DeviceIoControl
  01094	e58d003c	 str         r0, [sp, #0x3C]
  01098	e59d303c	 ldr         r3, [sp, #0x3C]
  0109c	e3530000	 cmp         r3, #0
  010a0	1a000007	 bne         |$LN1@getBlock|

; 512  :         __E("getBlock: Failed to retrieve memory block bounds for\n");

  010a4	e59f0074	 ldr         r0, [pc, #0x74]
  010a8	eb000000	 bl          NKDbgPrintfW

; 513  :         __E("  block %d from driver\n", blockid);

  010ac	e59d1048	 ldr         r1, [sp, #0x48]
  010b0	e59f0064	 ldr         r0, [pc, #0x64]
  010b4	eb000000	 bl          NKDbgPrintfW

; 514  : 
; 515  :         return -1;

  010b8	e3e03000	 mvn         r3, #0
  010bc	e58d3024	 str         r3, [sp, #0x24]
  010c0	ea00000f	 b           |$LN3@getBlock|
  010c4		 |$LN1@getBlock|

; 516  :     }
; 517  : 
; 518  :     *pphys_base = block.get_block_outparams.physp;

  010c4	e59d2014	 ldr         r2, [sp, #0x14]
  010c8	e59d304c	 ldr         r3, [sp, #0x4C]
  010cc	e5832000	 str         r2, [r3]

; 519  :     *psize = block.get_block_outparams.size;

  010d0	e59d2018	 ldr         r2, [sp, #0x18]
  010d4	e59d3050	 ldr         r3, [sp, #0x50]
  010d8	e5832000	 str         r2, [r3]

; 520  : 
; 521  :     __D("getVersion: exiting, ioctl CMEM_IOCGETBLOCK succeeded,\n");

  010dc	e59f0034	 ldr         r0, [pc, #0x34]
  010e0	eb000000	 bl          NKDbgPrintfW

; 522  :     __D("  returning *pphys_base=0x%lx, *psize=0x%x\n", *pphys_base, *psize);

  010e4	e59d3050	 ldr         r3, [sp, #0x50]
  010e8	e5932000	 ldr         r2, [r3]
  010ec	e59d304c	 ldr         r3, [sp, #0x4C]
  010f0	e5931000	 ldr         r1, [r3]
  010f4	e59f0018	 ldr         r0, [pc, #0x18]
  010f8	eb000000	 bl          NKDbgPrintfW

; 523  : 
; 524  :     return 0;

  010fc	e3a03000	 mov         r3, #0
  01100	e58d3024	 str         r3, [sp, #0x24]
  01104		 |$LN3@getBlock|

; 525  : }

  01104	e59d0024	 ldr         r0, [sp, #0x24]
  01108	e28dd040	 add         sp, sp, #0x40
  0110c	e89d6000	 ldmia       sp, {sp, lr}
  01110	e12fff1e	 bx          lr
  01114		 |$LN8@getBlock|
  01114		 |$LN9@getBlock|
  01114	00000000	 DCD         |??_C@_1HA@CAPACFLF@?$AAC?$AAM?$AAE?$AAM?$AA?5?$AAD?$AAe?$AAb?$AAu?$AAg?$AA?3?$AA?5?$AA?5?$AA?5?$AAr?$AAe?$AAt?$AAu?$AAr?$AAn?$AAi?$AAn?$AAg?$AA?5?$AA?$CK?$AAp?$AAp?$AAh?$AAy?$AAs?$AA_?$AAb@|
  01118		 |$LN10@getBlock|
  01118	00000000	 DCD         |??_C@_1II@OBAGDEJF@?$AAC?$AAM?$AAE?$AAM?$AA?5?$AAD?$AAe?$AAb?$AAu?$AAg?$AA?3?$AA?5?$AAg?$AAe?$AAt?$AAV?$AAe?$AAr?$AAs?$AAi?$AAo?$AAn?$AA?3?$AA?5?$AAe?$AAx?$AAi?$AAt?$AAi?$AAn?$AAg?$AA?0@|
  0111c		 |$LN11@getBlock|
  0111c	00000000	 DCD         |??_C@_1EI@EKMONBBA@?$AAC?$AAM?$AAE?$AAM?$AA?5?$AAE?$AAr?$AAr?$AAo?$AAr?$AA?3?$AA?5?$AA?5?$AA?5?$AAb?$AAl?$AAo?$AAc?$AAk?$AA?5?$AA?$CF?$AAd?$AA?5?$AAf?$AAr?$AAo?$AAm?$AA?5?$AAd?$AAr?$AAi?$AAv@|
  01120		 |$LN12@getBlock|
  01120	00000000	 DCD         |??_C@_1IE@PAKGNLMK@?$AAC?$AAM?$AAE?$AAM?$AA?5?$AAE?$AAr?$AAr?$AAo?$AAr?$AA?3?$AA?5?$AAg?$AAe?$AAt?$AAB?$AAl?$AAo?$AAc?$AAk?$AA?3?$AA?5?$AAF?$AAa?$AAi?$AAl?$AAe?$AAd?$AA?5?$AAt?$AAo?$AA?5@|
  01124		 |$LN13@getBlock|
  01124	00000000	 DCD         |hCMEM|
  01128		 |$LN14@getBlock|
  01128	00000000	 DCD         |??_C@_1DO@HNDIFKFF@?$AAC?$AAM?$AAE?$AAM?$AA?5?$AAD?$AAe?$AAb?$AAu?$AAg?$AA?3?$AA?5?$AAg?$AAe?$AAt?$AAB?$AAl?$AAo?$AAc?$AAk?$AA?3?$AA?5?$AAe?$AAn?$AAt?$AAe?$AAr?$AAe?$AAd?$AA?6?$AA?$AA@|
  0112c		 |$M37339|

			 ENDP  ; |getBlock|

	EXPORT	|CMEM_getBlockAttrs|

  000b0			 AREA	 |.pdata|, PDATA
|$T37354| DCD	|$LN5@CMEM_getBl@2|
	DCD	0x40001004
; Function compile flags: /Odtp

  0112c			 AREA	 |.text|, CODE, ARM

  0112c		 |CMEM_getBlockAttrs| PROC

; 533  : {

  0112c		 |$LN5@CMEM_getBl@2|
  0112c	e1a0c00d	 mov         r12, sp
  01130	e92d0003	 stmdb       sp!, {r0, r1}
  01134	e92d5000	 stmdb       sp!, {r12, lr}
  01138	e24dd008	 sub         sp, sp, #8
  0113c		 |$M37351|

; 534  :     return getBlock(blockid, &pattrs->phys_base, &pattrs->size);

  0113c	e59d3014	 ldr         r3, [sp, #0x14]
  01140	e2832004	 add         r2, r3, #4
  01144	e59d1014	 ldr         r1, [sp, #0x14]
  01148	e59d0010	 ldr         r0, [sp, #0x10]
  0114c	eb000000	 bl          getBlock
  01150	e58d0004	 str         r0, [sp, #4]
  01154	e59d3004	 ldr         r3, [sp, #4]
  01158	e58d3000	 str         r3, [sp]

; 535  : }

  0115c	e59d0000	 ldr         r0, [sp]
  01160	e28dd008	 add         sp, sp, #8
  01164	e89d6000	 ldmia       sp, {sp, lr}
  01168	e12fff1e	 bx          lr
  0116c		 |$M37352|

			 ENDP  ; |CMEM_getBlockAttrs|

	EXPORT	|??_C@_1JA@FENNEN@?$AAC?$AAM?$AAE?$AAM?$AA?5?$AAD?$AAe?$AAb?$AAu?$AAg?$AA?3?$AA?5?$AAC?$AAM?$AAE?$AAM?$AA_?$AAg?$AAe?$AAt?$AAN?$AAu?$AAm?$AAB?$AAl?$AAo?$AAc?$AAk?$AAs?$AA?3?$AA?5?$AAi@| [ DATA ] ; `string'
	EXPORT	|??_C@_1IO@HPDOGHBG@?$AAC?$AAM?$AAE?$AAM?$AA?5?$AAE?$AAr?$AAr?$AAo?$AAr?$AA?3?$AA?5?$AAC?$AAM?$AAE?$AAM?$AA_?$AAg?$AAe?$AAt?$AAN?$AAu?$AAm?$AAB?$AAl?$AAo?$AAc?$AAk?$AAs?$AA?3?$AA?5?$AAF@| [ DATA ] ; `string'
	EXPORT	|??_C@_1FA@PKLEKDPF@?$AAC?$AAM?$AAE?$AAM?$AA?5?$AAD?$AAe?$AAb?$AAu?$AAg?$AA?3?$AA?5?$AAC?$AAM?$AAE?$AAM?$AA_?$AAg?$AAe?$AAt?$AAN?$AAu?$AAm?$AAB?$AAl?$AAo?$AAc?$AAk?$AAs?$AA?3?$AA?5?$AAe@| [ DATA ] ; `string'
	EXPORT	|CMEM_getNumBlocks|

  000b8			 AREA	 |.pdata|, PDATA
|$T37364| DCD	|$LN7@CMEM_getNu|
	DCD	0x40003704

  00000			 AREA	 |.rdata|, DATA, READONLY
|??_C@_1JA@FENNEN@?$AAC?$AAM?$AAE?$AAM?$AA?5?$AAD?$AAe?$AAb?$AAu?$AAg?$AA?3?$AA?5?$AAC?$AAM?$AAE?$AAM?$AA_?$AAg?$AAe?$AAt?$AAN?$AAu?$AAm?$AAB?$AAl?$AAo?$AAc?$AAk?$AAs?$AA?3?$AA?5?$AAi@| DCB "C"
	DCB	0x0, "M", 0x0, "E", 0x0, "M", 0x0, " ", 0x0, "D", 0x0, "e"
	DCB	0x0, "b", 0x0, "u", 0x0, "g", 0x0, ":", 0x0, " ", 0x0, "C"
	DCB	0x0, "M", 0x0, "E", 0x0, "M", 0x0, "_", 0x0, "g", 0x0, "e"
	DCB	0x0, "t", 0x0, "N", 0x0, "u", 0x0, "m", 0x0, "B", 0x0, "l"
	DCB	0x0, "o", 0x0, "c", 0x0, "k", 0x0, "s", 0x0, ":", 0x0, " "
	DCB	0x0, "i", 0x0, "o", 0x0, "c", 0x0, "t", 0x0, "l", 0x0, " "
	DCB	0x0, "C", 0x0, "M", 0x0, "E", 0x0, "M", 0x0, "_", 0x0, "I"
	DCB	0x0, "O", 0x0, "C", 0x0, "G", 0x0, "E", 0x0, "T", 0x0, "N"
	DCB	0x0, "U", 0x0, "M", 0x0, "B", 0x0, "L", 0x0, "O", 0x0, "C"
	DCB	0x0, "K", 0x0, "S", 0x0, " ", 0x0, "r", 0x0, "e", 0x0, "t"
	DCB	0x0, "u", 0x0, "r", 0x0, "n", 0x0, "e", 0x0, "d", 0x0, " "
	DCB	0x0, "%", 0x0, "#", 0x0, "x", 0x0, 0xa, 0x0, 0x0, 0x0 ; `string'

  00000			 AREA	 |.rdata|, DATA, READONLY
|??_C@_1IO@HPDOGHBG@?$AAC?$AAM?$AAE?$AAM?$AA?5?$AAE?$AAr?$AAr?$AAo?$AAr?$AA?3?$AA?5?$AAC?$AAM?$AAE?$AAM?$AA_?$AAg?$AAe?$AAt?$AAN?$AAu?$AAm?$AAB?$AAl?$AAo?$AAc?$AAk?$AAs?$AA?3?$AA?5?$AAF@| DCB "C"
	DCB	0x0, "M", 0x0, "E", 0x0, "M", 0x0, " ", 0x0, "E", 0x0, "r"
	DCB	0x0, "r", 0x0, "o", 0x0, "r", 0x0, ":", 0x0, " ", 0x0, "C"
	DCB	0x0, "M", 0x0, "E", 0x0, "M", 0x0, "_", 0x0, "g", 0x0, "e"
	DCB	0x0, "t", 0x0, "N", 0x0, "u", 0x0, "m", 0x0, "B", 0x0, "l"
	DCB	0x0, "o", 0x0, "c", 0x0, "k", 0x0, "s", 0x0, ":", 0x0, " "
	DCB	0x0, "F", 0x0, "a", 0x0, "i", 0x0, "l", 0x0, "e", 0x0, "d"
	DCB	0x0, " ", 0x0, "t", 0x0, "o", 0x0, " ", 0x0, "r", 0x0, "e"
	DCB	0x0, "t", 0x0, "r", 0x0, "i", 0x0, "e", 0x0, "v", 0x0, "e"
	DCB	0x0, " ", 0x0, "v", 0x0, "e", 0x0, "r", 0x0, "s", 0x0, "i"
	DCB	0x0, "o", 0x0, "n", 0x0, " ", 0x0, "f", 0x0, "r", 0x0, "o"
	DCB	0x0, "m", 0x0, " ", 0x0, "d", 0x0, "r", 0x0, "i", 0x0, "v"
	DCB	0x0, "e", 0x0, "r", 0x0, 0xa, 0x0, 0x0, 0x0 ; `string'

  00000			 AREA	 |.rdata|, DATA, READONLY
|??_C@_1FA@PKLEKDPF@?$AAC?$AAM?$AAE?$AAM?$AA?5?$AAD?$AAe?$AAb?$AAu?$AAg?$AA?3?$AA?5?$AAC?$AAM?$AAE?$AAM?$AA_?$AAg?$AAe?$AAt?$AAN?$AAu?$AAm?$AAB?$AAl?$AAo?$AAc?$AAk?$AAs?$AA?3?$AA?5?$AAe@| DCB "C"
	DCB	0x0, "M", 0x0, "E", 0x0, "M", 0x0, " ", 0x0, "D", 0x0, "e"
	DCB	0x0, "b", 0x0, "u", 0x0, "g", 0x0, ":", 0x0, " ", 0x0, "C"
	DCB	0x0, "M", 0x0, "E", 0x0, "M", 0x0, "_", 0x0, "g", 0x0, "e"
	DCB	0x0, "t", 0x0, "N", 0x0, "u", 0x0, "m", 0x0, "B", 0x0, "l"
	DCB	0x0, "o", 0x0, "c", 0x0, "k", 0x0, "s", 0x0, ":", 0x0, " "
	DCB	0x0, "e", 0x0, "n", 0x0, "t", 0x0, "e", 0x0, "r", 0x0, "e"
	DCB	0x0, "d", 0x0, 0xa, 0x0, 0x0, 0x0	; `string'
; Function compile flags: /Odtp

  0116c			 AREA	 |.text|, CODE, ARM

  0116c		 |CMEM_getNumBlocks| PROC

; 538  : {

  0116c		 |$LN7@CMEM_getNu|
  0116c	e1a0c00d	 mov         r12, sp
  01170	e92d0001	 stmdb       sp!, {r0}
  01174	e92d5000	 stmdb       sp!, {r12, lr}
  01178	e24dd034	 sub         sp, sp, #0x34
  0117c		 |$M37361|

; 539  :     unsigned int numBlocks = 0;

  0117c	e3a03000	 mov         r3, #0
  01180	e58d3010	 str         r3, [sp, #0x10]

; 540  :     DWORD dwBytesReturned;
; 541  : 
; 542  :     __D("CMEM_getNumBlocks: entered\n");

  01184	e59f00b8	 ldr         r0, [pc, #0xB8]
  01188	eb000000	 bl          NKDbgPrintfW

; 543  : 
; 544  :     if (!validate_init()) {

  0118c	eb000000	 bl          validate_init
  01190	e58d002c	 str         r0, [sp, #0x2C]
  01194	e59d302c	 ldr         r3, [sp, #0x2C]
  01198	e3530000	 cmp         r3, #0
  0119c	1a000002	 bne         |$LN2@CMEM_getNu|

; 545  :         return (-1);

  011a0	e3e03000	 mvn         r3, #0
  011a4	e58d3018	 str         r3, [sp, #0x18]
  011a8	ea00001e	 b           |$LN3@CMEM_getNu|
  011ac		 |$LN2@CMEM_getNu|

; 546  :     }
; 547  : 
; 548  :     if (!DeviceIoControl(hCMEM, CMEM_IOCGETNUMBLOCKS, &numBlocks,
; 549  :                 sizeof(numBlocks), NULL, 0, &dwBytesReturned, NULL)) {

  011ac	e3a03000	 mov         r3, #0
  011b0	e58d300c	 str         r3, [sp, #0xC]
  011b4	e28d3014	 add         r3, sp, #0x14
  011b8	e58d3008	 str         r3, [sp, #8]
  011bc	e3a03000	 mov         r3, #0
  011c0	e58d3004	 str         r3, [sp, #4]
  011c4	e3a03000	 mov         r3, #0
  011c8	e58d3000	 str         r3, [sp]
  011cc	e3a03004	 mov         r3, #4
  011d0	e28d2010	 add         r2, sp, #0x10
  011d4	e3a0100b	 mov         r1, #0xB
  011d8	e59f0060	 ldr         r0, [pc, #0x60]
  011dc	e5900000	 ldr         r0, [r0]
  011e0	eb000000	 bl          DeviceIoControl
  011e4	e58d0030	 str         r0, [sp, #0x30]
  011e8	e59d3030	 ldr         r3, [sp, #0x30]
  011ec	e3530000	 cmp         r3, #0
  011f0	1a000004	 bne         |$LN1@CMEM_getNu|

; 550  :         __E("CMEM_getNumBlocks: Failed to retrieve version from driver\n");

  011f4	e59f0040	 ldr         r0, [pc, #0x40]
  011f8	eb000000	 bl          NKDbgPrintfW

; 551  : 
; 552  :         return (-1);

  011fc	e3e03000	 mvn         r3, #0
  01200	e58d3018	 str         r3, [sp, #0x18]
  01204	ea000007	 b           |$LN3@CMEM_getNu|
  01208		 |$LN1@CMEM_getNu|

; 553  :     }
; 554  : 
; 555  :     __D("CMEM_getNumBlocks: ioctl CMEM_IOCGETNUMBLOCKS returned %#x\n",
; 556  :             numBlocks);

  01208	e59d1010	 ldr         r1, [sp, #0x10]
  0120c	e59f0024	 ldr         r0, [pc, #0x24]
  01210	eb000000	 bl          NKDbgPrintfW

; 557  : 
; 558  :     *pnblocks = numBlocks;

  01214	e59d2010	 ldr         r2, [sp, #0x10]
  01218	e59d303c	 ldr         r3, [sp, #0x3C]
  0121c	e5832000	 str         r2, [r3]

; 559  : 
; 560  :     return (0);

  01220	e3a03000	 mov         r3, #0
  01224	e58d3018	 str         r3, [sp, #0x18]
  01228		 |$LN3@CMEM_getNu|

; 561  : }

  01228	e59d0018	 ldr         r0, [sp, #0x18]
  0122c	e28dd034	 add         sp, sp, #0x34
  01230	e89d6000	 ldmia       sp, {sp, lr}
  01234	e12fff1e	 bx          lr
  01238		 |$LN8@CMEM_getNu|
  01238		 |$LN9@CMEM_getNu|
  01238	00000000	 DCD         |??_C@_1JA@FENNEN@?$AAC?$AAM?$AAE?$AAM?$AA?5?$AAD?$AAe?$AAb?$AAu?$AAg?$AA?3?$AA?5?$AAC?$AAM?$AAE?$AAM?$AA_?$AAg?$AAe?$AAt?$AAN?$AAu?$AAm?$AAB?$AAl?$AAo?$AAc?$AAk?$AAs?$AA?3?$AA?5?$AAi@|
  0123c		 |$LN10@CMEM_getNu|
  0123c	00000000	 DCD         |??_C@_1IO@HPDOGHBG@?$AAC?$AAM?$AAE?$AAM?$AA?5?$AAE?$AAr?$AAr?$AAo?$AAr?$AA?3?$AA?5?$AAC?$AAM?$AAE?$AAM?$AA_?$AAg?$AAe?$AAt?$AAN?$AAu?$AAm?$AAB?$AAl?$AAo?$AAc?$AAk?$AAs?$AA?3?$AA?5?$AAF@|
  01240		 |$LN11@CMEM_getNu|
  01240	00000000	 DCD         |hCMEM|
  01244		 |$LN12@CMEM_getNu|
  01244	00000000	 DCD         |??_C@_1FA@PKLEKDPF@?$AAC?$AAM?$AAE?$AAM?$AA?5?$AAD?$AAe?$AAb?$AAu?$AAg?$AA?3?$AA?5?$AAC?$AAM?$AAE?$AAM?$AA_?$AAg?$AAe?$AAt?$AAN?$AAu?$AAm?$AAB?$AAl?$AAo?$AAc?$AAk?$AAs?$AA?3?$AA?5?$AAe@|
  01248		 |$M37362|

			 ENDP  ; |CMEM_getNumBlocks|

	EXPORT	|??_C@_1FC@MIANCHOM@?$AAC?$AAM?$AAE?$AAM?$AA?5?$AAD?$AAe?$AAb?$AAu?$AAg?$AA?3?$AA?5?$AAe?$AAx?$AAi?$AAt?$AA?3?$AA?5?$AAe?$AAx?$AAi?$AAt?$AAi?$AAn?$AAg?$AA?0?$AA?5?$AAr?$AAe?$AAt?$AAu?$AAr@| [ DATA ] ; `string'
	EXPORT	|??_C@_1GI@BILHCHHC@?$AAC?$AAM?$AAE?$AAM?$AA?5?$AAD?$AAe?$AAb?$AAu?$AAg?$AA?3?$AA?5?$AAe?$AAx?$AAi?$AAt?$AA?3?$AA?5?$AAr?$AAe?$AAf?$AA_?$AAc?$AAo?$AAu?$AAn?$AAt?$AA?5?$AA?$DN?$AA?$DN?$AA?5?$AA0@| [ DATA ] ; `string'
	EXPORT	|??_C@_09KNCHHPEA@succeeded?$AA@| [ DATA ] ; `string'
	EXPORT	|??_C@_06ODACHPEO@failed?$AA@| [ DATA ]	; `string'
	EXPORT	|??_C@_1FE@MKFGBBDL@?$AAC?$AAM?$AAE?$AAM?$AA?5?$AAD?$AAe?$AAb?$AAu?$AAg?$AA?3?$AA?5?$AAe?$AAx?$AAi?$AAt?$AA?3?$AA?5?$AAd?$AAe?$AAc?$AAr?$AAe?$AAm?$AAe?$AAn?$AAt?$AAi?$AAn?$AAg?$AA?5?$AAr@| [ DATA ] ; `string'
	EXPORT	|??_C@_1GI@JAPMEOK@?$AAC?$AAM?$AAE?$AAM?$AA?5?$AAD?$AAe?$AAb?$AAu?$AAg?$AA?3?$AA?5?$AAe?$AAx?$AAi?$AAt?$AA?3?$AA?5?$AAe?$AAn?$AAt?$AAe?$AAr?$AAe?$AAd?$AA?5?$AA?9?$AA?5?$AAr?$AAe?$AAf?$AA_@| [ DATA ] ; `string'
	IMPORT	|CloseHandle|

  000c0			 AREA	 |.pdata|, PDATA
|$T37377| DCD	|$LN8@CMEM_exit|
	DCD	0x40003a02

  00000			 AREA	 |.rdata|, DATA, READONLY
|??_C@_1FC@MIANCHOM@?$AAC?$AAM?$AAE?$AAM?$AA?5?$AAD?$AAe?$AAb?$AAu?$AAg?$AA?3?$AA?5?$AAe?$AAx?$AAi?$AAt?$AA?3?$AA?5?$AAe?$AAx?$AAi?$AAt?$AAi?$AAn?$AAg?$AA?0?$AA?5?$AAr?$AAe?$AAt?$AAu?$AAr@| DCB "C"
	DCB	0x0, "M", 0x0, "E", 0x0, "M", 0x0, " ", 0x0, "D", 0x0, "e"
	DCB	0x0, "b", 0x0, "u", 0x0, "g", 0x0, ":", 0x0, " ", 0x0, "e"
	DCB	0x0, "x", 0x0, "i", 0x0, "t", 0x0, ":", 0x0, " ", 0x0, "e"
	DCB	0x0, "x", 0x0, "i", 0x0, "t", 0x0, "i", 0x0, "n", 0x0, "g"
	DCB	0x0, ",", 0x0, " ", 0x0, "r", 0x0, "e", 0x0, "t", 0x0, "u"
	DCB	0x0, "r", 0x0, "n", 0x0, "i", 0x0, "n", 0x0, "g", 0x0, " "
	DCB	0x0, "%", 0x0, "d", 0x0, 0xa, 0x0, 0x0, 0x0 ; `string'

  00000			 AREA	 |.rdata|, DATA, READONLY
|??_C@_1GI@BILHCHHC@?$AAC?$AAM?$AAE?$AAM?$AA?5?$AAD?$AAe?$AAb?$AAu?$AAg?$AA?3?$AA?5?$AAe?$AAx?$AAi?$AAt?$AA?3?$AA?5?$AAr?$AAe?$AAf?$AA_?$AAc?$AAo?$AAu?$AAn?$AAt?$AA?5?$AA?$DN?$AA?$DN?$AA?5?$AA0@| DCB "C"
	DCB	0x0, "M", 0x0, "E", 0x0, "M", 0x0, " ", 0x0, "D", 0x0, "e"
	DCB	0x0, "b", 0x0, "u", 0x0, "g", 0x0, ":", 0x0, " ", 0x0, "e"
	DCB	0x0, "x", 0x0, "i", 0x0, "t", 0x0, ":", 0x0, " ", 0x0, "r"
	DCB	0x0, "e", 0x0, "f", 0x0, "_", 0x0, "c", 0x0, "o", 0x0, "u"
	DCB	0x0, "n", 0x0, "t", 0x0, " ", 0x0, "=", 0x0, "=", 0x0, " "
	DCB	0x0, "0", 0x0, ",", 0x0, " ", 0x0, "c", 0x0, "l", 0x0, "o"
	DCB	0x0, "s", 0x0, "e", 0x0, "d", 0x0, " ", 0x0, "C", 0x0, "M"
	DCB	0x0, "E", 0x0, "M", 0x0, " ", 0x0, "(", 0x0, "%", 0x0, "s"
	DCB	0x0, ")", 0x0, 0xa, 0x0, 0x0, 0x0	; `string'

  00000			 AREA	 |.rdata|, DATA, READONLY
|??_C@_09KNCHHPEA@succeeded?$AA@| DCB "succeeded", 0x0	; `string'

  00000			 AREA	 |.rdata|, DATA, READONLY
|??_C@_06ODACHPEO@failed?$AA@| DCB "failed", 0x0	; `string'

  00000			 AREA	 |.rdata|, DATA, READONLY
|??_C@_1FE@MKFGBBDL@?$AAC?$AAM?$AAE?$AAM?$AA?5?$AAD?$AAe?$AAb?$AAu?$AAg?$AA?3?$AA?5?$AAe?$AAx?$AAi?$AAt?$AA?3?$AA?5?$AAd?$AAe?$AAc?$AAr?$AAe?$AAm?$AAe?$AAn?$AAt?$AAi?$AAn?$AAg?$AA?5?$AAr@| DCB "C"
	DCB	0x0, "M", 0x0, "E", 0x0, "M", 0x0, " ", 0x0, "D", 0x0, "e"
	DCB	0x0, "b", 0x0, "u", 0x0, "g", 0x0, ":", 0x0, " ", 0x0, "e"
	DCB	0x0, "x", 0x0, "i", 0x0, "t", 0x0, ":", 0x0, " ", 0x0, "d"
	DCB	0x0, "e", 0x0, "c", 0x0, "r", 0x0, "e", 0x0, "m", 0x0, "e"
	DCB	0x0, "n", 0x0, "t", 0x0, "i", 0x0, "n", 0x0, "g", 0x0, " "
	DCB	0x0, "r", 0x0, "e", 0x0, "f", 0x0, "_", 0x0, "c", 0x0, "o"
	DCB	0x0, "u", 0x0, "n", 0x0, "t", 0x0, 0xa, 0x0, 0x0, 0x0 ; `string'

  00000			 AREA	 |.rdata|, DATA, READONLY
|??_C@_1GI@JAPMEOK@?$AAC?$AAM?$AAE?$AAM?$AA?5?$AAD?$AAe?$AAb?$AAu?$AAg?$AA?3?$AA?5?$AAe?$AAx?$AAi?$AAt?$AA?3?$AA?5?$AAe?$AAn?$AAt?$AAe?$AAr?$AAe?$AAd?$AA?5?$AA?9?$AA?5?$AAr?$AAe?$AAf?$AA_@| DCB "C"
	DCB	0x0, "M", 0x0, "E", 0x0, "M", 0x0, " ", 0x0, "D", 0x0, "e"
	DCB	0x0, "b", 0x0, "u", 0x0, "g", 0x0, ":", 0x0, " ", 0x0, "e"
	DCB	0x0, "x", 0x0, "i", 0x0, "t", 0x0, ":", 0x0, " ", 0x0, "e"
	DCB	0x0, "n", 0x0, "t", 0x0, "e", 0x0, "r", 0x0, "e", 0x0, "d"
	DCB	0x0, " ", 0x0, "-", 0x0, " ", 0x0, "r", 0x0, "e", 0x0, "f"
	DCB	0x0, "_", 0x0, "c", 0x0, "o", 0x0, "u", 0x0, "n", 0x0, "t"
	DCB	0x0, " ", 0x0, "%", 0x0, "d", 0x0, ",", 0x0, " ", 0x0, "h"
	DCB	0x0, "C", 0x0, "M", 0x0, "E", 0x0, "M", 0x0, " ", 0x0, "%"
	DCB	0x0, "d", 0x0, 0xa, 0x0, 0x0, 0x0	; `string'
; Function compile flags: /Odtp

  01248			 AREA	 |.text|, CODE, ARM

  01248		 |CMEM_exit| PROC

; 564  : {

  01248		 |$LN8@CMEM_exit|
  01248	e52de004	 str         lr, [sp, #-4]!
  0124c	e24dd010	 sub         sp, sp, #0x10
  01250		 |$M37374|

; 565  :     BOOL result = FALSE;

  01250	e3a03000	 mov         r3, #0
  01254	e58d3000	 str         r3, [sp]

; 566  : 
; 567  :     __D("exit: entered - ref_count %d, hCMEM %d\n", ref_count, hCMEM);

  01258	e59f30b4	 ldr         r3, [pc, #0xB4]
  0125c	e5932000	 ldr         r2, [r3]
  01260	e59f30bc	 ldr         r3, [pc, #0xBC]
  01264	e5931000	 ldr         r1, [r3]
  01268	e59f00bc	 ldr         r0, [pc, #0xBC]
  0126c	eb000000	 bl          NKDbgPrintfW

; 568  :     __D("exit: decrementing ref_count\n");

  01270	e59f00b0	 ldr         r0, [pc, #0xB0]
  01274	eb000000	 bl          NKDbgPrintfW

; 569  : 
; 570  :     ref_count--;

  01278	e59f30a4	 ldr         r3, [pc, #0xA4]
  0127c	e5933000	 ldr         r3, [r3]
  01280	e2432001	 sub         r2, r3, #1
  01284	e59f3098	 ldr         r3, [pc, #0x98]
  01288	e5832000	 str         r2, [r3]

; 571  :     if (ref_count == 0) {

  0128c	e59f3090	 ldr         r3, [pc, #0x90]
  01290	e5933000	 ldr         r3, [r3]
  01294	e3530000	 cmp         r3, #0
  01298	1a000013	 bne         |$LN1@CMEM_exit|

; 572  :         result = CloseHandle(hCMEM);

  0129c	e59f3070	 ldr         r3, [pc, #0x70]
  012a0	e5930000	 ldr         r0, [r3]
  012a4	eb000000	 bl          CloseHandle
  012a8	e58d0008	 str         r0, [sp, #8]
  012ac	e59d3008	 ldr         r3, [sp, #8]
  012b0	e58d3000	 str         r3, [sp]

; 573  : 
; 574  :         __D("exit: ref_count == 0, closed CMEM (%s)\n", (!result) ? "failed"
; 575  :                 : "succeeded");

  012b4	e59d3000	 ldr         r3, [sp]
  012b8	e3530000	 cmp         r3, #0
  012bc	1a000002	 bne         |$LN4@CMEM_exit|
  012c0	e59f3058	 ldr         r3, [pc, #0x58]
  012c4	e58d300c	 str         r3, [sp, #0xC]
  012c8	ea000001	 b           |$LN5@CMEM_exit|
  012cc		 |$LN4@CMEM_exit|
  012cc	e59f3048	 ldr         r3, [pc, #0x48]
  012d0	e58d300c	 str         r3, [sp, #0xC]
  012d4		 |$LN5@CMEM_exit|
  012d4	e59d100c	 ldr         r1, [sp, #0xC]
  012d8	e59f0038	 ldr         r0, [pc, #0x38]
  012dc	eb000000	 bl          NKDbgPrintfW

; 576  :         hCMEM = NULL;

  012e0	e59f202c	 ldr         r2, [pc, #0x2C]
  012e4	e3a03000	 mov         r3, #0
  012e8	e5823000	 str         r3, [r2]
  012ec		 |$LN1@CMEM_exit|

; 577  :     }
; 578  : 
; 579  :     __D("exit: exiting, returning %d\n", result);

  012ec	e59d1000	 ldr         r1, [sp]
  012f0	e59f0018	 ldr         r0, [pc, #0x18]
  012f4	eb000000	 bl          NKDbgPrintfW

; 580  : 
; 581  :     return (result);

  012f8	e59d3000	 ldr         r3, [sp]
  012fc	e58d3004	 str         r3, [sp, #4]

; 582  : }

  01300	e59d0004	 ldr         r0, [sp, #4]
  01304	e28dd010	 add         sp, sp, #0x10
  01308	e49de004	 ldr         lr, [sp], #4
  0130c	e12fff1e	 bx          lr
  01310		 |$LN9@CMEM_exit|
  01310		 |$LN10@CMEM_exit|
  01310	00000000	 DCD         |??_C@_1FC@MIANCHOM@?$AAC?$AAM?$AAE?$AAM?$AA?5?$AAD?$AAe?$AAb?$AAu?$AAg?$AA?3?$AA?5?$AAe?$AAx?$AAi?$AAt?$AA?3?$AA?5?$AAe?$AAx?$AAi?$AAt?$AAi?$AAn?$AAg?$AA?0?$AA?5?$AAr?$AAe?$AAt?$AAu?$AAr@|
  01314		 |$LN11@CMEM_exit|
  01314	00000000	 DCD         |hCMEM|
  01318		 |$LN12@CMEM_exit|
  01318	00000000	 DCD         |??_C@_1GI@BILHCHHC@?$AAC?$AAM?$AAE?$AAM?$AA?5?$AAD?$AAe?$AAb?$AAu?$AAg?$AA?3?$AA?5?$AAe?$AAx?$AAi?$AAt?$AA?3?$AA?5?$AAr?$AAe?$AAf?$AA_?$AAc?$AAo?$AAu?$AAn?$AAt?$AA?5?$AA?$DN?$AA?$DN?$AA?5?$AA0@|
  0131c		 |$LN13@CMEM_exit|
  0131c	00000000	 DCD         |??_C@_09KNCHHPEA@succeeded?$AA@|
  01320		 |$LN14@CMEM_exit|
  01320	00000000	 DCD         |??_C@_06ODACHPEO@failed?$AA@|
  01324		 |$LN15@CMEM_exit|
  01324	00000000	 DCD         |ref_count|
  01328		 |$LN16@CMEM_exit|
  01328	00000000	 DCD         |??_C@_1FE@MKFGBBDL@?$AAC?$AAM?$AAE?$AAM?$AA?5?$AAD?$AAe?$AAb?$AAu?$AAg?$AA?3?$AA?5?$AAe?$AAx?$AAi?$AAt?$AA?3?$AA?5?$AAd?$AAe?$AAc?$AAr?$AAe?$AAm?$AAe?$AAn?$AAt?$AAi?$AAn?$AAg?$AA?5?$AAr@|
  0132c		 |$LN17@CMEM_exit|
  0132c	00000000	 DCD         |??_C@_1GI@JAPMEOK@?$AAC?$AAM?$AAE?$AAM?$AA?5?$AAD?$AAe?$AAb?$AAu?$AAg?$AA?3?$AA?5?$AAe?$AAx?$AAi?$AAt?$AA?3?$AA?5?$AAe?$AAn?$AAt?$AAe?$AAr?$AAe?$AAd?$AA?5?$AA?9?$AA?5?$AAr?$AAe?$AAf?$AA_@|
  01330		 |$M37375|

			 ENDP  ; |CMEM_exit|

	EXPORT	|??_C@_1KA@GENNPKBP@?$AAC?$AAM?$AAE?$AAM?$AA?5?$AAD?$AAe?$AAb?$AAu?$AAg?$AA?3?$AA?5?$AAC?$AAM?$AAE?$AAM?$AA_?$AAm?$AAa?$AAp?$AAA?$AAd?$AAd?$AAr?$AAe?$AAs?$AAs?$AA?3?$AA?5?$AAi?$AAo?$AAc@| [ DATA ] ; `string'
	EXPORT	|??_C@_1IC@LHPHMHFL@?$AAC?$AAM?$AAE?$AAM?$AA?5?$AAE?$AAr?$AAr?$AAo?$AAr?$AA?3?$AA?5?$AAC?$AAM?$AAE?$AAM?$AA_?$AAm?$AAa?$AAp?$AAA?$AAd?$AAd?$AAr?$AAe?$AAs?$AAs?$AA?3?$AA?5?$AAF?$AAa?$AAi@| [ DATA ] ; `string'
	EXPORT	|??_C@_1IA@HIPOJOLM@?$AAC?$AAM?$AAE?$AAM?$AA?5?$AAE?$AAr?$AAr?$AAo?$AAr?$AA?3?$AA?5?$AAC?$AAM?$AAE?$AAM?$AA_?$AAm?$AAa?$AAp?$AAA?$AAd?$AAd?$AAr?$AAe?$AAs?$AAs?$AA?3?$AA?5?$AAI?$AAn?$AAp@| [ DATA ] ; `string'
	EXPORT	|??_C@_1IC@JCADCFLC@?$AAC?$AAM?$AAE?$AAM?$AA?5?$AAE?$AAr?$AAr?$AAo?$AAr?$AA?3?$AA?5?$AAC?$AAM?$AAE?$AAM?$AA_?$AAm?$AAa?$AAp?$AAA?$AAd?$AAd?$AAr?$AAe?$AAs?$AAs?$AA?3?$AA?5?$AAI?$AAn?$AAp@| [ DATA ] ; `string'
	EXPORT	|??_C@_1IM@JJKMGICE@?$AAC?$AAM?$AAE?$AAM?$AA?5?$AAD?$AAe?$AAb?$AAu?$AAg?$AA?3?$AA?5?$AAC?$AAM?$AAE?$AAM?$AA_?$AAm?$AAa?$AAp?$AAA?$AAd?$AAd?$AAr?$AAe?$AAs?$AAs?$AA?3?$AA?5?$AAe?$AAn?$AAt@| [ DATA ] ; `string'
	EXPORT	|CMEM_mapAddress|

  000c8			 AREA	 |.pdata|, PDATA
|$T37396| DCD	|$LN9@CMEM_mapAd|
	DCD	0x40005c04

  00000			 AREA	 |.rdata|, DATA, READONLY
|??_C@_1KA@GENNPKBP@?$AAC?$AAM?$AAE?$AAM?$AA?5?$AAD?$AAe?$AAb?$AAu?$AAg?$AA?3?$AA?5?$AAC?$AAM?$AAE?$AAM?$AA_?$AAm?$AAa?$AAp?$AAA?$AAd?$AAd?$AAr?$AAe?$AAs?$AAs?$AA?3?$AA?5?$AAi?$AAo?$AAc@| DCB "C"
	DCB	0x0, "M", 0x0, "E", 0x0, "M", 0x0, " ", 0x0, "D", 0x0, "e"
	DCB	0x0, "b", 0x0, "u", 0x0, "g", 0x0, ":", 0x0, " ", 0x0, "C"
	DCB	0x0, "M", 0x0, "E", 0x0, "M", 0x0, "_", 0x0, "m", 0x0, "a"
	DCB	0x0, "p", 0x0, "A", 0x0, "d", 0x0, "d", 0x0, "r", 0x0, "e"
	DCB	0x0, "s", 0x0, "s", 0x0, ":", 0x0, " ", 0x0, "i", 0x0, "o"
	DCB	0x0, "c", 0x0, "t", 0x0, "l", 0x0, " ", 0x0, "C", 0x0, "M"
	DCB	0x0, "E", 0x0, "M", 0x0, "_", 0x0, "I", 0x0, "O", 0x0, "C"
	DCB	0x0, "M", 0x0, "A", 0x0, "P", 0x0, "A", 0x0, "D", 0x0, "D"
	DCB	0x0, "R", 0x0, "E", 0x0, "S", 0x0, "S", 0x0, " ", 0x0, "s"
	DCB	0x0, "u", 0x0, "c", 0x0, "c", 0x0, "e", 0x0, "e", 0x0, "d"
	DCB	0x0, "e", 0x0, "d", 0x0, ",", 0x0, " ", 0x0, "v", 0x0, "i"
	DCB	0x0, "r", 0x0, "t", 0x0, "A", 0x0, "d", 0x0, "d", 0x0, "r"
	DCB	0x0, "=", 0x0, "%", 0x0, "#", 0x0, "l", 0x0, "x", 0x0, 0xa
	DCB	0x0, 0x0, 0x0				; `string'

  00000			 AREA	 |.rdata|, DATA, READONLY
|??_C@_1IC@LHPHMHFL@?$AAC?$AAM?$AAE?$AAM?$AA?5?$AAE?$AAr?$AAr?$AAo?$AAr?$AA?3?$AA?5?$AAC?$AAM?$AAE?$AAM?$AA_?$AAm?$AAa?$AAp?$AAA?$AAd?$AAd?$AAr?$AAe?$AAs?$AAs?$AA?3?$AA?5?$AAF?$AAa?$AAi@| DCB "C"
	DCB	0x0, "M", 0x0, "E", 0x0, "M", 0x0, " ", 0x0, "E", 0x0, "r"
	DCB	0x0, "r", 0x0, "o", 0x0, "r", 0x0, ":", 0x0, " ", 0x0, "C"
	DCB	0x0, "M", 0x0, "E", 0x0, "M", 0x0, "_", 0x0, "m", 0x0, "a"
	DCB	0x0, "p", 0x0, "A", 0x0, "d", 0x0, "d", 0x0, "r", 0x0, "e"
	DCB	0x0, "s", 0x0, "s", 0x0, ":", 0x0, " ", 0x0, "F", 0x0, "a"
	DCB	0x0, "i", 0x0, "l", 0x0, "e", 0x0, "d", 0x0, " ", 0x0, "t"
	DCB	0x0, "o", 0x0, " ", 0x0, "m", 0x0, "a", 0x0, "p", 0x0, " "
	DCB	0x0, "p", 0x0, "h", 0x0, "y", 0x0, "s", 0x0, "i", 0x0, "c"
	DCB	0x0, "a", 0x0, "l", 0x0, " ", 0x0, "a", 0x0, "d", 0x0, "d"
	DCB	0x0, "r", 0x0, "e", 0x0, "s", 0x0, "s", 0x0, " ", 0x0, "%"
	DCB	0x0, "#", 0x0, "x", 0x0, 0xa, 0x0, 0x0, 0x0 ; `string'

  00000			 AREA	 |.rdata|, DATA, READONLY
|??_C@_1IA@HIPOJOLM@?$AAC?$AAM?$AAE?$AAM?$AA?5?$AAE?$AAr?$AAr?$AAo?$AAr?$AA?3?$AA?5?$AAC?$AAM?$AAE?$AAM?$AA_?$AAm?$AAa?$AAp?$AAA?$AAd?$AAd?$AAr?$AAe?$AAs?$AAs?$AA?3?$AA?5?$AAI?$AAn?$AAp@| DCB "C"
	DCB	0x0, "M", 0x0, "E", 0x0, "M", 0x0, " ", 0x0, "E", 0x0, "r"
	DCB	0x0, "r", 0x0, "o", 0x0, "r", 0x0, ":", 0x0, " ", 0x0, "C"
	DCB	0x0, "M", 0x0, "E", 0x0, "M", 0x0, "_", 0x0, "m", 0x0, "a"
	DCB	0x0, "p", 0x0, "A", 0x0, "d", 0x0, "d", 0x0, "r", 0x0, "e"
	DCB	0x0, "s", 0x0, "s", 0x0, ":", 0x0, " ", 0x0, "I", 0x0, "n"
	DCB	0x0, "p", 0x0, "u", 0x0, "t", 0x0, " ", 0x0, "l", 0x0, "e"
	DCB	0x0, "n", 0x0, "g", 0x0, "t", 0x0, "h", 0x0, " ", 0x0, "%"
	DCB	0x0, "#", 0x0, "x", 0x0, " ", 0x0, "n", 0x0, "o", 0x0, "t"
	DCB	0x0, " ", 0x0, "p", 0x0, "a", 0x0, "g", 0x0, "e", 0x0, " "
	DCB	0x0, "a", 0x0, "l", 0x0, "i", 0x0, "g", 0x0, "n", 0x0, "e"
	DCB	0x0, "d", 0x0, 0xa, 0x0, 0x0, 0x0	; `string'

  00000			 AREA	 |.rdata|, DATA, READONLY
|??_C@_1IC@JCADCFLC@?$AAC?$AAM?$AAE?$AAM?$AA?5?$AAE?$AAr?$AAr?$AAo?$AAr?$AA?3?$AA?5?$AAC?$AAM?$AAE?$AAM?$AA_?$AAm?$AAa?$AAp?$AAA?$AAd?$AAd?$AAr?$AAe?$AAs?$AAs?$AA?3?$AA?5?$AAI?$AAn?$AAp@| DCB "C"
	DCB	0x0, "M", 0x0, "E", 0x0, "M", 0x0, " ", 0x0, "E", 0x0, "r"
	DCB	0x0, "r", 0x0, "o", 0x0, "r", 0x0, ":", 0x0, " ", 0x0, "C"
	DCB	0x0, "M", 0x0, "E", 0x0, "M", 0x0, "_", 0x0, "m", 0x0, "a"
	DCB	0x0, "p", 0x0, "A", 0x0, "d", 0x0, "d", 0x0, "r", 0x0, "e"
	DCB	0x0, "s", 0x0, "s", 0x0, ":", 0x0, " ", 0x0, "I", 0x0, "n"
	DCB	0x0, "p", 0x0, "u", 0x0, "t", 0x0, " ", 0x0, "a", 0x0, "d"
	DCB	0x0, "d", 0x0, "r", 0x0, "e", 0x0, "s", 0x0, "s", 0x0, " "
	DCB	0x0, "%", 0x0, "#", 0x0, "x", 0x0, " ", 0x0, "n", 0x0, "o"
	DCB	0x0, "t", 0x0, " ", 0x0, "p", 0x0, "a", 0x0, "g", 0x0, "e"
	DCB	0x0, " ", 0x0, "a", 0x0, "l", 0x0, "i", 0x0, "g", 0x0, "n"
	DCB	0x0, "e", 0x0, "d", 0x0, 0xa, 0x0, 0x0, 0x0 ; `string'

  00000			 AREA	 |.rdata|, DATA, READONLY
|??_C@_1IM@JJKMGICE@?$AAC?$AAM?$AAE?$AAM?$AA?5?$AAD?$AAe?$AAb?$AAu?$AAg?$AA?3?$AA?5?$AAC?$AAM?$AAE?$AAM?$AA_?$AAm?$AAa?$AAp?$AAA?$AAd?$AAd?$AAr?$AAe?$AAs?$AAs?$AA?3?$AA?5?$AAe?$AAn?$AAt@| DCB "C"
	DCB	0x0, "M", 0x0, "E", 0x0, "M", 0x0, " ", 0x0, "D", 0x0, "e"
	DCB	0x0, "b", 0x0, "u", 0x0, "g", 0x0, ":", 0x0, " ", 0x0, "C"
	DCB	0x0, "M", 0x0, "E", 0x0, "M", 0x0, "_", 0x0, "m", 0x0, "a"
	DCB	0x0, "p", 0x0, "A", 0x0, "d", 0x0, "d", 0x0, "r", 0x0, "e"
	DCB	0x0, "s", 0x0, "s", 0x0, ":", 0x0, " ", 0x0, "e", 0x0, "n"
	DCB	0x0, "t", 0x0, "e", 0x0, "r", 0x0, "e", 0x0, "d", 0x0, ","
	DCB	0x0, " ", 0x0, "a", 0x0, "d", 0x0, "d", 0x0, "r", 0x0, " "
	DCB	0x0, "%", 0x0, "p", 0x0, ",", 0x0, " ", 0x0, "l", 0x0, "e"
	DCB	0x0, "n", 0x0, "g", 0x0, "t", 0x0, "h", 0x0, " ", 0x0, "%"
	DCB	0x0, "#", 0x0, "x", 0x0, ",", 0x0, " ", 0x0, "f", 0x0, "l"
	DCB	0x0, "a", 0x0, "g", 0x0, "s", 0x0, " ", 0x0, "%", 0x0, "#"
	DCB	0x0, "x", 0x0, 0xa, 0x0, 0x0, 0x0	; `string'
; Function compile flags: /Odtp

  01330			 AREA	 |.text|, CODE, ARM

  01330		 |CMEM_mapAddress| PROC

; 589  : {

  01330		 |$LN9@CMEM_mapAd|
  01330	e1a0c00d	 mov         r12, sp
  01334	e92d000f	 stmdb       sp!, {r0 - r3}
  01338	e92d5000	 stmdb       sp!, {r12, lr}
  0133c	e24dd044	 sub         sp, sp, #0x44
  01340		 |$M37393|

; 590  :     union CMEM_AllocUnion mapDesc;
; 591  :     DWORD   dwBytesReturned;
; 592  : 
; 593  :     __D("CMEM_mapAddress: entered, addr %p, length %#x, flags %#x\n",
; 594  :             physAddr, length, flags);

  01340	e59d3054	 ldr         r3, [sp, #0x54]
  01344	e59d2050	 ldr         r2, [sp, #0x50]
  01348	e59d104c	 ldr         r1, [sp, #0x4C]
  0134c	e59f0148	 ldr         r0, [pc, #0x148]
  01350	eb000000	 bl          NKDbgPrintfW

; 595  : 
; 596  :     if (!validate_init()) {

  01354	eb000000	 bl          validate_init
  01358	e58d0038	 str         r0, [sp, #0x38]
  0135c	e59d3038	 ldr         r3, [sp, #0x38]
  01360	e3530000	 cmp         r3, #0
  01364	1a000002	 bne         |$LN4@CMEM_mapAd|

; 597  :         return (-1);

  01368	e3e03000	 mvn         r3, #0
  0136c	e58d3024	 str         r3, [sp, #0x24]
  01370	ea00003f	 b           |$LN5@CMEM_mapAd|
  01374		 |$LN4@CMEM_mapAd|

; 598  :     }
; 599  : 
; 600  :     /* Make sure address, length are multiples of page sise */
; 601  :     if (physAddr & (dwPageSize - 1)) {

  01374	e59f3118	 ldr         r3, [pc, #0x118]
  01378	e5933000	 ldr         r3, [r3]
  0137c	e2432001	 sub         r2, r3, #1
  01380	e59d304c	 ldr         r3, [sp, #0x4C]
  01384	e1130002	 tst         r3, r2
  01388	0a000005	 beq         |$LN3@CMEM_mapAd|

; 602  :         __E("CMEM_mapAddress: Input address %#x not page aligned\n", physAddr);

  0138c	e59d104c	 ldr         r1, [sp, #0x4C]
  01390	e59f0100	 ldr         r0, [pc, #0x100]
  01394	eb000000	 bl          NKDbgPrintfW

; 603  :         return (-2);

  01398	e3e03001	 mvn         r3, #1
  0139c	e58d3024	 str         r3, [sp, #0x24]
  013a0	ea000033	 b           |$LN5@CMEM_mapAd|
  013a4		 |$LN3@CMEM_mapAd|

; 604  :     }
; 605  : 
; 606  :     if (length & (dwPageSize - 1)) {

  013a4	e59f30e8	 ldr         r3, [pc, #0xE8]
  013a8	e5933000	 ldr         r3, [r3]
  013ac	e2432001	 sub         r2, r3, #1
  013b0	e59d3050	 ldr         r3, [sp, #0x50]
  013b4	e1130002	 tst         r3, r2
  013b8	0a000005	 beq         |$LN2@CMEM_mapAd|

; 607  :         __E("CMEM_mapAddress: Input length %#x not page aligned\n", length);

  013bc	e59d1050	 ldr         r1, [sp, #0x50]
  013c0	e59f00c8	 ldr         r0, [pc, #0xC8]
  013c4	eb000000	 bl          NKDbgPrintfW

; 608  :         return (-2);

  013c8	e3e03001	 mvn         r3, #1
  013cc	e58d3024	 str         r3, [sp, #0x24]
  013d0	ea000027	 b           |$LN5@CMEM_mapAd|
  013d4		 |$LN2@CMEM_mapAd|

; 609  :     }
; 610  : 
; 611  :     mapDesc.map_inparams.physp = physAddr;

  013d4	e59d304c	 ldr         r3, [sp, #0x4C]
  013d8	e58d3010	 str         r3, [sp, #0x10]

; 612  :     mapDesc.map_inparams.size = (size_t)length;

  013dc	e59d3050	 ldr         r3, [sp, #0x50]
  013e0	e58d3014	 str         r3, [sp, #0x14]

; 613  :     mapDesc.map_inparams.dwProcId = (DWORD)GetCurrentProcessId();

  013e4	eb000000	 bl          GetCurrentProcessId
  013e8	e58d003c	 str         r0, [sp, #0x3C]
  013ec	e59d303c	 ldr         r3, [sp, #0x3C]
  013f0	e58d3018	 str         r3, [sp, #0x18]

; 614  : 
; 615  :     if (!DeviceIoControl(hCMEM, CMEM_IOCMAPADDRESS, &mapDesc, sizeof(mapDesc),
; 616  :                 NULL, 0, &dwBytesReturned, NULL)) {

  013f4	e3a03000	 mov         r3, #0
  013f8	e58d300c	 str         r3, [sp, #0xC]
  013fc	e28d3020	 add         r3, sp, #0x20
  01400	e58d3008	 str         r3, [sp, #8]
  01404	e3a03000	 mov         r3, #0
  01408	e58d3004	 str         r3, [sp, #4]
  0140c	e3a03000	 mov         r3, #0
  01410	e58d3000	 str         r3, [sp]
  01414	e3a03010	 mov         r3, #0x10
  01418	e28d2010	 add         r2, sp, #0x10
  0141c	e3a0100c	 mov         r1, #0xC
  01420	e59f0064	 ldr         r0, [pc, #0x64]
  01424	e5900000	 ldr         r0, [r0]
  01428	eb000000	 bl          DeviceIoControl
  0142c	e58d0040	 str         r0, [sp, #0x40]
  01430	e59d3040	 ldr         r3, [sp, #0x40]
  01434	e3530000	 cmp         r3, #0
  01438	1a000005	 bne         |$LN1@CMEM_mapAd|

; 617  :         __E("CMEM_mapAddress: Failed to map physical address %#x\n",
; 618  :                 (unsigned int)physAddr);

  0143c	e59d104c	 ldr         r1, [sp, #0x4C]
  01440	e59f0040	 ldr         r0, [pc, #0x40]
  01444	eb000000	 bl          NKDbgPrintfW

; 619  :         return (-3);

  01448	e3e03002	 mvn         r3, #2
  0144c	e58d3024	 str         r3, [sp, #0x24]
  01450	ea000007	 b           |$LN5@CMEM_mapAd|
  01454		 |$LN1@CMEM_mapAd|

; 620  :     }
; 621  : 
; 622  :     __D("CMEM_mapAddress: ioctl CMEM_IOCMAPADDRESS succeeded, virtAddr=%#lx\n",
; 623  :             mapDesc.virtp);

  01454	e59d1010	 ldr         r1, [sp, #0x10]
  01458	e59f0024	 ldr         r0, [pc, #0x24]
  0145c	eb000000	 bl          NKDbgPrintfW

; 624  :     *pVirtAddr = mapDesc.virtp;

  01460	e59d2010	 ldr         r2, [sp, #0x10]
  01464	e59d3058	 ldr         r3, [sp, #0x58]
  01468	e5832000	 str         r2, [r3]

; 625  : 
; 626  :     return (0);

  0146c	e3a03000	 mov         r3, #0
  01470	e58d3024	 str         r3, [sp, #0x24]
  01474		 |$LN5@CMEM_mapAd|

; 627  : }

  01474	e59d0024	 ldr         r0, [sp, #0x24]
  01478	e28dd044	 add         sp, sp, #0x44
  0147c	e89d6000	 ldmia       sp, {sp, lr}
  01480	e12fff1e	 bx          lr
  01484		 |$LN10@CMEM_mapAd|
  01484		 |$LN11@CMEM_mapAd|
  01484	00000000	 DCD         |??_C@_1KA@GENNPKBP@?$AAC?$AAM?$AAE?$AAM?$AA?5?$AAD?$AAe?$AAb?$AAu?$AAg?$AA?3?$AA?5?$AAC?$AAM?$AAE?$AAM?$AA_?$AAm?$AAa?$AAp?$AAA?$AAd?$AAd?$AAr?$AAe?$AAs?$AAs?$AA?3?$AA?5?$AAi?$AAo?$AAc@|
  01488		 |$LN12@CMEM_mapAd|
  01488	00000000	 DCD         |??_C@_1IC@LHPHMHFL@?$AAC?$AAM?$AAE?$AAM?$AA?5?$AAE?$AAr?$AAr?$AAo?$AAr?$AA?3?$AA?5?$AAC?$AAM?$AAE?$AAM?$AA_?$AAm?$AAa?$AAp?$AAA?$AAd?$AAd?$AAr?$AAe?$AAs?$AAs?$AA?3?$AA?5?$AAF?$AAa?$AAi@|
  0148c		 |$LN13@CMEM_mapAd|
  0148c	00000000	 DCD         |hCMEM|
  01490		 |$LN14@CMEM_mapAd|
  01490	00000000	 DCD         |??_C@_1IA@HIPOJOLM@?$AAC?$AAM?$AAE?$AAM?$AA?5?$AAE?$AAr?$AAr?$AAo?$AAr?$AA?3?$AA?5?$AAC?$AAM?$AAE?$AAM?$AA_?$AAm?$AAa?$AAp?$AAA?$AAd?$AAd?$AAr?$AAe?$AAs?$AAs?$AA?3?$AA?5?$AAI?$AAn?$AAp@|
  01494		 |$LN15@CMEM_mapAd|
  01494	00000000	 DCD         |dwPageSize|
  01498		 |$LN16@CMEM_mapAd|
  01498	00000000	 DCD         |??_C@_1IC@JCADCFLC@?$AAC?$AAM?$AAE?$AAM?$AA?5?$AAE?$AAr?$AAr?$AAo?$AAr?$AA?3?$AA?5?$AAC?$AAM?$AAE?$AAM?$AA_?$AAm?$AAa?$AAp?$AAA?$AAd?$AAd?$AAr?$AAe?$AAs?$AAs?$AA?3?$AA?5?$AAI?$AAn?$AAp@|
  0149c		 |$LN17@CMEM_mapAd|
  0149c	00000000	 DCD         |??_C@_1IM@JJKMGICE@?$AAC?$AAM?$AAE?$AAM?$AA?5?$AAD?$AAe?$AAb?$AAu?$AAg?$AA?3?$AA?5?$AAC?$AAM?$AAE?$AAM?$AA_?$AAm?$AAa?$AAp?$AAA?$AAd?$AAd?$AAr?$AAe?$AAs?$AAs?$AA?3?$AA?5?$AAe?$AAn?$AAt@|
  014a0		 |$M37394|

			 ENDP  ; |CMEM_mapAddress|

	EXPORT	|??_C@_1II@HDMFEDCC@?$AAC?$AAM?$AAE?$AAM?$AA?5?$AAE?$AAr?$AAr?$AAo?$AAr?$AA?3?$AA?5?$AAC?$AAM?$AAE?$AAM?$AA_?$AAu?$AAn?$AAm?$AAa?$AAp?$AAA?$AAd?$AAd?$AAr?$AAe?$AAs?$AAs?$AA?3?$AA?5?$AAF@| [ DATA ] ; `string'
	EXPORT	|??_C@_1HK@PJAFBNNF@?$AAC?$AAM?$AAE?$AAM?$AA?5?$AAD?$AAe?$AAb?$AAu?$AAg?$AA?3?$AA?5?$AAC?$AAM?$AAE?$AAM?$AA_?$AAu?$AAn?$AAm?$AAa?$AAp?$AAA?$AAd?$AAd?$AAr?$AAe?$AAs?$AAs?$AA?3?$AA?5?$AAe@| [ DATA ] ; `string'
	EXPORT	|CMEM_unmapAddress|

  000d0			 AREA	 |.pdata|, PDATA
|$T37414| DCD	|$LN6@CMEM_unmap|
	DCD	0x40003104

  00000			 AREA	 |.rdata|, DATA, READONLY
|??_C@_1II@HDMFEDCC@?$AAC?$AAM?$AAE?$AAM?$AA?5?$AAE?$AAr?$AAr?$AAo?$AAr?$AA?3?$AA?5?$AAC?$AAM?$AAE?$AAM?$AA_?$AAu?$AAn?$AAm?$AAa?$AAp?$AAA?$AAd?$AAd?$AAr?$AAe?$AAs?$AAs?$AA?3?$AA?5?$AAF@| DCB "C"
	DCB	0x0, "M", 0x0, "E", 0x0, "M", 0x0, " ", 0x0, "E", 0x0, "r"
	DCB	0x0, "r", 0x0, "o", 0x0, "r", 0x0, ":", 0x0, " ", 0x0, "C"
	DCB	0x0, "M", 0x0, "E", 0x0, "M", 0x0, "_", 0x0, "u", 0x0, "n"
	DCB	0x0, "m", 0x0, "a", 0x0, "p", 0x0, "A", 0x0, "d", 0x0, "d"
	DCB	0x0, "r", 0x0, "e", 0x0, "s", 0x0, "s", 0x0, ":", 0x0, " "
	DCB	0x0, "F", 0x0, "a", 0x0, "i", 0x0, "l", 0x0, "e", 0x0, "d"
	DCB	0x0, " ", 0x0, "t", 0x0, "o", 0x0, " ", 0x0, "u", 0x0, "n"
	DCB	0x0, "m", 0x0, "a", 0x0, "p", 0x0, " ", 0x0, "v", 0x0, "i"
	DCB	0x0, "r", 0x0, "t", 0x0, "u", 0x0, "a", 0x0, "l", 0x0, " "
	DCB	0x0, "a", 0x0, "d", 0x0, "d", 0x0, "r", 0x0, "e", 0x0, "s"
	DCB	0x0, "s", 0x0, " ", 0x0, "%", 0x0, "#", 0x0, "x", 0x0, 0xa
	DCB	0x0, 0x0, 0x0				; `string'

  00000			 AREA	 |.rdata|, DATA, READONLY
|??_C@_1HK@PJAFBNNF@?$AAC?$AAM?$AAE?$AAM?$AA?5?$AAD?$AAe?$AAb?$AAu?$AAg?$AA?3?$AA?5?$AAC?$AAM?$AAE?$AAM?$AA_?$AAu?$AAn?$AAm?$AAa?$AAp?$AAA?$AAd?$AAd?$AAr?$AAe?$AAs?$AAs?$AA?3?$AA?5?$AAe@| DCB "C"
	DCB	0x0, "M", 0x0, "E", 0x0, "M", 0x0, " ", 0x0, "D", 0x0, "e"
	DCB	0x0, "b", 0x0, "u", 0x0, "g", 0x0, ":", 0x0, " ", 0x0, "C"
	DCB	0x0, "M", 0x0, "E", 0x0, "M", 0x0, "_", 0x0, "u", 0x0, "n"
	DCB	0x0, "m", 0x0, "a", 0x0, "p", 0x0, "A", 0x0, "d", 0x0, "d"
	DCB	0x0, "r", 0x0, "e", 0x0, "s", 0x0, "s", 0x0, ":", 0x0, " "
	DCB	0x0, "e", 0x0, "n", 0x0, "t", 0x0, "e", 0x0, "r", 0x0, "e"
	DCB	0x0, "d", 0x0, ",", 0x0, " ", 0x0, "a", 0x0, "d", 0x0, "d"
	DCB	0x0, "r", 0x0, " ", 0x0, "%", 0x0, "p", 0x0, ",", 0x0, " "
	DCB	0x0, "l", 0x0, "e", 0x0, "n", 0x0, "g", 0x0, "t", 0x0, "h"
	DCB	0x0, " ", 0x0, "%", 0x0, "#", 0x0, "x", 0x0, 0xa, 0x0, 0x0
	DCB	0x0					; `string'
; Function compile flags: /Odtp

  014a0			 AREA	 |.text|, CODE, ARM

  014a0		 |CMEM_unmapAddress| PROC

; 633  : {

  014a0		 |$LN6@CMEM_unmap|
  014a0	e1a0c00d	 mov         r12, sp
  014a4	e92d0003	 stmdb       sp!, {r0, r1}
  014a8	e92d5000	 stmdb       sp!, {r12, lr}
  014ac	e24dd040	 sub         sp, sp, #0x40
  014b0		 |$M37411|

; 634  :     union CMEM_AllocUnion mapDesc;
; 635  :     DWORD   dwBytesReturned;
; 636  : 
; 637  :     __D("CMEM_unmapAddress: entered, addr %p, length %#x\n", virtAddr, length);

  014b0	e59d204c	 ldr         r2, [sp, #0x4C]
  014b4	e59d1048	 ldr         r1, [sp, #0x48]
  014b8	e59f00a0	 ldr         r0, [pc, #0xA0]
  014bc	eb000000	 bl          NKDbgPrintfW

; 638  : 
; 639  :     mapDesc.unmap_inparams.virtp = virtAddr;

  014c0	e59d3048	 ldr         r3, [sp, #0x48]
  014c4	e58d3010	 str         r3, [sp, #0x10]

; 640  :     mapDesc.unmap_inparams.size = (size_t)length;

  014c8	e59d304c	 ldr         r3, [sp, #0x4C]
  014cc	e58d3014	 str         r3, [sp, #0x14]

; 641  :     mapDesc.unmap_inparams.dwProcId = (DWORD)GetCurrentProcessId();

  014d0	eb000000	 bl          GetCurrentProcessId
  014d4	e58d0038	 str         r0, [sp, #0x38]
  014d8	e59d3038	 ldr         r3, [sp, #0x38]
  014dc	e58d3018	 str         r3, [sp, #0x18]

; 642  : 
; 643  :     if (!DeviceIoControl(hCMEM, CMEM_IOCUNMAPADDRESS, &mapDesc,
; 644  :                 sizeof(mapDesc), NULL, 0, &dwBytesReturned, NULL)) {

  014e0	e3a03000	 mov         r3, #0
  014e4	e58d300c	 str         r3, [sp, #0xC]
  014e8	e28d3020	 add         r3, sp, #0x20
  014ec	e58d3008	 str         r3, [sp, #8]
  014f0	e3a03000	 mov         r3, #0
  014f4	e58d3004	 str         r3, [sp, #4]
  014f8	e3a03000	 mov         r3, #0
  014fc	e58d3000	 str         r3, [sp]
  01500	e3a03010	 mov         r3, #0x10
  01504	e28d2010	 add         r2, sp, #0x10
  01508	e3a0100d	 mov         r1, #0xD
  0150c	e59f0048	 ldr         r0, [pc, #0x48]
  01510	e5900000	 ldr         r0, [r0]
  01514	eb000000	 bl          DeviceIoControl
  01518	e58d003c	 str         r0, [sp, #0x3C]
  0151c	e59d303c	 ldr         r3, [sp, #0x3C]
  01520	e3530000	 cmp         r3, #0
  01524	1a000005	 bne         |$LN1@CMEM_unmap|

; 645  :         __E("CMEM_unmapAddress: Failed to unmap virtual address %#x\n",
; 646  :                 (unsigned int)virtAddr);

  01528	e59d1048	 ldr         r1, [sp, #0x48]
  0152c	e59f0024	 ldr         r0, [pc, #0x24]
  01530	eb000000	 bl          NKDbgPrintfW

; 647  :         return (-3);

  01534	e3e03002	 mvn         r3, #2
  01538	e58d3034	 str         r3, [sp, #0x34]
  0153c	ea000001	 b           |$LN2@CMEM_unmap|
  01540		 |$LN1@CMEM_unmap|

; 648  :     }
; 649  :     return (0);

  01540	e3a03000	 mov         r3, #0
  01544	e58d3034	 str         r3, [sp, #0x34]
  01548		 |$LN2@CMEM_unmap|

; 650  : }

  01548	e59d0034	 ldr         r0, [sp, #0x34]
  0154c	e28dd040	 add         sp, sp, #0x40
  01550	e89d6000	 ldmia       sp, {sp, lr}
  01554	e12fff1e	 bx          lr
  01558		 |$LN7@CMEM_unmap|
  01558		 |$LN8@CMEM_unmap|
  01558	00000000	 DCD         |??_C@_1II@HDMFEDCC@?$AAC?$AAM?$AAE?$AAM?$AA?5?$AAE?$AAr?$AAr?$AAo?$AAr?$AA?3?$AA?5?$AAC?$AAM?$AAE?$AAM?$AA_?$AAu?$AAn?$AAm?$AAa?$AAp?$AAA?$AAd?$AAd?$AAr?$AAe?$AAs?$AAs?$AA?3?$AA?5?$AAF@|
  0155c		 |$LN9@CMEM_unmap|
  0155c	00000000	 DCD         |hCMEM|
  01560		 |$LN10@CMEM_unmap|
  01560	00000000	 DCD         |??_C@_1HK@PJAFBNNF@?$AAC?$AAM?$AAE?$AAM?$AA?5?$AAD?$AAe?$AAb?$AAu?$AAg?$AA?3?$AA?5?$AAC?$AAM?$AAE?$AAM?$AA_?$AAu?$AAn?$AAm?$AAa?$AAp?$AAA?$AAd?$AAd?$AAr?$AAe?$AAs?$AAs?$AA?3?$AA?5?$AAe@|
  01564		 |$M37412|

			 ENDP  ; |CMEM_unmapAddress|

	END
